 WebWorkerThreads

 Timestamp is 57093f3c (Sat Apr  9 13:43:24 2016)

 Preferred load address is 0000000180000000

 Start         Length     Name                   Class
 0001:00000000 000001dbH .text                   CODE
 0001:000001e0 00000057H .text$di                CODE
 0001:00000240 00021987H .text$mn                CODE
 0001:00021bd0 00000012H .text$mn$00             CODE
 0001:00021bf0 00000340H .text$x                 CODE
 0001:00021f30 00000023H .text$yd                CODE
 0002:00000000 00000278H .idata$5                DATA
 0002:00000278 00000010H .00cfg                  DATA
 0002:00000288 00000008H .CRT$XCA                DATA
 0002:00000290 00000020H .CRT$XCU                DATA
 0002:000002b0 00000008H .CRT$XCZ                DATA
 0002:000002b8 00000008H .CRT$XIA                DATA
 0002:000002c0 00000018H .CRT$XIC                DATA
 0002:000002d8 00000008H .CRT$XIZ                DATA
 0002:000002e0 00000008H .CRT$XPA                DATA
 0002:000002e8 00000010H .CRT$XPX                DATA
 0002:000002f8 00000008H .CRT$XPXA               DATA
 0002:00000300 00000008H .CRT$XPZ                DATA
 0002:00000308 00000008H .CRT$XTA                DATA
 0002:00000310 00000008H .CRT$XTZ                DATA
 0002:00000320 0000a634H .rdata                  DATA
 0002:0000a958 000001f4H .rdata$r                DATA
 0002:0000ab50 00000010H .rdata$zETW0            DATA
 0002:0000ab60 00000077H .rdata$zETW1            DATA
 0002:0000abd7 0000002cH .rdata$zETW2            DATA
 0002:0000ac03 00000001H .rdata$zETW9            DATA
 0002:0000ac04 00000498H .rdata$zzzdbg           DATA
 0002:0000b0a0 00000008H .rtc$IAA                DATA
 0002:0000b0a8 00000008H .rtc$IZZ                DATA
 0002:0000b0b0 00000008H .rtc$TAA                DATA
 0002:0000b0b8 00000008H .rtc$TZZ                DATA
 0002:0000b0c0 0000189cH .xdata                  DATA
 0002:0000c960 00000174H .xdata$x                DATA
 0002:0000cad4 00000020H .didat$2                DATA
 0002:0000caf4 00000020H .didat$3                DATA
 0002:0000cb18 000004e0H .didat$4                DATA
 0002:0000cff8 000023feH .didat$6                DATA
 0002:0000f3f8 000004e0H .didat$7                DATA
 0002:0000f8e0 00004694H .edata                  DATA
 0002:00013f74 00000028H .idata$2                DATA
 0002:00013f9c 00000014H .idata$3                DATA
 0002:00013fb0 00000278H .idata$4                DATA
 0002:00014228 000005bcH .idata$6                DATA
 0003:00000000 00000b08H .data                   DATA
 0003:00000b08 000000ceH .data$r                 DATA
 0003:00000bd8 000004e0H .didat$5                DATA
 0003:000010c0 00001140H .bss                    DATA
 0004:00000000 00001d40H .pdata                  DATA
 0005:00000000 00000080H .gfids$x                DATA
 0005:00000080 00000038H .gfids$y                DATA
 0006:00000000 00000058H .rsrc$01                DATA
 0006:00000060 00000180H .rsrc$02                DATA

  Address         Publics by Value              Rva+Base               Lib:Object

 0000:00000000       __guard_iat_table          0000000000000000     <absolute>
 0000:00000000       __guard_iat_count          0000000000000000     <absolute>
 0000:00000000       __guard_longjmp_table      0000000000000000     <absolute>
 0000:00000000       __guard_fids_count         0000000000000000     <absolute>
 0000:00000000       __guard_longjmp_count      0000000000000000     <absolute>
 0000:00000000       ___safe_se_handler_table   0000000000000000     <absolute>
 0000:00000000       ___safe_se_handler_count   0000000000000000     <absolute>
 0000:00000000       __guard_fids_table         0000000000000000     <absolute>
 0000:00000100       __guard_flags              0000000000000100     <absolute>
 0000:00000000       __ImageBase                0000000180000000     <linker-defined>
 0001:00000000       ?TraceLoggingRegister@__vcrt_trace_logging_provider@@YAJPEBU_TlgProvider_t@1@PEBU_GUID@@P6AX1KE_K2PEAU_EVENT_FILTER_DESCRIPTOR@@PEAX@Z4@Z 0000000180001000 f i libvcruntime:telemetry.obj
 0001:0000007c       ?_TlgEnableCallback@__vcrt_trace_logging_provider@@YAXPEBU_GUID@@KE_K1PEAU_EVENT_FILTER_DESCRIPTOR@@PEAX@Z 000000018000107c f i libvcruntime:telemetry.obj
 0001:00000140       ?_TlgWrite@__vcrt_trace_logging_provider@@YAJPEBU_TlgProvider_t@1@PEFBXPEBU_GUID@@2IPEAU_EVENT_DATA_DESCRIPTOR@@@Z 0000000180001140 f i libvcruntime:telemetry.obj
 0001:00000240       __local_stdio_printf_options 0000000180001240 f i WebWorkerThreads.obj
 0001:00000250       fprintf                    0000000180001250 f i WebWorkerThreads.obj
 0001:000002a0       printf                     00000001800012a0 f i WebWorkerThreads.obj
 0001:00000300       sprintf                    0000000180001300 f i WebWorkerThreads.obj
 0001:00000360       ??DValue@String@v8@@QEAAPEAGXZ 0000000180001360 f i WebWorkerThreads.obj
 0001:00000360       ?space_name@HeapSpaceStatistics@v8@@QEAAPEBDXZ 0000000180001360 f i WebWorkerThreads.obj
 0001:00000360       ?impl@StreamedSource@ScriptCompiler@v8@@QEBAPEAU1internal@3@XZ 0000000180001360 f i WebWorkerThreads.obj
 0001:00000360       ??DUtf8Value@String@v8@@QEBAPEBDXZ 0000000180001360 f i WebWorkerThreads.obj
 0001:00000360       ?Data@Contents@ArrayBuffer@v8@@QEBAPEAXXZ 0000000180001360 f i WebWorkerThreads.obj
 0001:00000360       ??DValue@String@v8@@QEBAPEBGXZ 0000000180001360 f i WebWorkerThreads.obj
 0001:00000360       ??DUtf8Value@String@v8@@QEAAPEADXZ 0000000180001360 f i WebWorkerThreads.obj
 0001:00000360       ?Data@Contents@SharedArrayBuffer@v8@@QEBAPEAXXZ 0000000180001360 f i WebWorkerThreads.obj
 0001:00000360       ?total_heap_size@HeapStatistics@v8@@QEAA_KXZ 0000000180001360 f i WebWorkerThreads.obj
 0001:00000360       ?GetIsolate@HandleScope@v8@@QEBAPEAVIsolate@2@XZ 0000000180001360 f i WebWorkerThreads.obj
 0001:00000360       ?object_type@HeapObjectStatistics@v8@@QEAAPEBDXZ 0000000180001360 f i WebWorkerThreads.obj
 0001:00000370       ?Cast@Uint16Array@v8@@SAPEAV12@PEAVValue@2@@Z 0000000180001370 f i WebWorkerThreads.obj
 0001:00000370       ??4Object@v8@@QEAAAEAV01@AEBV01@@Z 0000000180001370 f i WebWorkerThreads.obj
 0001:00000370       ?Cast@TypedArray@v8@@SAPEAV12@PEAVValue@2@@Z 0000000180001370 f i WebWorkerThreads.obj
 0001:00000370       ??4ArrayBufferView@v8@@QEAAAEAV01@AEBV01@@Z 0000000180001370 f i WebWorkerThreads.obj
 0001:00000370       ??4RegExp@v8@@QEAAAEAV01@$$QEAV01@@Z 0000000180001370 f i WebWorkerThreads.obj
 0001:00000370       ??4Primitive@v8@@QEAAAEAV01@AEBV01@@Z 0000000180001370 f i WebWorkerThreads.obj
 0001:00000370       ??4Set@v8@@QEAAAEAV01@$$QEAV01@@Z 0000000180001370 f i WebWorkerThreads.obj
 0001:00000370       ??4SymbolObject@v8@@QEAAAEAV01@AEBV01@@Z 0000000180001370 f i WebWorkerThreads.obj
 0001:00000370       ??4Integer@v8@@QEAAAEAV01@$$QEAV01@@Z 0000000180001370 f i WebWorkerThreads.obj
 0001:00000370       ??4Data@v8@@QEAAAEAV01@AEBV01@@Z 0000000180001370 f i WebWorkerThreads.obj
 0001:00000370       ??4Message@v8@@QEAAAEAV01@AEBV01@@Z 0000000180001370 f i WebWorkerThreads.obj
 0001:00000370       ??4NativeWeakMap@v8@@QEAAAEAV01@$$QEAV01@@Z 0000000180001370 f i WebWorkerThreads.obj
 0001:00000370       ??4RegExp@v8@@QEAAAEAV01@AEBV01@@Z 0000000180001370 f i WebWorkerThreads.obj
 0001:00000370       ??4Name@v8@@QEAAAEAV01@AEBV01@@Z 0000000180001370 f i WebWorkerThreads.obj
 0001:00000370       ??4Float32Array@v8@@QEAAAEAV01@$$QEAV01@@Z 0000000180001370 f i WebWorkerThreads.obj
 0001:00000370       ?Cast@RegExp@v8@@SAPEAV12@PEAVValue@2@@Z 0000000180001370 f i WebWorkerThreads.obj
 0001:00000370       ??4Boolean@v8@@QEAAAEAV01@AEBV01@@Z 0000000180001370 f i WebWorkerThreads.obj
 0001:00000370       ?Cast@Int32Array@v8@@SAPEAV12@PEAVValue@2@@Z 0000000180001370 f i WebWorkerThreads.obj
 0001:00000370       ?Cast@DataView@v8@@SAPEAV12@PEAVValue@2@@Z 0000000180001370 f i WebWorkerThreads.obj
 0001:00000370       ?Cast@ArrayBufferView@v8@@SAPEAV12@PEAVValue@2@@Z 0000000180001370 f i WebWorkerThreads.obj
 0001:00000370       ??4Uint32@v8@@QEAAAEAV01@$$QEAV01@@Z 0000000180001370 f i WebWorkerThreads.obj
 0001:00000370       ??4FunctionTemplate@v8@@QEAAAEAV01@AEBV01@@Z 0000000180001370 f i WebWorkerThreads.obj
 0001:00000370       ??0HandleScope@v8@@IEAA@XZ 0000000180001370 f i WebWorkerThreads.obj
 0001:00000370       ??4TypeSwitch@v8@@QEAAAEAV01@AEBV01@@Z 0000000180001370 f i WebWorkerThreads.obj
 0001:00000370       ??4Name@v8@@QEAAAEAV01@$$QEAV01@@Z 0000000180001370 f i WebWorkerThreads.obj
 0001:00000370       ??4Uint8ClampedArray@v8@@QEAAAEAV01@AEBV01@@Z 0000000180001370 f i WebWorkerThreads.obj
 0001:00000370       ?Cast@Resolver@Promise@v8@@SAPEAV123@PEAVValue@3@@Z 0000000180001370 f i WebWorkerThreads.obj
 0001:00000370       ??4StringObject@v8@@QEAAAEAV01@$$QEAV01@@Z 0000000180001370 f i WebWorkerThreads.obj
 0001:00000370       ?Cast@Int32@v8@@SAPEAV12@PEAVValue@2@@Z 0000000180001370 f i WebWorkerThreads.obj
 0001:00000370       ??4UnboundScript@v8@@QEAAAEAV01@AEBV01@@Z 0000000180001370 f i WebWorkerThreads.obj
 0001:00000370       ?Cast@Object@v8@@SAPEAV12@PEAVValue@2@@Z 0000000180001370 f i WebWorkerThreads.obj
 0001:00000370       ??4Allocator@ArrayBuffer@v8@@QEAAAEAV012@AEBV012@@Z 0000000180001370 f i WebWorkerThreads.obj
 0001:00000370       ?Cast@Promise@v8@@SAPEAV12@PEAVValue@2@@Z 0000000180001370 f i WebWorkerThreads.obj
 0001:00000370       ??4Resolver@Promise@v8@@QEAAAEAV012@$$QEAV012@@Z 0000000180001370 f i WebWorkerThreads.obj
 0001:00000370       ??4Uint8ClampedArray@v8@@QEAAAEAV01@$$QEAV01@@Z 0000000180001370 f i WebWorkerThreads.obj
 0001:00000370       ??4Int32@v8@@QEAAAEAV01@$$QEAV01@@Z 0000000180001370 f i WebWorkerThreads.obj
 0001:00000370       ??4Integer@v8@@QEAAAEAV01@AEBV01@@Z 0000000180001370 f i WebWorkerThreads.obj
 0001:00000370       ??4Primitive@v8@@QEAAAEAV01@$$QEAV01@@Z 0000000180001370 f i WebWorkerThreads.obj
 0001:00000370       ??4Object@v8@@QEAAAEAV01@$$QEAV01@@Z 0000000180001370 f i WebWorkerThreads.obj
 0001:00000370       ??4UnboundScript@v8@@QEAAAEAV01@$$QEAV01@@Z 0000000180001370 f i WebWorkerThreads.obj
 0001:00000370       ?Cast@Symbol@v8@@SAPEAV12@PEAVValue@2@@Z 0000000180001370 f i WebWorkerThreads.obj
 0001:00000370       ??4Context@v8@@QEAAAEAV01@AEBV01@@Z 0000000180001370 f i WebWorkerThreads.obj
 0001:00000370       ?Cast@Uint8ClampedArray@v8@@SAPEAV12@PEAVValue@2@@Z 0000000180001370 f i WebWorkerThreads.obj
 0001:00000370       ??4SharedArrayBuffer@v8@@QEAAAEAV01@$$QEAV01@@Z 0000000180001370 f i WebWorkerThreads.obj
 0001:00000370       ??4Function@v8@@QEAAAEAV01@$$QEAV01@@Z 0000000180001370 f i WebWorkerThreads.obj
 0001:00000370       ??4DataView@v8@@QEAAAEAV01@AEBV01@@Z 0000000180001370 f i WebWorkerThreads.obj
 0001:00000370       ??4Template@v8@@QEAAAEAV01@$$QEAV01@@Z 0000000180001370 f i WebWorkerThreads.obj
 0001:00000370       ??4Uint8Array@v8@@QEAAAEAV01@$$QEAV01@@Z 0000000180001370 f i WebWorkerThreads.obj
 0001:00000370       ??4BooleanObject@v8@@QEAAAEAV01@$$QEAV01@@Z 0000000180001370 f i WebWorkerThreads.obj
 0001:00000370       ??4Symbol@v8@@QEAAAEAV01@AEBV01@@Z 0000000180001370 f i WebWorkerThreads.obj
 0001:00000370       ??4Resolver@Promise@v8@@QEAAAEAV012@AEBV012@@Z 0000000180001370 f i WebWorkerThreads.obj
 0001:00000370       ??4Int32@v8@@QEAAAEAV01@AEBV01@@Z 0000000180001370 f i WebWorkerThreads.obj
 0001:00000370       ??4Boolean@v8@@QEAAAEAV01@$$QEAV01@@Z 0000000180001370 f i WebWorkerThreads.obj
 0001:00000370       ??4Array@v8@@QEAAAEAV01@AEBV01@@Z 0000000180001370 f i WebWorkerThreads.obj
 0001:00000370       ??4Date@v8@@QEAAAEAV01@$$QEAV01@@Z 0000000180001370 f i WebWorkerThreads.obj
 0001:00000370       ??4Int32Array@v8@@QEAAAEAV01@$$QEAV01@@Z 0000000180001370 f i WebWorkerThreads.obj
 0001:00000370       ??4Map@v8@@QEAAAEAV01@$$QEAV01@@Z 0000000180001370 f i WebWorkerThreads.obj
 0001:00000370       ??4Exception@v8@@QEAAAEAV01@AEBV01@@Z 0000000180001370 f i WebWorkerThreads.obj
 0001:00000370       ??4ArrayBufferView@v8@@QEAAAEAV01@$$QEAV01@@Z 0000000180001370 f i WebWorkerThreads.obj
 0001:00000370       ??4ArrayBuffer@v8@@QEAAAEAV01@$$QEAV01@@Z 0000000180001370 f i WebWorkerThreads.obj
 0001:00000370       ?Cast@StringObject@v8@@SAPEAV12@PEAVValue@2@@Z 0000000180001370 f i WebWorkerThreads.obj
 0001:00000370       ??4JSON@v8@@QEAAAEAV01@$$QEAV01@@Z 0000000180001370 f i WebWorkerThreads.obj
 0001:00000370       ??4String@v8@@QEAAAEAV01@$$QEAV01@@Z 0000000180001370 f i WebWorkerThreads.obj
 0001:00000370       ?Cast@Map@v8@@SAPEAV12@PEAVValue@2@@Z 0000000180001370 f i WebWorkerThreads.obj
 0001:00000370       ??4Int8Array@v8@@QEAAAEAV01@AEBV01@@Z 0000000180001370 f i WebWorkerThreads.obj
 0001:00000370       ??4Signature@v8@@QEAAAEAV01@AEBV01@@Z 0000000180001370 f i WebWorkerThreads.obj
 0001:00000370       ??4ExternalSourceStream@ScriptCompiler@v8@@QEAAAEAV012@AEBV012@@Z 0000000180001370 f i WebWorkerThreads.obj
 0001:00000370       ??4Array@v8@@QEAAAEAV01@$$QEAV01@@Z 0000000180001370 f i WebWorkerThreads.obj
 0001:00000370       ?Cast@Uint32Array@v8@@SAPEAV12@PEAVValue@2@@Z 0000000180001370 f i WebWorkerThreads.obj
 0001:00000370       ??4Date@v8@@QEAAAEAV01@AEBV01@@Z 0000000180001370 f i WebWorkerThreads.obj
 0001:00000370       ??4DataView@v8@@QEAAAEAV01@$$QEAV01@@Z 0000000180001370 f i WebWorkerThreads.obj
 0001:00000370       ?Cast@SymbolObject@v8@@SAPEAV12@PEAVValue@2@@Z 0000000180001370 f i WebWorkerThreads.obj
 0001:00000370       ??4ObjectTemplate@v8@@QEAAAEAV01@AEBV01@@Z 0000000180001370 f i WebWorkerThreads.obj
 0001:00000370       ??4Float64Array@v8@@QEAAAEAV01@AEBV01@@Z 0000000180001370 f i WebWorkerThreads.obj
 0001:00000370       ?Cast@NumberObject@v8@@SAPEAV12@PEAVValue@2@@Z 0000000180001370 f i WebWorkerThreads.obj
 0001:00000370       ?Cast@Integer@v8@@SAPEAV12@PEAVValue@2@@Z 0000000180001370 f i WebWorkerThreads.obj
 0001:00000370       ?Cast@String@v8@@SAPEAV12@PEAVValue@2@@Z 0000000180001370 f i WebWorkerThreads.obj
 0001:00000370       ?Cast@Number@v8@@SAPEAV12@PEAVValue@2@@Z 0000000180001370 f i WebWorkerThreads.obj
 0001:00000370       ??4StackFrame@v8@@QEAAAEAV01@$$QEAV01@@Z 0000000180001370 f i WebWorkerThreads.obj
 0001:00000370       ??4Promise@v8@@QEAAAEAV01@$$QEAV01@@Z 0000000180001370 f i WebWorkerThreads.obj
 0001:00000370       ??4ObjectTemplate@v8@@QEAAAEAV01@$$QEAV01@@Z 0000000180001370 f i WebWorkerThreads.obj
 0001:00000370       ??4NumberObject@v8@@QEAAAEAV01@$$QEAV01@@Z 0000000180001370 f i WebWorkerThreads.obj
 0001:00000370       ??4Value@v8@@QEAAAEAV01@AEBV01@@Z 0000000180001370 f i WebWorkerThreads.obj
 0001:00000370       ?Cast@Uint32@v8@@SAPEAV12@PEAVValue@2@@Z 0000000180001370 f i WebWorkerThreads.obj
 0001:00000370       ??4Template@v8@@QEAAAEAV01@AEBV01@@Z 0000000180001370 f i WebWorkerThreads.obj
 0001:00000370       ??4ExternalResourceVisitor@v8@@QEAAAEAV01@AEBV01@@Z 0000000180001370 f i WebWorkerThreads.obj
 0001:00000370       ??4AccessorSignature@v8@@QEAAAEAV01@$$QEAV01@@Z 0000000180001370 f i WebWorkerThreads.obj
 0001:00000370       ??4Int16Array@v8@@QEAAAEAV01@$$QEAV01@@Z 0000000180001370 f i WebWorkerThreads.obj
 0001:00000370       ??4StackTrace@v8@@QEAAAEAV01@$$QEAV01@@Z 0000000180001370 f i WebWorkerThreads.obj
 0001:00000370       ??4Message@v8@@QEAAAEAV01@$$QEAV01@@Z 0000000180001370 f i WebWorkerThreads.obj
 0001:00000370       ??4String@v8@@QEAAAEAV01@AEBV01@@Z 0000000180001370 f i WebWorkerThreads.obj
 0001:00000370       ??4JSON@v8@@QEAAAEAV01@AEBV01@@Z 0000000180001370 f i WebWorkerThreads.obj
 0001:00000370       ?Cast@Int16Array@v8@@SAPEAV12@PEAVValue@2@@Z 0000000180001370 f i WebWorkerThreads.obj
 0001:00000370       ??4Uint32@v8@@QEAAAEAV01@AEBV01@@Z 0000000180001370 f i WebWorkerThreads.obj
 0001:00000370       ??4V8@v8@@QEAAAEAV01@$$QEAV01@@Z 0000000180001370 f i WebWorkerThreads.obj
 0001:00000370       ??4Context@v8@@QEAAAEAV01@$$QEAV01@@Z 0000000180001370 f i WebWorkerThreads.obj
 0001:00000370       ??4Number@v8@@QEAAAEAV01@AEBV01@@Z 0000000180001370 f i WebWorkerThreads.obj
 0001:00000370       ??4Int16Array@v8@@QEAAAEAV01@AEBV01@@Z 0000000180001370 f i WebWorkerThreads.obj
 0001:00000370       ??4BooleanObject@v8@@QEAAAEAV01@AEBV01@@Z 0000000180001370 f i WebWorkerThreads.obj
 0001:00000370       ??4Signature@v8@@QEAAAEAV01@$$QEAV01@@Z 0000000180001370 f i WebWorkerThreads.obj
 0001:00000370       ??4TypeSwitch@v8@@QEAAAEAV01@$$QEAV01@@Z 0000000180001370 f i WebWorkerThreads.obj
 0001:00000370       ??4TypedArray@v8@@QEAAAEAV01@$$QEAV01@@Z 0000000180001370 f i WebWorkerThreads.obj
 0001:00000370       ??4Script@v8@@QEAAAEAV01@$$QEAV01@@Z 0000000180001370 f i WebWorkerThreads.obj
 0001:00000370       ??4Int32Array@v8@@QEAAAEAV01@AEBV01@@Z 0000000180001370 f i WebWorkerThreads.obj
 0001:00000370       ?Cast@ArrayBuffer@v8@@SAPEAV12@PEAVValue@2@@Z 0000000180001370 f i WebWorkerThreads.obj
 0001:00000370       ??4NumberObject@v8@@QEAAAEAV01@AEBV01@@Z 0000000180001370 f i WebWorkerThreads.obj
 0001:00000370       ??4Float64Array@v8@@QEAAAEAV01@$$QEAV01@@Z 0000000180001370 f i WebWorkerThreads.obj
 0001:00000370       ?Cast@Array@v8@@SAPEAV12@PEAVValue@2@@Z 0000000180001370 f i WebWorkerThreads.obj
 0001:00000370       ??4External@v8@@QEAAAEAV01@AEBV01@@Z 0000000180001370 f i WebWorkerThreads.obj
 0001:00000370       ??4AccessorSignature@v8@@QEAAAEAV01@AEBV01@@Z 0000000180001370 f i WebWorkerThreads.obj
 0001:00000370       ??4Function@v8@@QEAAAEAV01@AEBV01@@Z 0000000180001370 f i WebWorkerThreads.obj
 0001:00000370       ??4StackTrace@v8@@QEAAAEAV01@AEBV01@@Z 0000000180001370 f i WebWorkerThreads.obj
 0001:00000370       ?Cast@Boolean@v8@@SAPEAV12@PEAVValue@2@@Z 0000000180001370 f i WebWorkerThreads.obj
 0001:00000370       ??4StackFrame@v8@@QEAAAEAV01@AEBV01@@Z 0000000180001370 f i WebWorkerThreads.obj
 0001:00000370       ??4Uint8Array@v8@@QEAAAEAV01@AEBV01@@Z 0000000180001370 f i WebWorkerThreads.obj
 0001:00000370       ??4External@v8@@QEAAAEAV01@$$QEAV01@@Z 0000000180001370 f i WebWorkerThreads.obj
 0001:00000370       ??4Value@v8@@QEAAAEAV01@$$QEAV01@@Z 0000000180001370 f i WebWorkerThreads.obj
 0001:00000370       ??4SharedArrayBuffer@v8@@QEAAAEAV01@AEBV01@@Z 0000000180001370 f i WebWorkerThreads.obj
 0001:00000370       ??4Uint32Array@v8@@QEAAAEAV01@AEBV01@@Z 0000000180001370 f i WebWorkerThreads.obj
 0001:00000370       ?Cast@Set@v8@@SAPEAV12@PEAVValue@2@@Z 0000000180001370 f i WebWorkerThreads.obj
 0001:00000370       ??4PersistentHandleVisitor@v8@@QEAAAEAV01@AEBV01@@Z 0000000180001370 f i WebWorkerThreads.obj
 0001:00000370       ??4ScriptCompiler@v8@@QEAAAEAV01@$$QEAV01@@Z 0000000180001370 f i WebWorkerThreads.obj
 0001:00000370       ??4Data@v8@@QEAAAEAV01@$$QEAV01@@Z 0000000180001370 f i WebWorkerThreads.obj
 0001:00000370       ?Cast@Int8Array@v8@@SAPEAV12@PEAVValue@2@@Z 0000000180001370 f i WebWorkerThreads.obj
 0001:00000370       ?Cast@Float64Array@v8@@SAPEAV12@PEAVValue@2@@Z 0000000180001370 f i WebWorkerThreads.obj
 0001:00000370       ??4ScriptCompiler@v8@@QEAAAEAV01@AEBV01@@Z 0000000180001370 f i WebWorkerThreads.obj
 0001:00000370       ??4Number@v8@@QEAAAEAV01@$$QEAV01@@Z 0000000180001370 f i WebWorkerThreads.obj
 0001:00000370       ?Cast@Name@v8@@SAPEAV12@PEAVValue@2@@Z 0000000180001370 f i WebWorkerThreads.obj
 0001:00000370       ?Cast@BooleanObject@v8@@SAPEAV12@PEAVValue@2@@Z 0000000180001370 f i WebWorkerThreads.obj
 0001:00000370       ?Cast@Uint8Array@v8@@SAPEAV12@PEAVValue@2@@Z 0000000180001370 f i WebWorkerThreads.obj
 0001:00000370       ??4Int8Array@v8@@QEAAAEAV01@$$QEAV01@@Z 0000000180001370 f i WebWorkerThreads.obj
 0001:00000370       ??4ArrayBuffer@v8@@QEAAAEAV01@AEBV01@@Z 0000000180001370 f i WebWorkerThreads.obj
 0001:00000370       ??4Symbol@v8@@QEAAAEAV01@$$QEAV01@@Z 0000000180001370 f i WebWorkerThreads.obj
 0001:00000370       ??4Float32Array@v8@@QEAAAEAV01@AEBV01@@Z 0000000180001370 f i WebWorkerThreads.obj
 0001:00000370       ?Cast@Date@v8@@SAPEAV12@PEAVValue@2@@Z 0000000180001370 f i WebWorkerThreads.obj
 0001:00000370       ??4Map@v8@@QEAAAEAV01@AEBV01@@Z 0000000180001370 f i WebWorkerThreads.obj
 0001:00000370       ??4Exception@v8@@QEAAAEAV01@$$QEAV01@@Z 0000000180001370 f i WebWorkerThreads.obj
 0001:00000370       ?Cast@Function@v8@@SAPEAV12@PEAVValue@2@@Z 0000000180001370 f i WebWorkerThreads.obj
 0001:00000370       ??4Script@v8@@QEAAAEAV01@AEBV01@@Z 0000000180001370 f i WebWorkerThreads.obj
 0001:00000370       ?Cast@Float32Array@v8@@SAPEAV12@PEAVValue@2@@Z 0000000180001370 f i WebWorkerThreads.obj
 0001:00000370       ??4TypedArray@v8@@QEAAAEAV01@AEBV01@@Z 0000000180001370 f i WebWorkerThreads.obj
 0001:00000370       ??4Uint16Array@v8@@QEAAAEAV01@AEBV01@@Z 0000000180001370 f i WebWorkerThreads.obj
 0001:00000370       ??4V8@v8@@QEAAAEAV01@AEBV01@@Z 0000000180001370 f i WebWorkerThreads.obj
 0001:00000370       ??4StringObject@v8@@QEAAAEAV01@AEBV01@@Z 0000000180001370 f i WebWorkerThreads.obj
 0001:00000370       ?Cast@External@v8@@SAPEAV12@PEAVValue@2@@Z 0000000180001370 f i WebWorkerThreads.obj
 0001:00000370       ??4FunctionTemplate@v8@@QEAAAEAV01@$$QEAV01@@Z 0000000180001370 f i WebWorkerThreads.obj
 0001:00000370       ??4Uint32Array@v8@@QEAAAEAV01@$$QEAV01@@Z 0000000180001370 f i WebWorkerThreads.obj
 0001:00000370       ??4Set@v8@@QEAAAEAV01@AEBV01@@Z 0000000180001370 f i WebWorkerThreads.obj
 0001:00000370       ?Cast@SharedArrayBuffer@v8@@SAPEAV12@PEAVValue@2@@Z 0000000180001370 f i WebWorkerThreads.obj
 0001:00000370       ??4SymbolObject@v8@@QEAAAEAV01@$$QEAV01@@Z 0000000180001370 f i WebWorkerThreads.obj
 0001:00000370       ??4NativeWeakMap@v8@@QEAAAEAV01@AEBV01@@Z 0000000180001370 f i WebWorkerThreads.obj
 0001:00000370       ??4Uint16Array@v8@@QEAAAEAV01@$$QEAV01@@Z 0000000180001370 f i WebWorkerThreads.obj
 0001:00000370       ??4Promise@v8@@QEAAAEAV01@AEBV01@@Z 0000000180001370 f i WebWorkerThreads.obj
 0001:00000380       ??1EscapableHandleScope@v8@@QEAA@XZ 0000000180001380 f i WebWorkerThreads.obj
 0001:00000390       ?GetId@Script@v8@@QEAAHXZ  0000000180001390 f i WebWorkerThreads.obj
 0001:000003b0       ??0CachedData@ScriptCompiler@v8@@QEAA@XZ 00000001800013b0 f i WebWorkerThreads.obj
 0001:000003d0       ??1ExternalSourceStream@ScriptCompiler@v8@@UEAA@XZ 00000001800013d0 f i WebWorkerThreads.obj
 0001:000003e0       ??0ExternalSourceStream@ScriptCompiler@v8@@QEAA@XZ 00000001800013e0 f i WebWorkerThreads.obj
 0001:000003e0       ??0ExternalSourceStream@ScriptCompiler@v8@@QEAA@AEBV012@@Z 00000001800013e0 f i WebWorkerThreads.obj
 0001:000003f0       ??_EExternalSourceStream@ScriptCompiler@v8@@UEAAPEAXI@Z 00000001800013f0 f i WebWorkerThreads.obj
 0001:00000480       ??1ExternalStringResourceBase@String@v8@@UEAA@XZ 0000000180001480 f i WebWorkerThreads.obj
 0001:00000480       ??1ExternalOneByteStringResourceImpl@v8@@UEAA@XZ 0000000180001480 f i WebWorkerThreads.obj
 0001:00000480       ??1ExternalOneByteStringResource@String@v8@@UEAA@XZ 0000000180001480 f i WebWorkerThreads.obj
 0001:00000480       ??1ExternalStringResource@String@v8@@UEAA@XZ 0000000180001480 f i WebWorkerThreads.obj
 0001:00000490       ??0ExternalStringResourceBase@String@v8@@IEAA@XZ 0000000180001490 f i WebWorkerThreads.obj
 0001:000004a0       ?Dispose@ExternalStringResourceBase@String@v8@@MEAAXXZ 00000001800014a0 f i WebWorkerThreads.obj
 0001:000004c0       ??0ExternalStringResource@String@v8@@IEAA@XZ 00000001800014c0 f i WebWorkerThreads.obj
 0001:000004c0       ??0ExternalOneByteStringResource@String@v8@@IEAA@XZ 00000001800014c0 f i WebWorkerThreads.obj
 0001:000004d0       ?max_executable_size@ResourceConstraints@v8@@QEBAHXZ 00000001800014d0 f i WebWorkerThreads.obj
 0001:000004d0       ?length@Utf8Value@String@v8@@QEBAHXZ 00000001800014d0 f i WebWorkerThreads.obj
 0001:000004d0       ?length@Value@String@v8@@QEBAHXZ 00000001800014d0 f i WebWorkerThreads.obj
 0001:000004e0       ?InternalFieldCount@Object@v8@@SAHAEBV?$PersistentBase@VObject@v8@@@2@@Z 00000001800014e0 f i WebWorkerThreads.obj
 0001:000004f0       ?GetAlignedPointerFromInternalField@Object@v8@@SAPEAXAEBV?$PersistentBase@VObject@v8@@@2@H@Z 00000001800014f0 f i WebWorkerThreads.obj
 0001:00000520       ?NewInstance@Function@v8@@QEBA?AV?$MaybeLocal@VObject@v8@@@2@V?$Local@VContext@v8@@@2@@Z 0000000180001520 f i WebWorkerThreads.obj
 0001:00000550       ??1Allocator@ArrayBuffer@v8@@UEAA@XZ 0000000180001550 f i WebWorkerThreads.obj
 0001:00000560       ??0Contents@ArrayBuffer@v8@@QEAA@XZ 0000000180001560 f i WebWorkerThreads.obj
 0001:00000560       ??0Contents@SharedArrayBuffer@v8@@QEAA@XZ 0000000180001560 f i WebWorkerThreads.obj
 0001:00000570       ?begin@ExtensionConfiguration@v8@@QEBAPEAPEBDXZ 0000000180001570 f i WebWorkerThreads.obj
 0001:00000570       ?data@ExternalOneByteStringResourceImpl@v8@@UEBAPEBDXZ 0000000180001570 f i WebWorkerThreads.obj
 0001:00000570       ?space_size@HeapSpaceStatistics@v8@@QEAA_KXZ 0000000180001570 f i WebWorkerThreads.obj
 0001:00000570       ?ByteLength@Contents@SharedArrayBuffer@v8@@QEBA_KXZ 0000000180001570 f i WebWorkerThreads.obj
 0001:00000570       ?name@Extension@v8@@QEBAPEBDXZ 0000000180001570 f i WebWorkerThreads.obj
 0001:00000570       ?total_heap_size_executable@HeapStatistics@v8@@QEAA_KXZ 0000000180001570 f i WebWorkerThreads.obj
 0001:00000570       ?object_sub_type@HeapObjectStatistics@v8@@QEAAPEBDXZ 0000000180001570 f i WebWorkerThreads.obj
 0001:00000570       ?ByteLength@Contents@ArrayBuffer@v8@@QEBA_KXZ 0000000180001570 f i WebWorkerThreads.obj
 0001:00000580       ?SetIndexedPropertyHandler@ObjectTemplate@v8@@QEAAXP6AXIAEBV?$PropertyCallbackInfo@VValue@v8@@@2@@ZP6AXIV?$Local@VValue@v8@@@2@0@ZP6AXIAEBV?$PropertyCallbackInfo@VInteger@v8@@@2@@ZP6AXIAEBV?$PropertyCallbackInfo@VBoolean@v8@@@2@@ZP6AXAEBV?$PropertyCallbackInfo@VArray@v8@@@2@@Z2@Z 0000000180001580 f i WebWorkerThreads.obj
 0001:000005d0       ??0ExternalOneByteStringResourceImpl@v8@@QEAA@XZ 00000001800015d0 f i WebWorkerThreads.obj
 0001:000005f0       ??0ExternalOneByteStringResourceImpl@v8@@QEAA@PEBD_K@Z 00000001800015f0 f i WebWorkerThreads.obj
 0001:00000610       ?object_count@HeapObjectStatistics@v8@@QEAA_KXZ 0000000180001610 f i WebWorkerThreads.obj
 0001:00000610       ?length@ExternalOneByteStringResourceImpl@v8@@UEBA_KXZ 0000000180001610 f i WebWorkerThreads.obj
 0001:00000610       ?source_length@Extension@v8@@QEBA_KXZ 0000000180001610 f i WebWorkerThreads.obj
 0001:00000610       ?space_used_size@HeapSpaceStatistics@v8@@QEAA_KXZ 0000000180001610 f i WebWorkerThreads.obj
 0001:00000610       ?total_physical_size@HeapStatistics@v8@@QEAA_KXZ 0000000180001610 f i WebWorkerThreads.obj
 0001:00000610       ?stack_limit@ResourceConstraints@v8@@QEBAPEAIXZ 0000000180001610 f i WebWorkerThreads.obj
 0001:00000620       ??1Extension@v8@@UEAA@XZ   0000000180001620 f i WebWorkerThreads.obj
 0001:00000640       ?GetNativeFunctionTemplate@Extension@v8@@UEAA?AV?$Local@VFunctionTemplate@v8@@@2@PEAVIsolate@2@V?$Local@VString@v8@@@2@@Z 0000000180001640 f i WebWorkerThreads.obj
 0001:00000650       ?source@Extension@v8@@QEBAPEBVExternalOneByteStringResource@String@2@XZ 0000000180001650 f i WebWorkerThreads.obj
 0001:00000660       ?dependency_count@Extension@v8@@QEAAHXZ 0000000180001660 f i WebWorkerThreads.obj
 0001:00000670       ?dependencies@Extension@v8@@QEAAPEAPEBDXZ 0000000180001670 f i WebWorkerThreads.obj
 0001:00000680       ?set_auto_enable@Extension@v8@@QEAAX_N@Z 0000000180001680 f i WebWorkerThreads.obj
 0001:00000690       ?auto_enable@Extension@v8@@QEAA_NXZ 0000000180001690 f i WebWorkerThreads.obj
 0001:000006a0       ?max_semi_space_size@ResourceConstraints@v8@@QEBAHXZ 00000001800016a0 f i WebWorkerThreads.obj
 0001:000006b0       ?set_max_semi_space_size@ResourceConstraints@v8@@QEAAXH@Z 00000001800016b0 f i WebWorkerThreads.obj
 0001:000006c0       ?max_old_space_size@ResourceConstraints@v8@@QEBAHXZ 00000001800016c0 f i WebWorkerThreads.obj
 0001:000006d0       ?set_max_old_space_size@ResourceConstraints@v8@@QEAAXH@Z 00000001800016d0 f i WebWorkerThreads.obj
 0001:000006e0       ?set_max_executable_size@ResourceConstraints@v8@@QEAAXH@Z 00000001800016e0 f i WebWorkerThreads.obj
 0001:000006f0       ?set_stack_limit@ResourceConstraints@v8@@QEAAXPEAI@Z 00000001800016f0 f i WebWorkerThreads.obj
 0001:00000700       ?max_available_threads@ResourceConstraints@v8@@QEBAHXZ 0000000180001700 f i WebWorkerThreads.obj
 0001:00000710       ?set_max_available_threads@ResourceConstraints@v8@@QEAAXH@Z 0000000180001710 f i WebWorkerThreads.obj
 0001:00000720       ?used_heap_size@HeapStatistics@v8@@QEAA_KXZ 0000000180001720 f i WebWorkerThreads.obj
 0001:00000720       ?physical_space_size@HeapSpaceStatistics@v8@@QEAA_KXZ 0000000180001720 f i WebWorkerThreads.obj
 0001:00000720       ?code_range_size@ResourceConstraints@v8@@QEBA_KXZ 0000000180001720 f i WebWorkerThreads.obj
 0001:00000730       ?set_code_range_size@ResourceConstraints@v8@@QEAAX_K@Z 0000000180001730 f i WebWorkerThreads.obj
 0001:00000740       ?total_available_size@HeapStatistics@v8@@QEAA_KXZ 0000000180001740 f i WebWorkerThreads.obj
 0001:00000740       ?space_available_size@HeapSpaceStatistics@v8@@QEAA_KXZ 0000000180001740 f i WebWorkerThreads.obj
 0001:00000740       ?object_size@HeapObjectStatistics@v8@@QEAA_KXZ 0000000180001740 f i WebWorkerThreads.obj
 0001:00000750       ?heap_size_limit@HeapStatistics@v8@@QEAA_KXZ 0000000180001750 f i WebWorkerThreads.obj
 0001:00000760       ??1PersistentHandleVisitor@v8@@UEAA@XZ 0000000180001760 f i WebWorkerThreads.obj
 0001:00000760       ??1ExternalResourceVisitor@v8@@UEAA@XZ 0000000180001760 f i WebWorkerThreads.obj
 0001:00000770       _guard_check_icall_nop     0000000180001770 f i LIBCMT:guard_support.obj
 0001:00000770       ?VisitPersistentHandle@PersistentHandleVisitor@v8@@UEAAXPEAV?$Persistent@VValue@v8@@V?$NonCopyablePersistentTraits@VValue@v8@@@2@@2@G@Z 0000000180001770 f i WebWorkerThreads.obj
 0001:00000770       __except_validate_context_record 0000000180001770 f i libvcruntime:jbcxrval.obj
 0001:00000770       ?VisitExternalString@ExternalResourceVisitor@v8@@UEAAXV?$Local@VString@v8@@@2@@Z 0000000180001770 f i WebWorkerThreads.obj
 0001:00000780       ??0Scope@Isolate@v8@@QEAA@PEAV12@@Z 0000000180001780 f i WebWorkerThreads.obj
 0001:000007a0       ??1Scope@Isolate@v8@@QEAA@XZ 00000001800017a0 f i WebWorkerThreads.obj
 0001:000007b0       ?JSStackComparableAddress@TryCatch@v8@@SAPEAXPEAV12@@Z 00000001800017b0 f i WebWorkerThreads.obj
 0001:000007c0       ??0ExtensionConfiguration@v8@@QEAA@XZ 00000001800017c0 f i WebWorkerThreads.obj
 0001:000007d0       ??0ExtensionConfiguration@v8@@QEAA@HQEAPEBD@Z 00000001800017d0 f i WebWorkerThreads.obj
 0001:000007e0       ?end@ExtensionConfiguration@v8@@QEBAPEAPEBDXZ 00000001800017e0 f i WebWorkerThreads.obj
 0001:000007f0       ??0Unlocker@v8@@QEAA@PEAVIsolate@1@@Z 00000001800017f0 f i WebWorkerThreads.obj
 0001:00000810       ??0Locker@v8@@QEAA@PEAVIsolate@1@@Z 0000000180001810 f i WebWorkerThreads.obj
 0001:00000830       ?New@Boolean@v8@@SA?AV?$Local@VBoolean@v8@@@2@PEAVIsolate@2@_N@Z 0000000180001830 f i WebWorkerThreads.obj
 0001:00000850       ?Set@Template@v8@@QEAAXPEAVIsolate@2@PEBDV?$Local@VData@v8@@@2@@Z 0000000180001850 f i WebWorkerThreads.obj
 0001:000008b0       ?GetInternalField@Object@v8@@QEAA?AV?$Local@VValue@v8@@@2@H@Z 00000001800018b0 f i WebWorkerThreads.obj
 0001:00000900       ?GetAlignedPointerFromInternalField@Object@v8@@QEAAPEAXH@Z 0000000180001900 f i WebWorkerThreads.obj
 0001:00000920       ?Empty@String@v8@@SA?AV?$Local@VString@v8@@@2@PEAVIsolate@2@@Z 0000000180001920 f i WebWorkerThreads.obj
 0001:00000930       ?GetExternalStringResource@String@v8@@QEBAPEAVExternalStringResource@12@XZ 0000000180001930 f i WebWorkerThreads.obj
 0001:00000950       ?GetExternalStringResourceBase@String@v8@@QEBAPEAVExternalStringResourceBase@12@PEAW4Encoding@12@@Z 0000000180001950 f i WebWorkerThreads.obj
 0001:00000980       ?IsUndefined@Value@v8@@QEBA_NXZ 0000000180001980 f i WebWorkerThreads.obj
 0001:000009b0       ?QuickIsUndefined@Value@v8@@AEBA_NXZ 00000001800019b0 f i WebWorkerThreads.obj
 0001:000009e0       ?IsNull@Value@v8@@QEBA_NXZ 00000001800019e0 f i WebWorkerThreads.obj
 0001:00000a10       ?QuickIsNull@Value@v8@@AEBA_NXZ 0000000180001a10 f i WebWorkerThreads.obj
 0001:00000a40       ?IsString@Value@v8@@QEBA_NXZ 0000000180001a40 f i WebWorkerThreads.obj
 0001:00000a70       ?QuickIsString@Value@v8@@AEBA_NXZ 0000000180001a70 f i WebWorkerThreads.obj
 0001:00000aa0       ?ToBoolean@Value@v8@@QEBA?AV?$Local@VBoolean@v8@@@2@XZ 0000000180001aa0 f i WebWorkerThreads.obj
 0001:00000af0       ?ToNumber@Value@v8@@QEBA?AV?$Local@VNumber@v8@@@2@XZ 0000000180001af0 f i WebWorkerThreads.obj
 0001:00000b40       ?ToString@Value@v8@@QEBA?AV?$Local@VString@v8@@@2@XZ 0000000180001b40 f i WebWorkerThreads.obj
 0001:00000b90       ?ToDetailString@Value@v8@@QEBA?AV?$Local@VString@v8@@@2@XZ 0000000180001b90 f i WebWorkerThreads.obj
 0001:00000be0       ?ToObject@Value@v8@@QEBA?AV?$Local@VObject@v8@@@2@XZ 0000000180001be0 f i WebWorkerThreads.obj
 0001:00000c30       ?ToInteger@Value@v8@@QEBA?AV?$Local@VInteger@v8@@@2@XZ 0000000180001c30 f i WebWorkerThreads.obj
 0001:00000c80       ?ToUint32@Value@v8@@QEBA?AV?$Local@VUint32@v8@@@2@XZ 0000000180001c80 f i WebWorkerThreads.obj
 0001:00000cd0       ?ToInt32@Value@v8@@QEBA?AV?$Local@VInt32@v8@@@2@XZ 0000000180001cd0 f i WebWorkerThreads.obj
 0001:00000d20       ?SetData@Isolate@v8@@QEAAXIPEAX@Z 0000000180001d20 f i WebWorkerThreads.obj
 0001:00000d30       ?GetData@Isolate@v8@@QEAAPEAXI@Z 0000000180001d30 f i WebWorkerThreads.obj
 0001:00000d40       ?GetNumberOfDataSlots@Isolate@v8@@SAIXZ 0000000180001d40 f i WebWorkerThreads.obj
 0001:00000d50       ?AdjustAmountOfExternalAllocatedMemory@Isolate@v8@@QEAA_J_J@Z 0000000180001d50 f i WebWorkerThreads.obj
 0001:00000db0       ?GetEmbedderData@Context@v8@@QEAA?AV?$Local@VValue@v8@@@2@H@Z 0000000180001db0 f i WebWorkerThreads.obj
 0001:00000de0       ?GetAlignedPointerFromEmbedderData@Context@v8@@QEAAPEAXH@Z 0000000180001de0 f i WebWorkerThreads.obj
 0001:00000e00       ?SetAllowCodeGenerationFromStringsCallback@V8@v8@@SAXP6A_NV?$Local@VContext@v8@@@2@@Z@Z 0000000180001e00 f i WebWorkerThreads.obj
 0001:00000e30       ?IsDead@V8@v8@@SA_NXZ      0000000180001e30 f i WebWorkerThreads.obj
 0001:00000e50       ?AddMessageListener@V8@v8@@SA_NP6AXV?$Local@VMessage@v8@@@2@V?$Local@VValue@v8@@@2@@Z1@Z 0000000180001e50 f i WebWorkerThreads.obj
 0001:00000e80       ?RemoveMessageListeners@V8@v8@@SAXP6AXV?$Local@VMessage@v8@@@2@V?$Local@VValue@v8@@@2@@Z@Z 0000000180001e80 f i WebWorkerThreads.obj
 0001:00000eb0       ?SetFailedAccessCheckCallbackFunction@V8@v8@@SAXP6AXV?$Local@VObject@v8@@@2@W4AccessType@2@V?$Local@VValue@v8@@@2@@Z@Z 0000000180001eb0 f i WebWorkerThreads.obj
 0001:00000ee0       ?SetCaptureStackTraceForUncaughtExceptions@V8@v8@@SAX_NHW4StackTraceOptions@StackTrace@2@@Z 0000000180001ee0 f i WebWorkerThreads.obj
 0001:00000f20       ?SetFatalErrorHandler@V8@v8@@SAXP6AXPEBD0@Z@Z 0000000180001f20 f i WebWorkerThreads.obj
 0001:00000f50       ?RemoveGCPrologueCallback@V8@v8@@SAXP6AXW4GCType@2@W4GCCallbackFlags@2@@Z@Z 0000000180001f50 f i WebWorkerThreads.obj
 0001:00000f80       ?RemoveGCEpilogueCallback@V8@v8@@SAXP6AXW4GCType@2@W4GCCallbackFlags@2@@Z@Z 0000000180001f80 f i WebWorkerThreads.obj
 0001:00000fb0       ?AddMemoryAllocationCallback@V8@v8@@SAXP6AXW4ObjectSpace@2@W4AllocationAction@2@H@Z01@Z 0000000180001fb0 f i WebWorkerThreads.obj
 0001:00000ff0       ?RemoveMemoryAllocationCallback@V8@v8@@SAXP6AXW4ObjectSpace@2@W4AllocationAction@2@H@Z@Z 0000000180001ff0 f i WebWorkerThreads.obj
 0001:00001020       ?TerminateExecution@V8@v8@@SAXPEAVIsolate@2@@Z 0000000180002020 f i WebWorkerThreads.obj
 0001:00001030       ?IsExecutionTerminating@V8@v8@@SA_NPEAVIsolate@2@@Z 0000000180002030 f i WebWorkerThreads.obj
 0001:00001050       ?CancelTerminateExecution@V8@v8@@SAXPEAVIsolate@2@@Z 0000000180002050 f i WebWorkerThreads.obj
 0001:00001060       ?VisitExternalResources@V8@v8@@SAXPEAVExternalResourceVisitor@2@@Z 0000000180002060 f i WebWorkerThreads.obj
 0001:00001090       ?VisitHandlesWithClassIds@V8@v8@@SAXPEAVPersistentHandleVisitor@2@@Z 0000000180002090 f i WebWorkerThreads.obj
 0001:000010c0       ?VisitHandlesWithClassIds@V8@v8@@SAXPEAVIsolate@2@PEAVPersistentHandleVisitor@2@@Z 00000001800020c0 f i WebWorkerThreads.obj
 0001:000010d0       ?VisitHandlesForPartialDependence@V8@v8@@SAXPEAVIsolate@2@PEAVPersistentHandleVisitor@2@@Z 00000001800020d0 f i WebWorkerThreads.obj
 0001:000010e0       ??_EExternalStringResource@String@v8@@UEAAPEAXI@Z 00000001800020e0 f i WebWorkerThreads.obj
 0001:000010e0       ??_EExternalOneByteStringResource@String@v8@@UEAAPEAXI@Z 00000001800020e0 f i WebWorkerThreads.obj
 0001:000010e0       ??_EExternalStringResourceBase@String@v8@@UEAAPEAXI@Z 00000001800020e0 f i WebWorkerThreads.obj
 0001:00001170       ??0Allocator@ArrayBuffer@v8@@QEAA@XZ 0000000180002170 f i WebWorkerThreads.obj
 0001:00001170       ??0Allocator@ArrayBuffer@v8@@QEAA@AEBV012@@Z 0000000180002170 f i WebWorkerThreads.obj
 0001:00001180       ??_EAllocator@ArrayBuffer@v8@@UEAAPEAXI@Z 0000000180002180 f i WebWorkerThreads.obj
 0001:00001210       ??4StartupData@v8@@QEAAAEAV01@AEBV01@@Z 0000000180002210 f i WebWorkerThreads.obj
 0001:00001210       ??4Contents@SharedArrayBuffer@v8@@QEAAAEAV012@AEBV012@@Z 0000000180002210 f i WebWorkerThreads.obj
 0001:00001210       ??4Contents@ArrayBuffer@v8@@QEAAAEAV012@AEBV012@@Z 0000000180002210 f i WebWorkerThreads.obj
 0001:00001220       ??4Contents@SharedArrayBuffer@v8@@QEAAAEAV012@$$QEAV012@@Z 0000000180002220 f i WebWorkerThreads.obj
 0001:00001220       ??4Contents@ArrayBuffer@v8@@QEAAAEAV012@$$QEAV012@@Z 0000000180002220 f i WebWorkerThreads.obj
 0001:00001240       ??_EExternalOneByteStringResourceImpl@v8@@UEAAPEAXI@Z 0000000180002240 f i WebWorkerThreads.obj
 0001:000012d0       ??_EExtension@v8@@UEAAPEAXI@Z 00000001800022d0 f i WebWorkerThreads.obj
 0001:00001380       ??4HeapSpaceStatistics@v8@@QEAAAEAV01@AEBV01@@Z 0000000180002380 f i WebWorkerThreads.obj
 0001:00001380       ??4ResourceConstraints@v8@@QEAAAEAV01@AEBV01@@Z 0000000180002380 f i WebWorkerThreads.obj
 0001:000013a0       ??4ResourceConstraints@v8@@QEAAAEAV01@$$QEAV01@@Z 00000001800023a0 f i WebWorkerThreads.obj
 0001:000013d0       ??4HeapStatistics@v8@@QEAAAEAV01@AEBV01@@Z 00000001800023d0 f i WebWorkerThreads.obj
 0001:000013f0       ??4HeapStatistics@v8@@QEAAAEAV01@$$QEAV01@@Z 00000001800023f0 f i WebWorkerThreads.obj
 0001:00001430       ??4HeapSpaceStatistics@v8@@QEAAAEAV01@$$QEAV01@@Z 0000000180002430 f i WebWorkerThreads.obj
 0001:00001460       ??4HeapObjectStatistics@v8@@QEAAAEAV01@AEBV01@@Z 0000000180002460 f i WebWorkerThreads.obj
 0001:00001480       ??4HeapObjectStatistics@v8@@QEAAAEAV01@$$QEAV01@@Z 0000000180002480 f i WebWorkerThreads.obj
 0001:000014b0       ??0ExternalResourceVisitor@v8@@QEAA@XZ 00000001800024b0 f i WebWorkerThreads.obj
 0001:000014b0       ??0PersistentHandleVisitor@v8@@QEAA@AEBV01@@Z 00000001800024b0 f i WebWorkerThreads.obj
 0001:000014b0       ??0PersistentHandleVisitor@v8@@QEAA@XZ 00000001800024b0 f i WebWorkerThreads.obj
 0001:000014b0       ??0ExternalResourceVisitor@v8@@QEAA@AEBV01@@Z 00000001800024b0 f i WebWorkerThreads.obj
 0001:000014c0       ??_EPersistentHandleVisitor@v8@@UEAAPEAXI@Z 00000001800024c0 f i WebWorkerThreads.obj
 0001:000014c0       ??_EExternalResourceVisitor@v8@@UEAAPEAXI@Z 00000001800024c0 f i WebWorkerThreads.obj
 0001:00001550       ??4StartupData@v8@@QEAAAEAV01@$$QEAV01@@Z 0000000180002550 f i WebWorkerThreads.obj
 0001:00001560       ??4Unlocker@v8@@QEAAAEAV01@AEBV01@@Z 0000000180002560 f i WebWorkerThreads.obj
 0001:00001570       ?Ref@ObjectWrap@node@@MEAAXXZ 0000000180002570 f i WebWorkerThreads.obj
 0001:000015b0       ?Unref@ObjectWrap@node@@MEAAXXZ 00000001800025b0 f i WebWorkerThreads.obj
 0001:00001660       ?WeakCallback@ObjectWrap@node@@CAXAEBV?$WeakCallbackData@VObject@v8@@VObjectWrap@node@@@v8@@@Z 0000000180002660 f i WebWorkerThreads.obj
 0001:00001770       ??_GObjectWrap@node@@UEAAPEAXI@Z 0000000180002770 f i WebWorkerThreads.obj
 0001:00001770       ??_EObjectWrap@node@@UEAAPEAXI@Z 0000000180002770 f i * CIL library *:* CIL module *
 0001:000018b0       ?New@?$Factory@VFunctionTemplate@v8@@@imp@Nan@@SA?AV?$Local@VFunctionTemplate@v8@@@v8@@P6AXAEBV?$FunctionCallbackInfo@VValue@v8@@@3@@ZV?$Local@VValue@v8@@@5@V?$Local@VSignature@v8@@@5@@Z 00000001800028b0 f i WebWorkerThreads.obj
 0001:00001bc0       ??_GBSON@@UEAAPEAXI@Z      0000000180002bc0 f i WebWorkerThreads.obj
 0001:00001bc0       ??_EBSON@@UEAAPEAXI@Z      0000000180002bc0 f i * CIL library *:* CIL module *
 0001:00001c50       ?WriteObjectId@DataStream@@QEAAXAEBV?$Local@VObject@v8@@@v8@@AEBV?$Local@VString@v8@@@3@@Z 0000000180002c50 f   WebWorkerThreads.obj
 0001:00001d70       ?ThrowAllocatedStringException@@YAX_KPEBDZZ 0000000180002d70 f   WebWorkerThreads.obj
 0001:00001de0       ?CheckKey@DataStream@@QEAAXAEBV?$Local@VString@v8@@@v8@@@Z 0000000180002de0 f   WebWorkerThreads.obj
 0001:00001ef0       ?ReadCString@BSONDeserializer@@QEAA?AV?$Local@VValue@v8@@@v8@@XZ 0000000180002ef0 f   WebWorkerThreads.obj
 0001:00001f90       ?ReadObjectId@BSONDeserializer@@QEAA?AV?$Local@VString@v8@@@v8@@XZ 0000000180002f90 f   WebWorkerThreads.obj
 0001:00002070       ?DeserializeDocument@BSONDeserializer@@QEAA?AV?$Local@VValue@v8@@@v8@@_N@Z 0000000180003070 f   WebWorkerThreads.obj
 0001:00002110       ?DeserializeDocumentInternal@BSONDeserializer@@AEAA?AV?$Local@VValue@v8@@@v8@@_N@Z 0000000180003110 f   WebWorkerThreads.obj
 0001:000023c0       ?DeserializeArray@BSONDeserializer@@AEAA?AV?$Local@VValue@v8@@@v8@@_N@Z 00000001800033c0 f   WebWorkerThreads.obj
 0001:00002460       ?DeserializeArrayInternal@BSONDeserializer@@AEAA?AV?$Local@VValue@v8@@@v8@@_N@Z 0000000180003460 f   WebWorkerThreads.obj
 0001:00002560       ?DeserializeValue@BSONDeserializer@@AEAA?AV?$Local@VValue@v8@@@v8@@W4BsonType@@_N@Z 0000000180003560 f   WebWorkerThreads.obj
 0001:00002e00       ??0BSON@@QEAA@XZ           0000000180003e00 f   WebWorkerThreads.obj
 0001:00003b90       ?GetSerializeObject@BSON@@QEAA?AV?$Local@VObject@v8@@@v8@@AEBV?$Local@VValue@v8@@@3@@Z 0000000180004b90 f   WebWorkerThreads.obj
 0001:00003ef0       ?readFileSync_@@YAXAEBV?$FunctionCallbackInfo@VValue@v8@@@Nan@@@Z 0000000180004ef0 f   WebWorkerThreads.obj
 0001:00004540       ?console_log@@YAXAEBV?$FunctionCallbackInfo@VValue@v8@@@Nan@@@Z 0000000180005540 f   WebWorkerThreads.obj
 0001:00004640       ?console_error@@YAXAEBV?$FunctionCallbackInfo@VValue@v8@@@Nan@@@Z 0000000180005640 f   WebWorkerThreads.obj
 0001:00004740       ?Allocate@ArrayBufferAllocator@@UEAAPEAX_K@Z 0000000180005740 f i WebWorkerThreads.obj
 0001:00004790       ?AllocateUninitialized@ArrayBufferAllocator@@UEAAPEAX_K@Z 0000000180005790 f i WebWorkerThreads.obj
 0001:000047a0       ?Free@ArrayBufferAllocator@@UEAAXPEAX_K@Z 00000001800057a0 f i WebWorkerThreads.obj
 0001:000048f0       ?Puts@@YAXAEBV?$FunctionCallbackInfo@VValue@v8@@@Nan@@@Z 00000001800058f0 f   WebWorkerThreads.obj
 0001:000049c0       ?Print@@YAXAEBV?$FunctionCallbackInfo@VValue@v8@@@Nan@@@Z 00000001800059c0 f   WebWorkerThreads.obj
 0001:00004b90       ??_EArrayBufferAllocator@@UEAAPEAXI@Z 0000000180005b90 f i * CIL library *:* CIL module *
 0001:00004b90       ??_GArrayBufferAllocator@@UEAAPEAXI@Z 0000000180005b90 f i WebWorkerThreads.obj
 0001:000067e0       ?Destroy@@YAXAEBV?$FunctionCallbackInfo@VValue@v8@@@Nan@@@Z 00000001800077e0 f   WebWorkerThreads.obj
 0001:00006930       ?Eval@@YAXAEBV?$FunctionCallbackInfo@VValue@v8@@@Nan@@@Z 0000000180007930 f   WebWorkerThreads.obj
 0001:00006cf0       ?Load@@YAXAEBV?$FunctionCallbackInfo@VValue@v8@@@Nan@@@Z 0000000180007cf0 f   WebWorkerThreads.obj
 0001:00006ff0       ?processEmit@@YAXAEBV?$FunctionCallbackInfo@VValue@v8@@@Nan@@@Z 0000000180007ff0 f   WebWorkerThreads.obj
 0001:00007230       ?processEmitSerialized@@YAXAEBV?$FunctionCallbackInfo@VValue@v8@@@Nan@@@Z 0000000180008230 f   WebWorkerThreads.obj
 0001:00007520       ?postMessage@@YAXAEBV?$FunctionCallbackInfo@VValue@v8@@@Nan@@@Z 0000000180008520 f   WebWorkerThreads.obj
 0001:00007880       ?postError@@YAXAEBV?$FunctionCallbackInfo@VValue@v8@@@Nan@@@Z 0000000180008880 f   WebWorkerThreads.obj
 0001:00007be0       ?threadEmit@@YAXAEBV?$FunctionCallbackInfo@VValue@v8@@@Nan@@@Z 0000000180008be0 f   WebWorkerThreads.obj
 0001:00007da0       ?Create@@YAXAEBV?$FunctionCallbackInfo@VValue@v8@@@Nan@@@Z 0000000180008da0 f   WebWorkerThreads.obj
 0001:00008200       ?Init@@YAXV?$Local@VObject@v8@@@v8@@V?$Local@VValue@v8@@@2@PEAX@Z 0000000180009200 f   WebWorkerThreads.obj
 0001:00008920       ??$New@VInt32@v8@@H@Nan@@YA?AV?$Local@VInt32@v8@@@v8@@H@Z 0000000180009920 f i WebWorkerThreads.obj
 0001:000089a0       ??$New@VUint32@v8@@I@Nan@@YA?AV?$Local@VUint32@v8@@@v8@@I@Z 00000001800099a0 f i WebWorkerThreads.obj
 0001:00008a20       ??$New@VInteger@v8@@H@Nan@@YA?AV?$Local@VInteger@v8@@@v8@@H@Z 0000000180009a20 f i WebWorkerThreads.obj
 0001:00008aa0       ?SerializeDocument@?$BSONSerializer@VCountStream@@@@QEAAXAEBV?$Local@VValue@v8@@@v8@@@Z 0000000180009aa0 f i WebWorkerThreads.obj
 0001:00008ba0       ?SerializeDocument@?$BSONSerializer@VDataStream@@@@QEAAXAEBV?$Local@VValue@v8@@@v8@@@Z 0000000180009ba0 f i WebWorkerThreads.obj
 0001:00008d20       ?SerializeValue@?$BSONSerializer@VCountStream@@@@QEAAXPEAXAEBV?$Local@VValue@v8@@@v8@@@Z 0000000180009d20 f i WebWorkerThreads.obj
 0001:00009950       ?SerializeValue@?$BSONSerializer@VDataStream@@@@QEAAXPEAXAEBV?$Local@VValue@v8@@@v8@@@Z 000000018000a950 f i WebWorkerThreads.obj
 0001:0000a7c0       ?SerializeArray@?$BSONSerializer@VCountStream@@@@QEAAXAEBV?$Local@VValue@v8@@@v8@@@Z 000000018000b7c0 f i WebWorkerThreads.obj
 0001:0000a890       ?SerializeArray@?$BSONSerializer@VDataStream@@@@QEAAXAEBV?$Local@VValue@v8@@@v8@@@Z 000000018000b890 f i WebWorkerThreads.obj
 0001:0000a9ac       __imp_load_uv_cond_signal  000000018000b9ac f   node:node.exe
 0001:0000a9b8       __tailMerge_node_exe       000000018000b9b8 f i node:node.exe
 0001:0000aa31       __imp_load_uv_unref        000000018000ba31 f   node:node.exe
 0001:0000aa3d       __imp_load_uv_mutex_unlock 000000018000ba3d f   node:node.exe
 0001:0000aa49       __imp_load_?Enter@Context@v8@@QEAAXXZ 000000018000ba49 f   node:node.exe
 0001:0000aa55       __imp_load_?New@Context@v8@@SA?AV?$Local@VContext@v8@@@2@PEAVIsolate@2@PEAVExtensionConfiguration@2@V?$Local@VObjectTemplate@v8@@@2@V?$Local@VValue@v8@@@2@@Z 000000018000ba55 f   node:node.exe
 0001:0000aa61       __imp_load_?Global@Context@v8@@QEAA?AV?$Local@VObject@v8@@@2@XZ 000000018000ba61 f   node:node.exe
 0001:0000aa6d       __imp_load_?Value@External@v8@@QEBAPEAXXZ 000000018000ba6d f   node:node.exe
 0001:0000aa79       __imp_load_?New@External@v8@@SA?AV?$Local@VExternal@v8@@@2@PEAVIsolate@2@PEAX@Z 000000018000ba79 f   node:node.exe
 0001:0000aa85       __imp_load_?NewFromUnsigned@Integer@v8@@SA?AV?$Local@VInteger@v8@@@2@PEAVIsolate@2@I@Z 000000018000ba85 f   node:node.exe
 0001:0000aa91       __imp_load_?New@Integer@v8@@SA?AV?$Local@VInteger@v8@@@2@PEAVIsolate@2@H@Z 000000018000ba91 f   node:node.exe
 0001:0000aa9d       __imp_load_?CollectAllGarbage@Isolate@v8@@AEAAXPEBD@Z 000000018000ba9d f   node:node.exe
 0001:0000aaa9       __imp_load_?VisitHandlesForPartialDependence@Isolate@v8@@QEAAXPEAVPersistentHandleVisitor@2@@Z 000000018000baa9 f   node:node.exe
 0001:0000aab5       __imp_load_?VisitHandlesWithClassIds@Isolate@v8@@QEAAXPEAVPersistentHandleVisitor@2@@Z 000000018000bab5 f   node:node.exe
 0001:0000aac1       __imp_load_?VisitExternalResources@Isolate@v8@@QEAAXPEAVExternalResourceVisitor@2@@Z 000000018000bac1 f   node:node.exe
 0001:0000aacd       __imp_load_?RemoveMemoryAllocationCallback@Isolate@v8@@QEAAXP6AXW4ObjectSpace@2@W4AllocationAction@2@H@Z@Z 000000018000bacd f   node:node.exe
 0001:0000aad9       __imp_load_?AddMemoryAllocationCallback@Isolate@v8@@QEAAXP6AXW4ObjectSpace@2@W4AllocationAction@2@H@Z01@Z 000000018000bad9 f   node:node.exe
 0001:0000aae5       __imp_load_?SetCaptureStackTraceForUncaughtExceptions@Isolate@v8@@QEAAX_NHW4StackTraceOptions@StackTrace@2@@Z 000000018000bae5 f   node:node.exe
 0001:0000aaf1       __imp_load_?SetFailedAccessCheckCallbackFunction@Isolate@v8@@QEAAXP6AXV?$Local@VObject@v8@@@2@W4AccessType@2@V?$Local@VValue@v8@@@2@@Z@Z 000000018000baf1 f   node:node.exe
 0001:0000aafd       __imp_load_?RemoveMessageListeners@Isolate@v8@@QEAAXP6AXV?$Local@VMessage@v8@@@2@V?$Local@VValue@v8@@@2@@Z@Z 000000018000bafd f   node:node.exe
 0001:0000ab09       __imp_load_?AddMessageListener@Isolate@v8@@QEAA_NP6AXV?$Local@VMessage@v8@@@2@V?$Local@VValue@v8@@@2@@Z1@Z 000000018000bb09 f   node:node.exe
 0001:0000ab15       __imp_load_?IsDead@Isolate@v8@@QEAA_NXZ 000000018000bb15 f   node:node.exe
 0001:0000ab21       __imp_load_?SetAllowCodeGenerationFromStringsCallback@Isolate@v8@@QEAAXP6A_NV?$Local@VContext@v8@@@2@@Z@Z 000000018000bb21 f   node:node.exe
 0001:0000ab2d       __imp_load_?SetFatalErrorHandler@Isolate@v8@@QEAAXP6AXPEBD0@Z@Z 000000018000bb2d f   node:node.exe
 0001:0000ab39       __imp_load_?IdleNotificationDeadline@Isolate@v8@@QEAA_NN@Z 000000018000bb39 f   node:node.exe
 0001:0000ab45       __imp_load_?CancelTerminateExecution@Isolate@v8@@QEAAXXZ 000000018000bb45 f   node:node.exe
 0001:0000ab51       __imp_load_?IsExecutionTerminating@Isolate@v8@@QEAA_NXZ 000000018000bb51 f   node:node.exe
 0001:0000ab5d       __imp_load_?TerminateExecution@Isolate@v8@@QEAAXXZ 000000018000bb5d f   node:node.exe
 0001:0000ab69       __imp_load_?RemoveGCEpilogueCallback@Isolate@v8@@QEAAXP6AXPEAV12@W4GCType@2@W4GCCallbackFlags@2@@Z@Z 000000018000bb69 f   node:node.exe
 0001:0000ab75       __imp_load_?RemoveGCPrologueCallback@Isolate@v8@@QEAAXP6AXPEAV12@W4GCType@2@W4GCCallbackFlags@2@@Z@Z 000000018000bb75 f   node:node.exe
 0001:0000ab81       __imp_load_?ThrowException@Isolate@v8@@QEAA?AV?$Local@VValue@v8@@@2@V32@@Z 000000018000bb81 f   node:node.exe
 0001:0000ab8d       __imp_load_?GetCurrentContext@Isolate@v8@@QEAA?AV?$Local@VContext@v8@@@2@XZ 000000018000bb8d f   node:node.exe
 0001:0000ab99       __imp_load_?Dispose@Isolate@v8@@QEAAXXZ 000000018000bb99 f   node:node.exe
 0001:0000aba5       __imp_load_?Exit@Isolate@v8@@QEAAXXZ 000000018000bba5 f   node:node.exe
 0001:0000abb1       __imp_load_?Enter@Isolate@v8@@QEAAXXZ 000000018000bbb1 f   node:node.exe
 0001:0000abbd       __imp_load_?GetCurrent@Isolate@v8@@SAPEAV12@XZ 000000018000bbbd f   node:node.exe
 0001:0000abc9       __imp_load_?New@Isolate@v8@@SAPEAV12@AEBUCreateParams@12@@Z 000000018000bbc9 f   node:node.exe
 0001:0000abd5       __imp_load_?ResetToBookmark@ExternalSourceStream@ScriptCompiler@v8@@UEAAXXZ 000000018000bbd5 f   node:node.exe
 0001:0000abe1       ?ResetToBookmark@ExternalSourceStream@ScriptCompiler@v8@@UEAAXXZ 000000018000bbe1 f   node:node.exe
 0001:0000abe7       __imp_load_?SetBookmark@ExternalSourceStream@ScriptCompiler@v8@@UEAA_NXZ 000000018000bbe7 f   node:node.exe
 0001:0000abf3       ?SetBookmark@ExternalSourceStream@ScriptCompiler@v8@@UEAA_NXZ 000000018000bbf3 f   node:node.exe
 0001:0000abf9       __imp_load_??1CachedData@ScriptCompiler@v8@@QEAA@XZ 000000018000bbf9 f   node:node.exe
 0001:0000ac05       __imp_load_?Compile@ScriptCompiler@v8@@SA?AV?$MaybeLocal@VScript@v8@@@2@V?$Local@VContext@v8@@@2@PEAVSource@12@W4CompileOptions@12@@Z 000000018000bc05 f   node:node.exe
 0001:0000ac11       __imp_load_?GetFlags@RegExp@v8@@QEBA?AW4Flags@12@XZ 000000018000bc11 f   node:node.exe
 0001:0000ac1d       __imp_load_?GetSource@RegExp@v8@@QEBA?AV?$Local@VString@v8@@@2@XZ 000000018000bc1d f   node:node.exe
 0001:0000ac29       __imp_load_?New@RegExp@v8@@SA?AV?$Local@VRegExp@v8@@@2@V?$Local@VString@v8@@@2@W4Flags@12@@Z 000000018000bc29 f   node:node.exe
 0001:0000ac35       __imp_load_?CreateHandle@HandleScope@v8@@KAPEAPEAVObject@internal@2@PEAVIsolate@42@PEAV342@@Z 000000018000bc35 f   node:node.exe
 0001:0000ac41       __imp_load_?CreateHandle@HandleScope@v8@@CAPEAPEAVObject@internal@2@PEAVHeapObject@42@PEAV342@@Z 000000018000bc41 f   node:node.exe
 0001:0000ac4d       __imp_load_??1HandleScope@v8@@QEAA@XZ 000000018000bc4d f   node:node.exe
 0001:0000ac59       __imp_load_??0HandleScope@v8@@QEAA@PEAVIsolate@1@@Z 000000018000bc59 f   node:node.exe
 0001:0000ac65       __imp_load_?Set@Template@v8@@QEAAXV?$Local@VName@v8@@@2@V?$Local@VData@v8@@@2@W4PropertyAttribute@2@@Z 000000018000bc65 f   node:node.exe
 0001:0000ac71       __imp_load_?Error@Exception@v8@@SA?AV?$Local@VValue@v8@@@2@V?$Local@VString@v8@@@2@@Z 000000018000bc71 f   node:node.exe
 0001:0000ac7d       __imp_load_?TypeError@Exception@v8@@SA?AV?$Local@VValue@v8@@@2@V?$Local@VString@v8@@@2@@Z 000000018000bc7d f   node:node.exe
 0001:0000ac89       __imp_load_?Initialize@Locker@v8@@AEAAXPEAVIsolate@2@@Z 000000018000bc89 f   node:node.exe
 0001:0000ac95       __imp_load_?IsActive@Locker@v8@@SA_NXZ 000000018000bc95 f   node:node.exe
 0001:0000aca1       __imp_load_??1Locker@v8@@QEAA@XZ 000000018000bca1 f   node:node.exe
 0001:0000acad       __imp_load_?New@Array@v8@@SA?AV?$Local@VArray@v8@@@2@PEAVIsolate@2@H@Z 000000018000bcad f   node:node.exe
 0001:0000acb9       __imp_load_?Length@Array@v8@@QEBAIXZ 000000018000bcb9 f   node:node.exe
 0001:0000acc5       __imp_load_?GetId@UnboundScript@v8@@QEAAHXZ 000000018000bcc5 f   node:node.exe
 0001:0000acd1       __imp_load_?Initialize@Unlocker@v8@@AEAAXPEAVIsolate@2@@Z 000000018000bcd1 f   node:node.exe
 0001:0000acdd       __imp_load_?New@Date@v8@@SA?AV?$MaybeLocal@VValue@v8@@@2@V?$Local@VContext@v8@@@2@N@Z 000000018000bcdd f   node:node.exe
 0001:0000ace9       __imp_load_?InstanceTemplate@FunctionTemplate@v8@@QEAA?AV?$Local@VObjectTemplate@v8@@@2@XZ 000000018000bce9 f   node:node.exe
 0001:0000acf5       __imp_load_?GetFunction@FunctionTemplate@v8@@QEAA?AV?$Local@VFunction@v8@@@2@XZ 000000018000bcf5 f   node:node.exe
 0001:0000ad01       __imp_load_?New@FunctionTemplate@v8@@SA?AV?$Local@VFunctionTemplate@v8@@@2@PEAVIsolate@2@P6AXAEBV?$FunctionCallbackInfo@VValue@v8@@@2@@ZV?$Local@VValue@v8@@@2@V?$Local@VSignature@v8@@@2@H@Z 000000018000bd01 f   node:node.exe
 0001:0000ad0d       __imp_load_?ToLocalEmpty@V8@v8@@CAXXZ 000000018000bd0d f   node:node.exe
 0001:0000ad19       __imp_load_?ClearWeak@V8@v8@@CAPEAXPEAPEAVObject@internal@2@@Z 000000018000bd19 f   node:node.exe
 0001:0000ad25       __imp_load_?MakeWeak@V8@v8@@CAXPEAPEAVObject@internal@2@PEAXP6AXAEBV?$WeakCallbackData@VValue@v8@@X@2@@Z@Z 000000018000bd25 f   node:node.exe
 0001:0000ad31       __imp_load_?DisposeGlobal@V8@v8@@CAXPEAPEAVObject@internal@2@@Z 000000018000bd31 f   node:node.exe
 0001:0000ad3d       __imp_load_?GlobalizeReference@V8@v8@@CAPEAPEAVObject@internal@2@PEAVIsolate@42@PEAPEAV342@@Z 000000018000bd3d f   node:node.exe
 0001:0000ad49       __imp_load_?StrictEquals@Value@v8@@QEBA_NV?$Local@VValue@v8@@@2@@Z 000000018000bd49 f   node:node.exe
 0001:0000ad55       __imp_load_?Int32Value@Value@v8@@QEBAHXZ 000000018000bd55 f   node:node.exe
 0001:0000ad61       __imp_load_?Uint32Value@Value@v8@@QEBAIXZ 000000018000bd61 f   node:node.exe
 0001:0000ad6d       __imp_load_?IntegerValue@Value@v8@@QEBA_JXZ 000000018000bd6d f   node:node.exe
 0001:0000ad79       __imp_load_?NumberValue@Value@v8@@QEBANXZ 000000018000bd79 f   node:node.exe
 0001:0000ad85       __imp_load_?BooleanValue@Value@v8@@QEBA_NXZ 000000018000bd85 f   node:node.exe
 0001:0000ad91       __imp_load_?ToInt32@Value@v8@@QEBA?AV?$MaybeLocal@VInt32@v8@@@2@V?$Local@VContext@v8@@@2@@Z 000000018000bd91 f   node:node.exe
 0001:0000ad9d       __imp_load_?ToUint32@Value@v8@@QEBA?AV?$MaybeLocal@VUint32@v8@@@2@V?$Local@VContext@v8@@@2@@Z 000000018000bd9d f   node:node.exe
 0001:0000ada9       __imp_load_?ToInteger@Value@v8@@QEBA?AV?$MaybeLocal@VInteger@v8@@@2@V?$Local@VContext@v8@@@2@@Z 000000018000bda9 f   node:node.exe
 0001:0000adb5       __imp_load_?ToObject@Value@v8@@QEBA?AV?$MaybeLocal@VObject@v8@@@2@V?$Local@VContext@v8@@@2@@Z 000000018000bdb5 f   node:node.exe
 0001:0000adc1       __imp_load_?ToDetailString@Value@v8@@QEBA?AV?$MaybeLocal@VString@v8@@@2@V?$Local@VContext@v8@@@2@@Z 000000018000bdc1 f   node:node.exe
 0001:0000adcd       __imp_load_?ToString@Value@v8@@QEBA?AV?$MaybeLocal@VString@v8@@@2@V?$Local@VContext@v8@@@2@@Z 000000018000bdcd f   node:node.exe
 0001:0000add9       __imp_load_?ToNumber@Value@v8@@QEBA?AV?$MaybeLocal@VNumber@v8@@@2@V?$Local@VContext@v8@@@2@@Z 000000018000bdd9 f   node:node.exe
 0001:0000ade5       __imp_load_?ToBoolean@Value@v8@@QEBA?AV?$MaybeLocal@VBoolean@v8@@@2@V?$Local@VContext@v8@@@2@@Z 000000018000bde5 f   node:node.exe
 0001:0000adf1       __imp_load_?IsRegExp@Value@v8@@QEBA_NXZ 000000018000bdf1 f   node:node.exe
 0001:0000adfd       __imp_load_?IsDate@Value@v8@@QEBA_NXZ 000000018000bdfd f   node:node.exe
 0001:0000ae09       __imp_load_?IsNumber@Value@v8@@QEBA_NXZ 000000018000be09 f   node:node.exe
 0001:0000ae15       __imp_load_?IsBoolean@Value@v8@@QEBA_NXZ 000000018000be15 f   node:node.exe
 0001:0000ae21       __imp_load_?IsObject@Value@v8@@QEBA_NXZ 000000018000be21 f   node:node.exe
 0001:0000ae2d       __imp_load_?IsArray@Value@v8@@QEBA_NXZ 000000018000be2d f   node:node.exe
 0001:0000ae39       __imp_load_?IsFunction@Value@v8@@QEBA_NXZ 000000018000be39 f   node:node.exe
 0001:0000ae45       __imp_load_?GetEndColumn@Message@v8@@QEBAHXZ 000000018000be45 f   node:node.exe
 0001:0000ae51       __imp_load_?GetStartColumn@Message@v8@@QEBAHXZ 000000018000be51 f   node:node.exe
 0001:0000ae5d       __imp_load_?GetLineNumber@Message@v8@@QEBAHXZ 000000018000be5d f   node:node.exe
 0001:0000ae69       __imp_load_?GetScriptResourceName@Message@v8@@QEBA?AV?$Local@VValue@v8@@@2@XZ 000000018000be69 f   node:node.exe
 0001:0000ae75       __imp_load_?GetSourceLine@Message@v8@@QEBA?AV?$Local@VString@v8@@@2@XZ 000000018000be75 f   node:node.exe
 0001:0000ae81       __imp_load_?Reset@TryCatch@v8@@QEAAXXZ 000000018000be81 f   node:node.exe
 0001:0000ae8d       __imp_load_?Message@TryCatch@v8@@QEBA?AV?$Local@VMessage@v8@@@2@XZ 000000018000be8d f   node:node.exe
 0001:0000ae99       __imp_load_?StackTrace@TryCatch@v8@@QEBA?AV?$Local@VValue@v8@@@2@XZ 000000018000be99 f   node:node.exe
 0001:0000aea5       __imp_load_?Exception@TryCatch@v8@@QEBA?AV?$Local@VValue@v8@@@2@XZ 000000018000bea5 f   node:node.exe
 0001:0000aeb1       __imp_load_?HasCaught@TryCatch@v8@@QEBA_NXZ 000000018000beb1 f   node:node.exe
 0001:0000aebd       __imp_load_??1TryCatch@v8@@QEAA@XZ 000000018000bebd f   node:node.exe
 0001:0000aec9       __imp_load_??0TryCatch@v8@@QEAA@XZ 000000018000bec9 f   node:node.exe
 0001:0000aed5       __imp_load_?Escape@EscapableHandleScope@v8@@AEAAPEAPEAVObject@internal@2@PEAPEAV342@@Z 000000018000bed5 f   node:node.exe
 0001:0000aee1       __imp_load_??0EscapableHandleScope@v8@@QEAA@PEAVIsolate@1@@Z 000000018000bee1 f   node:node.exe
 0001:0000aeed       __imp_load_?GetUnboundScript@Script@v8@@QEAA?AV?$Local@VUnboundScript@v8@@@2@XZ 000000018000beed f   node:node.exe
 0001:0000aef9       __imp_load_?Run@Script@v8@@QEAA?AV?$Local@VValue@v8@@@2@XZ 000000018000bef9 f   node:node.exe
 0001:0000af05       __imp_load_?Run@Script@v8@@QEAA?AV?$MaybeLocal@VValue@v8@@@2@V?$Local@VContext@v8@@@2@@Z 000000018000bf05 f   node:node.exe
 0001:0000af11       __imp_load_?Compile@Script@v8@@SA?AV?$Local@VScript@v8@@@2@V?$Local@VString@v8@@@2@PEAVScriptOrigin@2@@Z 000000018000bf11 f   node:node.exe
 0001:0000af1d       __imp_load_??1Utf8Value@String@v8@@QEAA@XZ 000000018000bf1d f   node:node.exe
 0001:0000af29       __imp_load_??0Utf8Value@String@v8@@QEAA@V?$Local@VValue@v8@@@2@@Z 000000018000bf29 f   node:node.exe
 0001:0000af35       __imp_load_?NewFromTwoByte@String@v8@@SA?AV?$MaybeLocal@VString@v8@@@2@PEAVIsolate@2@PEBGW4NewStringType@2@H@Z 000000018000bf35 f   node:node.exe
 0001:0000af41       __imp_load_?NewFromUtf8@String@v8@@SA?AV?$MaybeLocal@VString@v8@@@2@PEAVIsolate@2@PEBDW4NewStringType@2@H@Z 000000018000bf41 f   node:node.exe
 0001:0000af4d       __imp_load_?WriteUtf8@String@v8@@QEBAHPEADHPEAHH@Z 000000018000bf4d f   node:node.exe
 0001:0000af59       __imp_load_?Write@String@v8@@QEBAHPEAGHHH@Z 000000018000bf59 f   node:node.exe
 0001:0000af65       __imp_load_?Utf8Length@String@v8@@QEBAHXZ 000000018000bf65 f   node:node.exe
 0001:0000af71       __imp_load_??0ResourceConstraints@v8@@QEAA@XZ 000000018000bf71 f   node:node.exe
 0001:0000af7d       __imp_load_?New@Number@v8@@SA?AV?$Local@VNumber@v8@@@2@PEAVIsolate@2@N@Z 000000018000bf7d f   node:node.exe
 0001:0000af89       __imp_load_?SlowGetAlignedPointerFromInternalField@Object@v8@@AEAAPEAXH@Z 000000018000bf89 f   node:node.exe
 0001:0000af95       __imp_load_?SlowGetInternalField@Object@v8@@AEAA?AV?$Local@VValue@v8@@@2@H@Z 000000018000bf95 f   node:node.exe
 0001:0000afa1       __imp_load_?New@Object@v8@@SA?AV?$Local@VObject@v8@@@2@PEAVIsolate@2@@Z 000000018000bfa1 f   node:node.exe
 0001:0000afad       __imp_load_?CallAsFunction@Object@v8@@QEAA?AV?$Local@VValue@v8@@@2@V32@HQEAV32@@Z 000000018000bfad f   node:node.exe
 0001:0000afb9       __imp_load_?SetAlignedPointerInInternalField@Object@v8@@QEAAXHPEAX@Z 000000018000bfb9 f   node:node.exe
 0001:0000afc5       __imp_load_?SetInternalField@Object@v8@@QEAAXHV?$Local@VValue@v8@@@2@@Z 000000018000bfc5 f   node:node.exe
 0001:0000afd1       __imp_load_?InternalFieldCount@Object@v8@@QEAAHXZ 000000018000bfd1 f   node:node.exe
 0001:0000afdd       __imp_load_?GetConstructorName@Object@v8@@QEAA?AV?$Local@VString@v8@@@2@XZ 000000018000bfdd f   node:node.exe
 0001:0000afe9       __imp_load_?GetOwnPropertyNames@Object@v8@@QEAA?AV?$Local@VArray@v8@@@2@XZ 000000018000bfe9 f   node:node.exe
 0001:0000aff5       __imp_load_?GetPropertyNames@Object@v8@@QEAA?AV?$Local@VArray@v8@@@2@XZ 000000018000bff5 f   node:node.exe
 0001:0000b001       __imp_load_?Has@Object@v8@@QEAA_NV?$Local@VValue@v8@@@2@@Z 000000018000c001 f   node:node.exe
 0001:0000b00d       __imp_load_?Get@Object@v8@@QEAA?AV?$Local@VValue@v8@@@2@V32@@Z 000000018000c00d f   node:node.exe
 0001:0000b019       __imp_load_?Get@Object@v8@@QEAA?AV?$Local@VValue@v8@@@2@I@Z 000000018000c019 f   node:node.exe
 0001:0000b025       __imp_load_?ForceSet@Object@v8@@QEAA_NV?$Local@VValue@v8@@@2@0W4PropertyAttribute@2@@Z 000000018000c025 f   node:node.exe
 0001:0000b031       __imp_load_?Set@Object@v8@@QEAA_NV?$Local@VValue@v8@@@2@0@Z 000000018000c031 f   node:node.exe
 0001:0000b03d       __imp_load_?Set@Object@v8@@QEAA_NIV?$Local@VValue@v8@@@2@@Z 000000018000c03d f   node:node.exe
 0001:0000b049       __imp_load_?Call@Function@v8@@QEAA?AV?$Local@VValue@v8@@@2@V32@HQEAV32@@Z 000000018000c049 f   node:node.exe
 0001:0000b055       __imp_load_?NewInstance@Function@v8@@QEBA?AV?$Local@VObject@v8@@@2@HQEAV?$Local@VValue@v8@@@2@@Z 000000018000c055 f   node:node.exe
 0001:0000b061       __imp_load_?NewInstance@Function@v8@@QEBA?AV?$MaybeLocal@VObject@v8@@@2@V?$Local@VContext@v8@@@2@HQEAV?$Local@VValue@v8@@@2@@Z 000000018000c061 f   node:node.exe
 0001:0000b06d       __imp_load_?NewInstance@Function@v8@@QEBA?AV?$Local@VObject@v8@@@2@XZ 000000018000c06d f   node:node.exe
 0001:0000b079       __imp_load_?SetInternalFieldCount@ObjectTemplate@v8@@QEAAXH@Z 000000018000c079 f   node:node.exe
 0001:0000b085       __imp_load_?SetHandler@ObjectTemplate@v8@@QEAAXAEBUIndexedPropertyHandlerConfiguration@2@@Z 000000018000c085 f   node:node.exe
 0001:0000b091       __imp_load_?NewInstance@ObjectTemplate@v8@@QEAA?AV?$Local@VObject@v8@@@2@XZ 000000018000c091 f   node:node.exe
 0001:0000b09d       __imp_load_?NewInstance@ObjectTemplate@v8@@QEAA?AV?$MaybeLocal@VObject@v8@@@2@V?$Local@VContext@v8@@@2@@Z 000000018000c09d f   node:node.exe
 0001:0000b0a9       __imp_load_?New@ObjectTemplate@v8@@SA?AV?$Local@VObjectTemplate@v8@@@2@PEAVIsolate@2@V?$Local@VFunctionTemplate@v8@@@2@@Z 000000018000c0a9 f   node:node.exe
 0001:0000b0b5       __imp_load_?New@ObjectTemplate@v8@@SA?AV?$Local@VObjectTemplate@v8@@@2@XZ 000000018000c0b5 f   node:node.exe
 0001:0000b0c1       __imp_load_uv_cond_init    000000018000c0c1 f   node:node.exe
 0001:0000b0cd       __imp_load_uv_mutex_lock   000000018000c0cd f   node:node.exe
 0001:0000b0d9       __imp_load_?FatalException@node@@YAXPEAVIsolate@v8@@AEBVTryCatch@3@@Z 000000018000c0d9 f   node:node.exe
 0001:0000b0e5       __imp_load_node_module_register 000000018000c0e5 f   node:node.exe
 0001:0000b0f1       __imp_load_?HasInstance@Buffer@node@@YA_NV?$Local@VValue@v8@@@v8@@@Z 000000018000c0f1 f   node:node.exe
 0001:0000b0fd       __imp_load_?New@Buffer@node@@YA?AV?$MaybeLocal@VObject@v8@@@v8@@PEAVIsolate@4@PEAD_K@Z 000000018000c0fd f   node:node.exe
 0001:0000b109       __imp_load_?Data@Buffer@node@@YAPEADV?$Local@VObject@v8@@@v8@@@Z 000000018000c109 f   node:node.exe
 0001:0000b115       __imp_load_?Length@Buffer@node@@YA_KV?$Local@VObject@v8@@@v8@@@Z 000000018000c115 f   node:node.exe
 0001:0000b121       __imp_load_uv_thread_create 000000018000c121 f   node:node.exe
 0001:0000b12d       __imp_load_uv_cond_wait    000000018000c12d f   node:node.exe
 0001:0000b139       __imp_load_uv_ref          000000018000c139 f   node:node.exe
 0001:0000b145       __imp_load_uv_mutex_init   000000018000c145 f   node:node.exe
 0001:0000b151       __imp_load_uv_async_send   000000018000c151 f   node:node.exe
 0001:0000b15d       __imp_load_uv_async_init   000000018000c15d f   node:node.exe
 0001:0000b169       __imp_load_uv_default_loop 000000018000c169 f   node:node.exe
 0001:0000b190       __security_check_cookie    000000018000c190 f   LIBCMT:_amdsecgs_.obj
 0001:0000b1b4       ??_V@YAXPEAX_K@Z           000000018000c1b4 f   LIBCMT:delete_array_size.obj
 0001:0000b1bc       ??2@YAPEAX_K@Z             000000018000c1bc f   LIBCMT:new_scalar.obj
 0001:0000b1f8       __scrt_acquire_startup_lock 000000018000c1f8 f   LIBCMT:utility.obj
 0001:0000b234       __scrt_dllmain_after_initialize_c 000000018000c234 f   LIBCMT:utility.obj
 0001:0000b254       __scrt_dllmain_before_initialize_c 000000018000c254 f   LIBCMT:utility.obj
 0001:0000b26c       __scrt_dllmain_crt_thread_attach 000000018000c26c f   LIBCMT:utility.obj
 0001:0000b294       __scrt_dllmain_crt_thread_detach 000000018000c294 f   LIBCMT:utility.obj
 0001:0000b2ac       __scrt_dllmain_exception_filter 000000018000c2ac f   LIBCMT:utility.obj
 0001:0000b310       __scrt_dllmain_uninitialize_c 000000018000c310 f   LIBCMT:utility.obj
 0001:0000b340       __scrt_dllmain_uninitialize_critical 000000018000c340 f   LIBCMT:utility.obj
 0001:0000b354       __scrt_initialize_crt      000000018000c354 f   LIBCMT:utility.obj
 0001:0000b3a0       __scrt_initialize_onexit_tables 000000018000c3a0 f   LIBCMT:utility.obj
 0001:0000b46c       __scrt_is_nonwritable_in_current_image 000000018000c46c f   LIBCMT:utility.obj
 0001:0000b508       __scrt_release_startup_lock 000000018000c508 f   LIBCMT:utility.obj
 0001:0000b52c       __scrt_uninitialize_crt    000000018000c52c f   LIBCMT:utility.obj
 0001:0000b558       _onexit                    000000018000c558 f   LIBCMT:utility.obj
 0001:0000b5a8       atexit                     000000018000c5a8 f   LIBCMT:utility.obj
 0001:0000b5c0       ??3@YAXPEAX@Z              000000018000c5c0 f   LIBCMT:delete_scalar.obj
 0001:0000b5c8       ??_V@YAXPEAX@Z             000000018000c5c8 f   LIBCMT:delete_array.obj
 0001:0000b5c8       ??3@YAXPEAX_K@Z            000000018000c5c8 f   LIBCMT:delete_scalar_size.obj
 0001:0000b5d0       ??_Gtype_info@@UEAAPEAXI@Z 000000018000c5d0 f i LIBCMT:std_type_info_static.obj
 0001:0000b5d0       ??_Etype_info@@UEAAPEAXI@Z 000000018000c5d0 f i LIBCMT:std_type_info_static.obj
 0001:0000b958       _DllMainCRTStartup         000000018000c958 f   LIBCMT:dll_dllmain.obj
 0001:0000b998       __raise_securityfailure    000000018000c998 f   LIBCMT:gs_report.obj
 0001:0000b9cc       __report_gsfailure         000000018000c9cc f   LIBCMT:gs_report.obj
 0001:0000bb14       ??0bad_alloc@std@@QEAA@AEBV01@@Z 000000018000cb14 f i LIBCMT:throw_bad_alloc.obj
 0001:0000bb54       ??0bad_alloc@std@@QEAA@XZ  000000018000cb54 f i LIBCMT:throw_bad_alloc.obj
 0001:0000bb74       ??0bad_array_new_length@std@@QEAA@AEBV01@@Z 000000018000cb74 f i LIBCMT:throw_bad_alloc.obj
 0001:0000bbb4       ??0bad_array_new_length@std@@QEAA@XZ 000000018000cbb4 f i LIBCMT:throw_bad_alloc.obj
 0001:0000bbd4       ??0exception@std@@QEAA@AEBV01@@Z 000000018000cbd4 f i LIBCMT:throw_bad_alloc.obj
 0001:0000bc0c       ??1bad_array_new_length@std@@UEAA@XZ 000000018000cc0c f i LIBCMT:throw_bad_alloc.obj
 0001:0000bc0c       ??1bad_alloc@std@@UEAA@XZ  000000018000cc0c f i LIBCMT:throw_bad_alloc.obj
 0001:0000bc20       ??_Gbad_array_new_length@std@@UEAAPEAXI@Z 000000018000cc20 f i LIBCMT:throw_bad_alloc.obj
 0001:0000bc20       ??_Ebad_alloc@std@@UEAAPEAXI@Z 000000018000cc20 f i LIBCMT:throw_bad_alloc.obj
 0001:0000bc20       ??_Ebad_array_new_length@std@@UEAAPEAXI@Z 000000018000cc20 f i LIBCMT:throw_bad_alloc.obj
 0001:0000bc20       ??_Eexception@std@@UEAAPEAXI@Z 000000018000cc20 f i LIBCMT:throw_bad_alloc.obj
 0001:0000bc20       ??_Gexception@std@@UEAAPEAXI@Z 000000018000cc20 f i LIBCMT:throw_bad_alloc.obj
 0001:0000bc20       ??_Gbad_alloc@std@@UEAAPEAXI@Z 000000018000cc20 f i LIBCMT:throw_bad_alloc.obj
 0001:0000bc64       ?__scrt_throw_std_bad_alloc@@YAXXZ 000000018000cc64 f   LIBCMT:throw_bad_alloc.obj
 0001:0000bc84       ?__scrt_throw_std_bad_array_new_length@@YAXXZ 000000018000cc84 f   LIBCMT:throw_bad_alloc.obj
 0001:0000bca4       ?what@exception@std@@UEBAPEBDXZ 000000018000cca4 f i LIBCMT:throw_bad_alloc.obj
 0001:0000bcb8       __isa_available_init       000000018000ccb8 f   LIBCMT:_cpu_disp_.obj
 0001:0000be7c       __scrt_is_ucrt_dll_in_use  000000018000ce7c f   LIBCMT:ucrt_detection.obj
 0001:0000be88       __crt_debugger_hook        000000018000ce88 f   LIBCMT:utility_desktop.obj
 0001:0000be90       __scrt_fastfail            000000018000ce90 f   LIBCMT:utility_desktop.obj
 0001:0000bfd8       _guard_check_icall         000000018000cfd8 f i LIBCMT:checkcfg.obj
 0001:0000bfe0       __security_init_cookie     000000018000cfe0 f   LIBCMT:gs_support.obj
 0001:0000c08c       DllMain                    000000018000d08c f   LIBCMT:dll_dllmain_stub.obj
 0001:0000c094       ?__scrt_initialize_type_info@@YAXXZ 000000018000d094 f   LIBCMT:tncleanup.obj
 0001:0000c0a4       ?__scrt_uninitialize_type_info@@YAXXZ 000000018000d0a4 f   LIBCMT:tncleanup.obj
 0001:0000c0b0       __local_stdio_scanf_options 000000018000d0b0 f i LIBCMT:default_local_stdio_options.obj
 0001:0000c0b8       __scrt_initialize_default_local_stdio_options 000000018000d0b8 f   LIBCMT:default_local_stdio_options.obj
 0001:0000c0d4       __scrt_get_dyn_tls_init_callback 000000018000d0d4 f   LIBCMT:dyn_tls_init.obj
 0001:0000c0dc       _RTC_Initialize            000000018000d0dc f   LIBCMT:_initsect_.obj
 0001:0000c128       _RTC_Terminate             000000018000d128 f   LIBCMT:_initsect_.obj
 0001:0000c180       _purecall                  000000018000d180 f   libvcruntime:purevirt.obj
 0001:0000c1bc       strchr                     000000018000d1bc f   libvcruntime:strchr.obj
 0001:0000c248       __vcrt_initialize          000000018000d248 f   libvcruntime:initialization.obj
 0001:0000c280       __vcrt_thread_attach       000000018000d280 f   libvcruntime:initialization.obj
 0001:0000c294       __vcrt_thread_detach       000000018000d294 f   libvcruntime:initialization.obj
 0001:0000c2a8       __vcrt_uninitialize        000000018000d2a8 f   libvcruntime:initialization.obj
 0001:0000c2d4       __vcrt_uninitialize_critical 000000018000d2d4 f   libvcruntime:initialization.obj
 0001:0000c2e4       __C_specific_handler       000000018000d2e4 f   libvcruntime:_chandler_.obj
 0001:0000c4d8       __telemetry_main_invoke_trigger 000000018000d4d8 f   libvcruntime:telemetry.obj
 0001:0000c5f0       __telemetry_main_return_trigger 000000018000d5f0 f   libvcruntime:telemetry.obj
 0001:0000c708       __vcrt_initialize_telemetry_provider 000000018000d708 f   libvcruntime:telemetry.obj
 0001:0000c71c       __vcrt_uninitialize_telemetry_provider 000000018000d71c f   libvcruntime:telemetry.obj
 0001:0000c73c       __std_exception_copy       000000018000d73c f   libvcruntime:std_exception.obj
 0001:0000c7cc       __std_exception_destroy    000000018000d7cc f   libvcruntime:std_exception.obj
 0001:0000c7f4       _CxxThrowException         000000018000d7f4 f   libvcruntime:throw.obj
 0001:0000c8e0       memset                     000000018000d8e0 f   libvcruntime:memset.obj
 0001:0000ca80       __std_type_info_destroy_list 000000018000da80 f   libvcruntime:std_type_info.obj
 0001:0000caac       __vcrt_initialize_pure_virtual_call_handler 000000018000daac f   libvcruntime:purevirt_data.obj
 0001:0000cad0       __vcrt_freefls             000000018000dad0 f   libvcruntime:per_thread_data.obj
 0001:0000caf0       __vcrt_freeptd             000000018000daf0 f   libvcruntime:per_thread_data.obj
 0001:0000cb40       __vcrt_getptd_noexit       000000018000db40 f   libvcruntime:per_thread_data.obj
 0001:0000cbe8       __vcrt_initialize_ptd      000000018000dbe8 f   libvcruntime:per_thread_data.obj
 0001:0000cc28       __vcrt_uninitialize_ptd    000000018000dc28 f   libvcruntime:per_thread_data.obj
 0001:0000cc4c       __vcrt_initialize_locks    000000018000dc4c f   libvcruntime:locks.obj
 0001:0000cc94       __vcrt_uninitialize_locks  000000018000dc94 f   libvcruntime:locks.obj
 0001:0000ce94       __vcrt_EventRegister       000000018000de94 f   libvcruntime:winapi_downlevel.obj
 0001:0000cf18       __vcrt_EventSetInformation 000000018000df18 f   libvcruntime:winapi_downlevel.obj
 0001:0000cf9c       __vcrt_EventUnregister     000000018000df9c f   libvcruntime:winapi_downlevel.obj
 0001:0000cff0       __vcrt_EventWriteTransfer  000000018000dff0 f   libvcruntime:winapi_downlevel.obj
 0001:0000d088       __vcrt_FlsAlloc            000000018000e088 f   libvcruntime:winapi_downlevel.obj
 0001:0000d0dc       __vcrt_FlsFree             000000018000e0dc f   libvcruntime:winapi_downlevel.obj
 0001:0000d130       __vcrt_FlsGetValue         000000018000e130 f   libvcruntime:winapi_downlevel.obj
 0001:0000d184       __vcrt_FlsSetValue         000000018000e184 f   libvcruntime:winapi_downlevel.obj
 0001:0000d1ec       __vcrt_InitializeCriticalSectionEx 000000018000e1ec f   libvcruntime:winapi_downlevel.obj
 0001:0000d264       __vcrt_initialize_winapi_thunks 000000018000e264 f   libvcruntime:winapi_downlevel.obj
 0001:0000d29c       __vcrt_uninitialize_winapi_thunks 000000018000e29c f   libvcruntime:winapi_downlevel.obj
 0001:0000d2f0       _local_unwind              000000018000e2f0 f   libvcruntime:_jmpuwind_.obj
 0001:0000d320       _NLG_Notify                000000018000e320 f   libvcruntime:_jmpuwind_.obj
 0001:0000d340       __NLG_Dispatch2            000000018000e340 f   libvcruntime:_jmpuwind_.obj
 0001:0000d350       __NLG_Return2              000000018000e350 f   libvcruntime:_jmpuwind_.obj
 0001:0000d828       _ftelli64_nolock           000000018000e828 f   libucrt:ftell.obj
 0001:0000d830       ftell                      000000018000e830 f   libucrt:ftell.obj
 0001:0000d838       calloc                     000000018000e838 f   libucrt:calloc.obj
 0001:0000d840       ferror                     000000018000e840 f   libucrt:feoferr.obj
 0001:0000d93c       fopen                      000000018000e93c f   libucrt:fopen.obj
 0001:0000d948       __acrt_initialize_stdio    000000018000e948 f   libucrt:_file.obj
 0001:0000da68       __acrt_iob_func            000000018000ea68 f   libucrt:_file.obj
 0001:0000da7c       __acrt_uninitialize_stdio  000000018000ea7c f   libucrt:_file.obj
 0001:0000dad8       _lock_file                 000000018000ead8 f   libucrt:_file.obj
 0001:0000dae4       _unlock_file               000000018000eae4 f   libucrt:_file.obj
 0001:0000daf0       __acrt_stdio_flush_nolock  000000018000eaf0 f   libucrt:fflush.obj
 0001:0000db68       _fflush_nolock             000000018000eb68 f   libucrt:fflush.obj
 0001:0000dbb4       _flushall                  000000018000ebb4 f   libucrt:fflush.obj
 0001:0000dca4       fflush                     000000018000eca4 f   libucrt:fflush.obj
 0001:0000dce8       _fclose_nolock             000000018000ece8 f   libucrt:fclose.obj
 0001:0000dd6c       fclose                     000000018000ed6c f   libucrt:fclose.obj
 0001:0000e04c       fseek                      000000018000f04c f   libucrt:fseek.obj
 0001:0000e054       ??$?RV<lambda_7b91131dde12e1c3dfc74ff76b3f2eac>@@AEAV<lambda_dd75445284c072d0bd3768540cc698fa>@@V<lambda_16bc4ecb55b4718497c16bceaea2ceaf>@@@?$__crt_seh_guarded_call@H@@QEAAH$$QEAV<lambda_7b91131dde12e1c3dfc74ff76b3f2eac>@@AEAV<lambda_dd75445284c072d0bd3768540cc698fa>@@$$QEAV<lambda_16bc4ecb55b4718497c16bceaea2ceaf>@@@Z 000000018000f054 f i libucrt:output.obj
 0001:0000e094       ??$?RV<lambda_aa279a7bcb127014629d5b1d62c7325d>@@AEAV<lambda_0a64b6a4deda75c01876f29c44fc5eb3>@@V<lambda_3323e69fbefe9d1a11713e670d47cdfa>@@@?$__crt_seh_guarded_call@H@@QEAAH$$QEAV<lambda_aa279a7bcb127014629d5b1d62c7325d>@@AEAV<lambda_0a64b6a4deda75c01876f29c44fc5eb3>@@$$QEAV<lambda_3323e69fbefe9d1a11713e670d47cdfa>@@@Z 000000018000f094 f i libucrt:output.obj
 0001:0000e0d4       ??$ensure_buffer_is_big_enough@D@formatting_buffer@__crt_stdio_output@@QEAA_N_K@Z 000000018000f0d4 f i libucrt:output.obj
 0001:0000e180       ??$is_wide_character_specifier@D@__crt_stdio_output@@YA_N_KDW4length_modifier@0@@Z 000000018000f180 f i libucrt:output.obj
 0001:0000e1b0       ??$is_wide_character_specifier@_W@__crt_stdio_output@@YA_N_K_WW4length_modifier@0@@Z 000000018000f1b0 f i libucrt:output.obj
 0001:0000e1f4       ??$type_case_integer_parse_into_buffer@I@?$output_processor@_WV?$stream_output_adapter@_W@__crt_stdio_output@@V?$standard_base@_WV?$stream_output_adapter@_W@__crt_stdio_output@@@2@@__crt_stdio_output@@AEAAXII_N@Z 000000018000f1f4 f i libucrt:output.obj
 0001:0000e1f4       ??$type_case_integer_parse_into_buffer@I@?$output_processor@DV?$string_output_adapter@D@__crt_stdio_output@@V?$standard_base@DV?$string_output_adapter@D@__crt_stdio_output@@@2@@__crt_stdio_output@@AEAAXII_N@Z 000000018000f1f4 f i libucrt:output.obj
 0001:0000e1f4       ??$type_case_integer_parse_into_buffer@I@?$output_processor@DV?$stream_output_adapter@D@__crt_stdio_output@@V?$standard_base@DV?$stream_output_adapter@D@__crt_stdio_output@@@2@@__crt_stdio_output@@AEAAXII_N@Z 000000018000f1f4 f i libucrt:output.obj
 0001:0000e1f4       ??$type_case_integer_parse_into_buffer@I@?$output_processor@_WV?$string_output_adapter@_W@__crt_stdio_output@@V?$standard_base@_WV?$string_output_adapter@_W@__crt_stdio_output@@@2@@__crt_stdio_output@@AEAAXII_N@Z 000000018000f1f4 f i libucrt:output.obj
 0001:0000e290       ??$type_case_integer_parse_into_buffer@_K@?$output_processor@_WV?$string_output_adapter@_W@__crt_stdio_output@@V?$standard_base@_WV?$string_output_adapter@_W@__crt_stdio_output@@@2@@__crt_stdio_output@@AEAAX_KI_N@Z 000000018000f290 f i libucrt:output.obj
 0001:0000e290       ??$type_case_integer_parse_into_buffer@_K@?$output_processor@_WV?$stream_output_adapter@_W@__crt_stdio_output@@V?$standard_base@_WV?$stream_output_adapter@_W@__crt_stdio_output@@@2@@__crt_stdio_output@@AEAAX_KI_N@Z 000000018000f290 f i libucrt:output.obj
 0001:0000e290       ??$type_case_integer_parse_into_buffer@_K@?$output_processor@DV?$stream_output_adapter@D@__crt_stdio_output@@V?$standard_base@DV?$stream_output_adapter@D@__crt_stdio_output@@@2@@__crt_stdio_output@@AEAAX_KI_N@Z 000000018000f290 f i libucrt:output.obj
 0001:0000e290       ??$type_case_integer_parse_into_buffer@_K@?$output_processor@DV?$string_output_adapter@D@__crt_stdio_output@@V?$standard_base@DV?$string_output_adapter@D@__crt_stdio_output@@@2@@__crt_stdio_output@@AEAAX_KI_N@Z 000000018000f290 f i libucrt:output.obj
 0001:0000e32c       ??$write_multiple_characters@V?$stream_output_adapter@D@__crt_stdio_output@@D@__crt_stdio_output@@YAXAEBV?$stream_output_adapter@D@0@DHQEAH@Z 000000018000f32c f i libucrt:output.obj
 0001:0000e3b0       ??$write_multiple_characters@V?$stream_output_adapter@_W@__crt_stdio_output@@D@__crt_stdio_output@@YAXAEBV?$stream_output_adapter@_W@0@DHQEAH@Z 000000018000f3b0 f i libucrt:output.obj
 0001:0000e440       ??$write_multiple_characters@V?$string_output_adapter@D@__crt_stdio_output@@D@__crt_stdio_output@@YAXAEBV?$string_output_adapter@D@0@DHQEAH@Z 000000018000f440 f i libucrt:output.obj
 0001:0000e49c       ??$write_multiple_characters@V?$string_output_adapter@_W@__crt_stdio_output@@D@__crt_stdio_output@@YAXAEBV?$string_output_adapter@_W@0@DHQEAH@Z 000000018000f49c f i libucrt:output.obj
 0001:0000e50c       ??0?$output_processor@DV?$string_output_adapter@D@__crt_stdio_output@@V?$standard_base@DV?$string_output_adapter@D@__crt_stdio_output@@@2@@__crt_stdio_output@@QEAA@AEBV?$string_output_adapter@D@1@_KQEBDQEAU__crt_locale_pointers@@QEAD@Z 000000018000f50c f i libucrt:output.obj
 0001:0000e50c       ??0?$output_processor@DV?$stream_output_adapter@D@__crt_stdio_output@@V?$standard_base@DV?$stream_output_adapter@D@__crt_stdio_output@@@2@@__crt_stdio_output@@QEAA@AEBV?$stream_output_adapter@D@1@_KQEBDQEAU__crt_locale_pointers@@QEAD@Z 000000018000f50c f i libucrt:output.obj
 0001:0000e588       ??0?$output_processor@_WV?$stream_output_adapter@_W@__crt_stdio_output@@V?$standard_base@_WV?$stream_output_adapter@_W@__crt_stdio_output@@@2@@__crt_stdio_output@@QEAA@AEBV?$stream_output_adapter@_W@1@_KQEB_WQEAU__crt_locale_pointers@@QEAD@Z 000000018000f588 f i libucrt:output.obj
 0001:0000e588       ??0?$output_processor@_WV?$string_output_adapter@_W@__crt_stdio_output@@V?$standard_base@_WV?$string_output_adapter@_W@__crt_stdio_output@@@2@@__crt_stdio_output@@QEAA@AEBV?$string_output_adapter@_W@1@_KQEB_WQEAU__crt_locale_pointers@@QEAD@Z 000000018000f588 f i libucrt:output.obj
 0001:0000e608       ??0_LocaleUpdate@@QEAA@QEAU__crt_locale_pointers@@@Z 000000018000f608 f i libucrt:output.obj
 0001:0000e878       ?force_decimal_point@__crt_stdio_output@@YAXPEADQEAU__crt_locale_pointers@@@Z 000000018000f878 f i libucrt:output.obj
 0001:0000e8e8       ?parse_int_from_format_string@?$output_processor@DV?$stream_output_adapter@D@__crt_stdio_output@@V?$standard_base@DV?$stream_output_adapter@D@__crt_stdio_output@@@2@@__crt_stdio_output@@AEAA_NQEAH@Z 000000018000f8e8 f i libucrt:output.obj
 0001:0000e8e8       ?parse_int_from_format_string@?$output_processor@DV?$string_output_adapter@D@__crt_stdio_output@@V?$standard_base@DV?$string_output_adapter@D@__crt_stdio_output@@@2@@__crt_stdio_output@@AEAA_NQEAH@Z 000000018000f8e8 f i libucrt:output.obj
 0001:0000e96c       ?parse_int_from_format_string@?$output_processor@_WV?$stream_output_adapter@_W@__crt_stdio_output@@V?$standard_base@_WV?$stream_output_adapter@_W@__crt_stdio_output@@@2@@__crt_stdio_output@@AEAA_NQEAH@Z 000000018000f96c f i libucrt:output.obj
 0001:0000e96c       ?parse_int_from_format_string@?$output_processor@_WV?$string_output_adapter@_W@__crt_stdio_output@@V?$standard_base@_WV?$string_output_adapter@_W@__crt_stdio_output@@@2@@__crt_stdio_output@@AEAA_NQEAH@Z 000000018000f96c f i libucrt:output.obj
 0001:0000e9ec       ?process@?$output_processor@DV?$stream_output_adapter@D@__crt_stdio_output@@V?$standard_base@DV?$stream_output_adapter@D@__crt_stdio_output@@@2@@__crt_stdio_output@@QEAAHXZ 000000018000f9ec f i libucrt:output.obj
 0001:0000ebfc       ?process@?$output_processor@DV?$string_output_adapter@D@__crt_stdio_output@@V?$standard_base@DV?$string_output_adapter@D@__crt_stdio_output@@@2@@__crt_stdio_output@@QEAAHXZ 000000018000fbfc f i libucrt:output.obj
 0001:0000ee00       ?process@?$output_processor@_WV?$stream_output_adapter@_W@__crt_stdio_output@@V?$standard_base@_WV?$stream_output_adapter@_W@__crt_stdio_output@@@2@@__crt_stdio_output@@QEAAHXZ 000000018000fe00 f i libucrt:output.obj
 0001:0000f078       ?process@?$output_processor@_WV?$string_output_adapter@_W@__crt_stdio_output@@V?$standard_base@_WV?$string_output_adapter@_W@__crt_stdio_output@@@2@@__crt_stdio_output@@QEAAHXZ 0000000180010078 f i libucrt:output.obj
 0001:0000f2f4       ?state_case_normal@?$output_processor@DV?$stream_output_adapter@D@__crt_stdio_output@@V?$standard_base@DV?$stream_output_adapter@D@__crt_stdio_output@@@2@@__crt_stdio_output@@AEAA_NXZ 00000001800102f4 f i libucrt:output.obj
 0001:0000f364       ?state_case_normal@?$output_processor@DV?$string_output_adapter@D@__crt_stdio_output@@V?$standard_base@DV?$string_output_adapter@D@__crt_stdio_output@@@2@@__crt_stdio_output@@AEAA_NXZ 0000000180010364 f i libucrt:output.obj
 0001:0000f3d8       ?state_case_normal_tchar@?$output_processor@DV?$stream_output_adapter@D@__crt_stdio_output@@V?$standard_base@DV?$stream_output_adapter@D@__crt_stdio_output@@@2@@__crt_stdio_output@@AEAA_ND@Z 00000001800103d8 f i libucrt:output.obj
 0001:0000f46c       ?state_case_normal_tchar@?$output_processor@DV?$string_output_adapter@D@__crt_stdio_output@@V?$standard_base@DV?$string_output_adapter@D@__crt_stdio_output@@@2@@__crt_stdio_output@@AEAA_ND@Z 000000018001046c f i libucrt:output.obj
 0001:0000f504       ?state_case_size@?$output_processor@DV?$stream_output_adapter@D@__crt_stdio_output@@V?$standard_base@DV?$stream_output_adapter@D@__crt_stdio_output@@@2@@__crt_stdio_output@@AEAA_NXZ 0000000180010504 f i libucrt:output.obj
 0001:0000f680       ?state_case_size@?$output_processor@DV?$string_output_adapter@D@__crt_stdio_output@@V?$standard_base@DV?$string_output_adapter@D@__crt_stdio_output@@@2@@__crt_stdio_output@@AEAA_NXZ 0000000180010680 f i libucrt:output.obj
 0001:0000f7fc       ?state_case_size@?$output_processor@_WV?$stream_output_adapter@_W@__crt_stdio_output@@V?$standard_base@_WV?$stream_output_adapter@_W@__crt_stdio_output@@@2@@__crt_stdio_output@@AEAA_NXZ 00000001800107fc f i libucrt:output.obj
 0001:0000f9a0       ?state_case_size@?$output_processor@_WV?$string_output_adapter@_W@__crt_stdio_output@@V?$standard_base@_WV?$string_output_adapter@_W@__crt_stdio_output@@@2@@__crt_stdio_output@@AEAA_NXZ 00000001800109a0 f i libucrt:output.obj
 0001:0000fb44       ?state_case_type@?$output_processor@DV?$stream_output_adapter@D@__crt_stdio_output@@V?$standard_base@DV?$stream_output_adapter@D@__crt_stdio_output@@@2@@__crt_stdio_output@@AEAA_NXZ 0000000180010b44 f i libucrt:output.obj
 0001:0000fdc0       ?state_case_type@?$output_processor@DV?$string_output_adapter@D@__crt_stdio_output@@V?$standard_base@DV?$string_output_adapter@D@__crt_stdio_output@@@2@@__crt_stdio_output@@AEAA_NXZ 0000000180010dc0 f i libucrt:output.obj
 0001:0001003c       ?state_case_type@?$output_processor@_WV?$stream_output_adapter@_W@__crt_stdio_output@@V?$standard_base@_WV?$stream_output_adapter@_W@__crt_stdio_output@@@2@@__crt_stdio_output@@AEAA_NXZ 000000018001103c f i libucrt:output.obj
 0001:00010308       ?state_case_type@?$output_processor@_WV?$string_output_adapter@_W@__crt_stdio_output@@V?$standard_base@_WV?$string_output_adapter@_W@__crt_stdio_output@@@2@@__crt_stdio_output@@AEAA_NXZ 0000000180011308 f i libucrt:output.obj
 0001:000105d4       ?type_case_Z@?$output_processor@DV?$string_output_adapter@D@__crt_stdio_output@@V?$standard_base@DV?$string_output_adapter@D@__crt_stdio_output@@@2@@__crt_stdio_output@@AEAA_NXZ 00000001800115d4 f i libucrt:output.obj
 0001:000105d4       ?type_case_Z@?$output_processor@DV?$stream_output_adapter@D@__crt_stdio_output@@V?$standard_base@DV?$stream_output_adapter@D@__crt_stdio_output@@@2@@__crt_stdio_output@@AEAA_NXZ 00000001800115d4 f i libucrt:output.obj
 0001:00010654       ?type_case_Z@?$output_processor@_WV?$string_output_adapter@_W@__crt_stdio_output@@V?$standard_base@_WV?$string_output_adapter@_W@__crt_stdio_output@@@2@@__crt_stdio_output@@AEAA_NXZ 0000000180011654 f i libucrt:output.obj
 0001:00010654       ?type_case_Z@?$output_processor@_WV?$stream_output_adapter@_W@__crt_stdio_output@@V?$standard_base@_WV?$stream_output_adapter@_W@__crt_stdio_output@@@2@@__crt_stdio_output@@AEAA_NXZ 0000000180011654 f i libucrt:output.obj
 0001:000106d4       ?type_case_a@?$output_processor@DV?$string_output_adapter@D@__crt_stdio_output@@V?$standard_base@DV?$string_output_adapter@D@__crt_stdio_output@@@2@@__crt_stdio_output@@AEAA_NXZ 00000001800116d4 f i libucrt:output.obj
 0001:000106d4       ?type_case_a@?$output_processor@DV?$stream_output_adapter@D@__crt_stdio_output@@V?$standard_base@DV?$stream_output_adapter@D@__crt_stdio_output@@@2@@__crt_stdio_output@@AEAA_NXZ 00000001800116d4 f i libucrt:output.obj
 0001:000108f0       ?type_case_a@?$output_processor@_WV?$stream_output_adapter@_W@__crt_stdio_output@@V?$standard_base@_WV?$stream_output_adapter@_W@__crt_stdio_output@@@2@@__crt_stdio_output@@AEAA_NXZ 00000001800118f0 f i libucrt:output.obj
 0001:000108f0       ?type_case_a@?$output_processor@_WV?$string_output_adapter@_W@__crt_stdio_output@@V?$standard_base@_WV?$string_output_adapter@_W@__crt_stdio_output@@@2@@__crt_stdio_output@@AEAA_NXZ 00000001800118f0 f i libucrt:output.obj
 0001:00010b34       ?type_case_c_tchar@?$output_processor@DV?$string_output_adapter@D@__crt_stdio_output@@V?$standard_base@DV?$string_output_adapter@D@__crt_stdio_output@@@2@@__crt_stdio_output@@AEAA_ND@Z 0000000180011b34 f i libucrt:output.obj
 0001:00010b34       ?type_case_c_tchar@?$output_processor@DV?$stream_output_adapter@D@__crt_stdio_output@@V?$standard_base@DV?$stream_output_adapter@D@__crt_stdio_output@@@2@@__crt_stdio_output@@AEAA_ND@Z 0000000180011b34 f i libucrt:output.obj
 0001:00010be8       ?type_case_c_tchar@?$output_processor@_WV?$stream_output_adapter@_W@__crt_stdio_output@@V?$standard_base@_WV?$stream_output_adapter@_W@__crt_stdio_output@@@2@@__crt_stdio_output@@AEAA_N_W@Z 0000000180011be8 f i libucrt:output.obj
 0001:00010be8       ?type_case_c_tchar@?$output_processor@_WV?$string_output_adapter@_W@__crt_stdio_output@@V?$standard_base@_WV?$string_output_adapter@_W@__crt_stdio_output@@@2@@__crt_stdio_output@@AEAA_N_W@Z 0000000180011be8 f i libucrt:output.obj
 0001:00010c90       ?type_case_integer@?$output_processor@_WV?$stream_output_adapter@_W@__crt_stdio_output@@V?$standard_base@_WV?$stream_output_adapter@_W@__crt_stdio_output@@@2@@__crt_stdio_output@@AEAA_NI_N@Z 0000000180011c90 f i libucrt:output.obj
 0001:00010c90       ?type_case_integer@?$output_processor@_WV?$string_output_adapter@_W@__crt_stdio_output@@V?$standard_base@_WV?$string_output_adapter@_W@__crt_stdio_output@@@2@@__crt_stdio_output@@AEAA_NI_N@Z 0000000180011c90 f i libucrt:output.obj
 0001:00010c90       ?type_case_integer@?$output_processor@DV?$stream_output_adapter@D@__crt_stdio_output@@V?$standard_base@DV?$stream_output_adapter@D@__crt_stdio_output@@@2@@__crt_stdio_output@@AEAA_NI_N@Z 0000000180011c90 f i libucrt:output.obj
 0001:00010c90       ?type_case_integer@?$output_processor@DV?$string_output_adapter@D@__crt_stdio_output@@V?$standard_base@DV?$string_output_adapter@D@__crt_stdio_output@@@2@@__crt_stdio_output@@AEAA_NI_N@Z 0000000180011c90 f i libucrt:output.obj
 0001:00010e30       ?type_case_n@?$output_processor@_WV?$stream_output_adapter@_W@__crt_stdio_output@@V?$standard_base@_WV?$stream_output_adapter@_W@__crt_stdio_output@@@2@@__crt_stdio_output@@AEAA_NXZ 0000000180011e30 f i libucrt:output.obj
 0001:00010e30       ?type_case_n@?$output_processor@_WV?$string_output_adapter@_W@__crt_stdio_output@@V?$standard_base@_WV?$string_output_adapter@_W@__crt_stdio_output@@@2@@__crt_stdio_output@@AEAA_NXZ 0000000180011e30 f i libucrt:output.obj
 0001:00010e30       ?type_case_n@?$output_processor@DV?$string_output_adapter@D@__crt_stdio_output@@V?$standard_base@DV?$string_output_adapter@D@__crt_stdio_output@@@2@@__crt_stdio_output@@AEAA_NXZ 0000000180011e30 f i libucrt:output.obj
 0001:00010e30       ?type_case_n@?$output_processor@DV?$stream_output_adapter@D@__crt_stdio_output@@V?$standard_base@DV?$stream_output_adapter@D@__crt_stdio_output@@@2@@__crt_stdio_output@@AEAA_NXZ 0000000180011e30 f i libucrt:output.obj
 0001:00010f0c       ?type_case_s@?$output_processor@DV?$string_output_adapter@D@__crt_stdio_output@@V?$standard_base@DV?$string_output_adapter@D@__crt_stdio_output@@@2@@__crt_stdio_output@@AEAA_NXZ 0000000180011f0c f i libucrt:output.obj
 0001:00010f0c       ?type_case_s@?$output_processor@DV?$stream_output_adapter@D@__crt_stdio_output@@V?$standard_base@DV?$stream_output_adapter@D@__crt_stdio_output@@@2@@__crt_stdio_output@@AEAA_NXZ 0000000180011f0c f i libucrt:output.obj
 0001:00010f9c       ?type_case_s@?$output_processor@_WV?$string_output_adapter@_W@__crt_stdio_output@@V?$standard_base@_WV?$string_output_adapter@_W@__crt_stdio_output@@@2@@__crt_stdio_output@@AEAA_NXZ 0000000180011f9c f i libucrt:output.obj
 0001:00010f9c       ?type_case_s@?$output_processor@_WV?$stream_output_adapter@_W@__crt_stdio_output@@V?$standard_base@_WV?$stream_output_adapter@_W@__crt_stdio_output@@@2@@__crt_stdio_output@@AEAA_NXZ 0000000180011f9c f i libucrt:output.obj
 0001:00011064       ?validate_stream_is_ansi_if_required@?$__acrt_stdio_char_traits@D@@SA_NQEAU_iobuf@@@Z 0000000180012064 f i libucrt:output.obj
 0001:000110f0       ?write_stored_string_tchar@?$output_processor@DV?$stream_output_adapter@D@__crt_stdio_output@@V?$standard_base@DV?$stream_output_adapter@D@__crt_stdio_output@@@2@@__crt_stdio_output@@AEAA_ND@Z 00000001800120f0 f i libucrt:output.obj
 0001:000111c8       ?write_stored_string_tchar@?$output_processor@DV?$string_output_adapter@D@__crt_stdio_output@@V?$standard_base@DV?$string_output_adapter@D@__crt_stdio_output@@@2@@__crt_stdio_output@@AEAA_ND@Z 00000001800121c8 f i libucrt:output.obj
 0001:000112a0       ?write_stored_string_tchar@?$output_processor@_WV?$stream_output_adapter@_W@__crt_stdio_output@@V?$standard_base@_WV?$stream_output_adapter@_W@__crt_stdio_output@@@2@@__crt_stdio_output@@AEAA_N_W@Z 00000001800122a0 f i libucrt:output.obj
 0001:0001138c       ?write_stored_string_tchar@?$output_processor@_WV?$string_output_adapter@_W@__crt_stdio_output@@V?$standard_base@_WV?$string_output_adapter@_W@__crt_stdio_output@@@2@@__crt_stdio_output@@AEAA_N_W@Z 000000018001238c f i libucrt:output.obj
 0001:0001147c       ?write_string@?$stream_output_adapter@D@__crt_stdio_output@@QEBAXQEBDHQEAH1@Z 000000018001247c f i libucrt:output.obj
 0001:00011574       ?write_string@?$stream_output_adapter@_W@__crt_stdio_output@@QEBAXQEB_WHQEAH1@Z 0000000180012574 f i libucrt:output.obj
 0001:00011680       ?write_string@?$string_output_adapter@D@__crt_stdio_output@@QEBAXQEBDHQEAH1@Z 0000000180012680 f i libucrt:output.obj
 0001:0001173c       ?write_string@?$string_output_adapter@_W@__crt_stdio_output@@QEBAXQEB_WHQEAH1@Z 000000018001273c f i libucrt:output.obj
 0001:000117fc       __stdio_common_vfprintf    00000001800127fc f   libucrt:output.obj
 0001:00011888       __stdio_common_vfwprintf   0000000180012888 f   libucrt:output.obj
 0001:00011914       __stdio_common_vsprintf    0000000180012914 f   libucrt:output.obj
 0001:00011b48       __stdio_common_vswprintf   0000000180012b48 f   libucrt:output.obj
 0001:00011d80       rewind                     0000000180012d80 f   libucrt:rewind.obj
 0001:00011e4c       _fputc_nolock              0000000180012e4c f   libucrt:fputc.obj
 0001:00011e64       _fputchar                  0000000180012e64 f   libucrt:fputc.obj
 0001:00011e88       fputc                      0000000180012e88 f   libucrt:fputc.obj
 0001:00011fa8       putchar                    0000000180012fa8 f   libucrt:fputc.obj
 0001:00011fb0       __acrt_errno_from_os_error 0000000180012fb0 f   libucrt:errno.obj
 0001:00011ff8       __acrt_errno_map_os_error  0000000180012ff8 f   libucrt:errno.obj
 0001:00012048       __doserrno                 0000000180013048 f   libucrt:errno.obj
 0001:00012068       _errno                     0000000180013068 f   libucrt:errno.obj
 0001:00012088       ??$?RV<lambda_a81aa23bb2c9577c1e55b9d0b57d9de4>@@AEAV<lambda_9a20e10065b92b5193c3597a66cba9d4>@@V<lambda_cb3a421ff86d8a5f008440ee6b28fa9c>@@@?$__crt_seh_guarded_call@H@@QEAAH$$QEAV<lambda_a81aa23bb2c9577c1e55b9d0b57d9de4>@@AEAV<lambda_9a20e10065b92b5193c3597a66cba9d4>@@$$QEAV<lambda_cb3a421ff86d8a5f008440ee6b28fa9c>@@@Z 0000000180013088 f i libucrt:fputs.obj
 0001:00012134       fputs                      0000000180013134 f   libucrt:fputs.obj
 0001:00012234       free                       0000000180013234 f   libucrt:free.obj
 0001:0001223c       _fread_nolock_s            000000018001323c f   libucrt:fread.obj
 0001:000124bc       fread                      00000001800134bc f   libucrt:fread.obj
 0001:000124dc       fread_s                    00000001800134dc f   libucrt:fread.obj
 0001:00012f6c       ??$ftprintf@PEAU_iobuf@@PEB_WAEBQEB_WAEBQEB_WAEBI@?$__crt_char_traits@_W@@SAH$$QEAPEAU_iobuf@@$$QEAPEB_WAEBQEB_W2AEBI@Z 0000000180013f6c f i libucrt:assert.obj
 0001:00012f94       _wassert                   0000000180013f94 f   libucrt:assert.obj
 0001:00013018       fwprintf                   0000000180014018 f i libucrt:assert.obj
 0001:0001305c       swprintf                   000000018001405c f i libucrt:assert.obj
 0001:000130b0       strerror                   00000001800140b0 f   libucrt:strerror.obj
 0001:00013154       malloc                     0000000180014154 f   libucrt:malloc.obj
 0001:0001315c       __ascii_stricmp            000000018001415c f   libucrt:stricmp.obj
 0001:00013198       _stricmp                   0000000180014198 f   libucrt:stricmp.obj
 0001:000131e0       _stricmp_l                 00000001800141e0 f   libucrt:stricmp.obj
 0001:00013294       __acrt_initialize_new_handler 0000000180014294 f   libucrt:new_handler.obj
 0001:0001329c       _callnewh                  000000018001429c f   libucrt:new_handler.obj
 0001:000132dc       _query_new_handler         00000001800142dc f   libucrt:new_handler.obj
 0001:00013310       _seh_filter_dll            0000000180014310 f   libucrt:exception_filter.obj
 0001:00013324       _seh_filter_exe            0000000180014324 f   libucrt:exception_filter.obj
 0001:000136e4       __acrt_initialize_thread_local_exit_callback 00000001800146e4 f   libucrt:exit.obj
 0001:000136ec       _cexit                     00000001800146ec f   libucrt:exit.obj
 0001:000136fc       _exit                      00000001800146fc f   libucrt:exit.obj
 0001:00013708       _is_c_termination_complete 0000000180014708 f   libucrt:exit.obj
 0001:000138f4       __dcrt_uninitialize_environments_nolock 00000001800148f4 f   libucrt:environment_initialization.obj
 0001:0001392c       _initialize_narrow_environment 000000018001492c f   libucrt:environment_initialization.obj
 0001:00013934       ??$?RV<lambda_b8c45f8f788dd370798f47cfe8ac3a86>@@AEAV<lambda_4e60a939b0d047cfe11ddc22648dfba9>@@V<lambda_332c3edc96d0294ec56c57d38c1cdfd5>@@@?$__crt_seh_guarded_call@H@@QEAAH$$QEAV<lambda_b8c45f8f788dd370798f47cfe8ac3a86>@@AEAV<lambda_4e60a939b0d047cfe11ddc22648dfba9>@@$$QEAV<lambda_332c3edc96d0294ec56c57d38c1cdfd5>@@@Z 0000000180014934 f i libucrt:onexit.obj
 0001:00013970       ??$?RV<lambda_e24bbb7b643b32fcea6fa61b31d4c984>@@AEAV<lambda_275893d493268fdec8709772e3fcec0e>@@V<lambda_9d71df4d7cf3f480f8d633942495c3b0>@@@?$__crt_seh_guarded_call@H@@QEAAH$$QEAV<lambda_e24bbb7b643b32fcea6fa61b31d4c984>@@AEAV<lambda_275893d493268fdec8709772e3fcec0e>@@$$QEAV<lambda_9d71df4d7cf3f480f8d633942495c3b0>@@@Z 0000000180014970 f i libucrt:onexit.obj
 0001:00013cec       _crt_atexit                0000000180014cec f   libucrt:onexit.obj
 0001:00013cfc       _execute_onexit_table      0000000180014cfc f   libucrt:onexit.obj
 0001:00013d38       _initialize_onexit_table   0000000180014d38 f   libucrt:onexit.obj
 0001:00013d78       _register_onexit_function  0000000180014d78 f   libucrt:onexit.obj
 0001:00013e08       __acrt_uninitialize_command_line 0000000180014e08 f   libucrt:argv_data.obj
 0001:00013ef8       __acrt_initialize          0000000180014ef8 f   libucrt:initialization.obj
 0001:00013f0c       __acrt_thread_attach       0000000180014f0c f   libucrt:initialization.obj
 0001:00013f20       __acrt_thread_detach       0000000180014f20 f   libucrt:initialization.obj
 0001:00013f30       __acrt_uninitialize        0000000180014f30 f   libucrt:initialization.obj
 0001:00013f44       __acrt_uninitialize_critical 0000000180014f44 f   libucrt:initialization.obj
 0001:00013f54       _initterm                  0000000180014f54 f   libucrt:initterm.obj
 0001:00013fcc       _initterm_e                0000000180014fcc f   libucrt:initterm.obj
 0001:00014018       terminate                  0000000180015018 f   libucrt:terminate.obj
 0001:00014040       abort                      0000000180015040 f   libucrt:abort.obj
 0001:00014098       strcpy_s                   0000000180015098 f   libucrt:strcpy_s.obj
 0001:000140f8       _free_base                 00000001800150f8 f   libucrt:free_base.obj
 0001:00014138       _malloc_base               0000000180015138 f   libucrt:malloc_base.obj
 0001:00014198       _calloc_base               0000000180015198 f   libucrt:calloc_base.obj
 0001:00014210       ??$is_overflow_condition@K@__crt_strtox@@YA_NIK@Z 0000000180015210 f i libucrt:atox.obj
 0001:0001423c       ??$parse_integer@KV?$c_string_character_source@D@__crt_strtox@@@__crt_strtox@@YAKQEAU__crt_locale_pointers@@V?$c_string_character_source@D@0@H_N@Z 000000018001523c f i libucrt:atox.obj
 0001:00014550       ??$parse_integer@KV?$c_string_character_source@_W@__crt_strtox@@@__crt_strtox@@YAKQEAU__crt_locale_pointers@@V?$c_string_character_source@_W@0@H_N@Z 0000000180015550 f i libucrt:atox.obj
 0001:00014c24       __acrt_call_reportfault    0000000180015c24 f   libucrt:invalid_parameter.obj
 0001:00014d80       __acrt_initialize_invalid_parameter_handler 0000000180015d80 f   libucrt:invalid_parameter.obj
 0001:00014d88       _invalid_parameter         0000000180015d88 f   libucrt:invalid_parameter.obj
 0001:00014e30       _invalid_parameter_noinfo  0000000180015e30 f   libucrt:invalid_parameter.obj
 0001:00014e50       _invoke_watson             0000000180015e50 f   libucrt:invalid_parameter.obj
 0001:0001523c       _lseek                     000000018001623c f   libucrt:lseek.obj
 0001:00015244       _lseeki64                  0000000180016244 f   libucrt:lseek.obj
 0001:0001524c       _lseeki64_nolock           000000018001624c f   libucrt:lseek.obj
 0001:00015254       _fileno                    0000000180016254 f   libucrt:fileno.obj
 0001:000157ac       _read                      00000001800167ac f   libucrt:read.obj
 0001:000158c4       _read_nolock               00000001800168c4 f   libucrt:read.obj
 0001:00015f14       __acrt_initialize_lowio    0000000180016f14 f   libucrt:ioinit.obj
 0001:00015f50       __acrt_uninitialize_lowio  0000000180016f50 f   libucrt:ioinit.obj
 0001:00015f90       ?__acrt_stdio_allocate_stream@@YA?AV__crt_stdio_stream@@XZ 0000000180016f90 f   libucrt:stream.obj
 0001:00015fec       ?__acrt_stdio_free_stream@@YAXV__crt_stdio_stream@@@Z 0000000180016fec f   libucrt:stream.obj
 0001:0001611c       ??$__acrt_stdio_parse_mode@D@@YA?AU__acrt_stdio_stream_mode@@QEBD@Z 000000018001711c f i libucrt:openfile.obj
 0001:000163b8       _openfile                  00000001800173b8 f   libucrt:openfile.obj
 0001:000165f4       __acrt_AreFileApisANSI     00000001800175f4 f   libucrt:winapi_thunks.obj
 0001:00016640       __acrt_FlsAlloc            0000000180017640 f   libucrt:winapi_thunks.obj
 0001:00016698       __acrt_FlsFree             0000000180017698 f   libucrt:winapi_thunks.obj
 0001:000166f0       __acrt_FlsGetValue         00000001800176f0 f   libucrt:winapi_thunks.obj
 0001:00016748       __acrt_FlsSetValue         0000000180017748 f   libucrt:winapi_thunks.obj
 0001:000167b0       __acrt_InitializeCriticalSectionEx 00000001800177b0 f   libucrt:winapi_thunks.obj
 0001:00016828       __acrt_LCMapStringEx       0000000180017828 f   libucrt:winapi_thunks.obj
 0001:00016918       __acrt_LocaleNameToLCID    0000000180017918 f   libucrt:winapi_thunks.obj
 0001:00016980       __acrt_MessageBoxW         0000000180017980 f   libucrt:winapi_thunks.obj
 0001:00016a08       __acrt_can_show_message_box 0000000180017a08 f   libucrt:winapi_thunks.obj
 0001:00016a64       __acrt_get_parent_window   0000000180017a64 f   libucrt:winapi_thunks.obj
 0001:00016af4       __acrt_initialize_winapi_thunks 0000000180017af4 f   libucrt:winapi_thunks.obj
 0001:00016b2c       __acrt_is_interactive      0000000180017b2c f   libucrt:winapi_thunks.obj
 0001:00016c00       __acrt_is_packaged_app     0000000180017c00 f   libucrt:winapi_thunks.obj
 0001:00016c88       __acrt_uninitialize_winapi_thunks 0000000180017c88 f   libucrt:winapi_thunks.obj
 0001:00016ccc       _fcloseall                 0000000180017ccc f   libucrt:closeall.obj
 0001:00016d80       __acrt_stdio_free_buffer_nolock 0000000180017d80 f   libucrt:_freebuf.obj
 0001:00016dc0       __acrt_initialize_locks    0000000180017dc0 f   libucrt:locks.obj
 0001:00016e08       __acrt_lock                0000000180017e08 f   libucrt:locks.obj
 0001:00016e24       __acrt_uninitialize_locks  0000000180017e24 f   libucrt:locks.obj
 0001:00016e5c       __acrt_unlock              0000000180017e5c f   libucrt:locks.obj
 0001:00016e78       ??$?RV<lambda_b521505b218e5242e90febf6bfebc422>@@AEAV<lambda_6978c1fb23f02e42e1d9e99668cc68aa>@@V<lambda_314360699dd331753a4119843814e9a7>@@@?$__crt_seh_guarded_call@H@@QEAAH$$QEAV<lambda_b521505b218e5242e90febf6bfebc422>@@AEAV<lambda_6978c1fb23f02e42e1d9e99668cc68aa>@@$$QEAV<lambda_314360699dd331753a4119843814e9a7>@@@Z 0000000180017e78 f i libucrt:commit.obj
 0001:00016f04       _commit                    0000000180017f04 f   libucrt:commit.obj
 0001:00017538       _write                     0000000180018538 f   libucrt:write.obj
 0001:00017624       _write_nolock              0000000180018624 f   libucrt:write.obj
 0001:00017908       ??$?RV<lambda_bfedae4ebbf01fab1bb6dcc6a9e276e0>@@AEAV<lambda_2fe9b910cf3cbf4a0ab98a02ba45b3ec>@@V<lambda_237c231691f317818eb88cc1d5d642d6>@@@?$__crt_seh_guarded_call@H@@QEAAH$$QEAV<lambda_bfedae4ebbf01fab1bb6dcc6a9e276e0>@@AEAV<lambda_2fe9b910cf3cbf4a0ab98a02ba45b3ec>@@$$QEAV<lambda_237c231691f317818eb88cc1d5d642d6>@@@Z 0000000180018908 f i libucrt:close.obj
 0001:0001797c       _close                     000000018001897c f   libucrt:close.obj
 0001:00017a20       _close_nolock              0000000180018a20 f   libucrt:close.obj
 0001:00017adc       isdigit                    0000000180018adc f i libucrt:_ctype.obj
 0001:00017ba0       _tolower_l                 0000000180018ba0 f   libucrt:tolower_toupper.obj
 0001:00017ce0       tolower                    0000000180018ce0 f   libucrt:tolower_toupper.obj
 0001:00017d0c       ??$make_c_string_character_source@DPEAPEAD@__crt_strtox@@YA?AV?$c_string_character_source@D@0@QEBDQEAPEAD@Z 0000000180018d0c f i libucrt:strtox.obj
 0001:00017d0c       ??$make_c_string_character_source@_WPEAPEA_W@__crt_strtox@@YA?AV?$c_string_character_source@_W@0@QEB_WQEAPEA_W@Z 0000000180018d0c f i libucrt:strtox.obj
 0001:00017d20       strtol                     0000000180018d20 f   libucrt:strtox.obj
 0001:00017d50       wcstol                     0000000180018d50 f   libucrt:strtox.obj
 0001:00017d80       _mbtowc_l                  0000000180018d80 f   libucrt:mbtowc.obj
 0001:00017ec8       mbtowc                     0000000180018ec8 f   libucrt:mbtowc.obj
 0001:00017ed0       _wctomb_s_l                0000000180018ed0 f   libucrt:wctomb.obj
 0001:00018054       wctomb_s                   0000000180019054 f   libucrt:wctomb.obj
 0001:00018068       strnlen                    0000000180019068 f   libucrt:strnlen.obj
 0001:000181c4       wcsnlen                    00000001800191c4 f   libucrt:strnlen.obj
 0001:000183b4       ??$?RV<lambda_46352004c1216016012b18bd6f87e700>@@AEAV<lambda_3bd07e1a1191394380780325891bf33f>@@V<lambda_334532d3f185bcaa59b5be82d7d22bff>@@@?$__crt_seh_guarded_call@X@@QEAAX$$QEAV<lambda_46352004c1216016012b18bd6f87e700>@@AEAV<lambda_3bd07e1a1191394380780325891bf33f>@@$$QEAV<lambda_334532d3f185bcaa59b5be82d7d22bff>@@@Z 00000001800193b4 f i libucrt:per_thread_data.obj
 0001:00018414       ??$?RV<lambda_5e887d1dcbef67a5eb4283622ba103bf>@@AEAV<lambda_4466841279450cc726390878d4a41900>@@V<lambda_341c25c0346d94847f1f3c463c57e077>@@@?$__crt_seh_guarded_call@X@@QEAAX$$QEAV<lambda_5e887d1dcbef67a5eb4283622ba103bf>@@AEAV<lambda_4466841279450cc726390878d4a41900>@@$$QEAV<lambda_341c25c0346d94847f1f3c463c57e077>@@@Z 0000000180019414 f i libucrt:per_thread_data.obj
 0001:0001845c       ??$?RV<lambda_72d1df2b273a38828b1ce30cbf4cdab5>@@AEAV<lambda_876a65b173b8412d3a47c70a915b0cf4>@@V<lambda_41932305e351933ebe8f8be3ed8bb5dc>@@@?$__crt_seh_guarded_call@X@@QEAAX$$QEAV<lambda_72d1df2b273a38828b1ce30cbf4cdab5>@@AEAV<lambda_876a65b173b8412d3a47c70a915b0cf4>@@$$QEAV<lambda_41932305e351933ebe8f8be3ed8bb5dc>@@@Z 000000018001945c f i libucrt:per_thread_data.obj
 0001:0001849c       ??$?RV<lambda_fb3a7dec4e47f37f22dae91bb15c9095>@@AEAV<lambda_698284760c8add0bfb0756c19673e34b>@@V<lambda_dfb8eca1e75fef3034a8fb18dd509707>@@@?$__crt_seh_guarded_call@X@@QEAAX$$QEAV<lambda_fb3a7dec4e47f37f22dae91bb15c9095>@@AEAV<lambda_698284760c8add0bfb0756c19673e34b>@@$$QEAV<lambda_dfb8eca1e75fef3034a8fb18dd509707>@@@Z 000000018001949c f i libucrt:per_thread_data.obj
 0001:0001872c       __acrt_freeptd             000000018001972c f   libucrt:per_thread_data.obj
 0001:00018770       __acrt_getptd              0000000180019770 f   libucrt:per_thread_data.obj
 0001:00018804       __acrt_getptd_noexit       0000000180019804 f   libucrt:per_thread_data.obj
 0001:000188a4       __acrt_initialize_ptd      00000001800198a4 f   libucrt:per_thread_data.obj
 0001:000188e0       __acrt_uninitialize_ptd    00000001800198e0 f   libucrt:per_thread_data.obj
 0001:00018904       __acrt_update_locale_info  0000000180019904 f   libucrt:locale_update.obj
 0001:00018938       __acrt_update_multibyte_info 0000000180019938 f   libucrt:locale_update.obj
 0001:0001896c       ?__acrt_fp_classify@@YA?AW4__acrt_fp_class@@AEBN@Z 000000018001996c f i libucrt:cvt.obj
 0001:000193a4       __acrt_fp_format           000000018001a3a4 f   libucrt:cvt.obj
 0001:000195e8       _fputwc_nolock             000000018001a5e8 f   libucrt:fputwc.obj
 0001:00019764       _get_printf_count_output   000000018001a764 f   libucrt:printf_count_output.obj
 0001:0001977c       __acrt_stdio_begin_temporary_buffering_nolock 000000018001a77c f   libucrt:_sftbuf.obj
 0001:0001984c       __acrt_stdio_end_temporary_buffering_nolock 000000018001a84c f   libucrt:_sftbuf.obj
 0001:00019888       __acrt_set_locale_changed  000000018001a888 f   libucrt:wsetlocale.obj
 0001:00019894       __acrt_uninitialize_locale 000000018001a894 f   libucrt:wsetlocale.obj
 0001:00019aec       __acrt_stdio_flush_and_write_narrow_nolock 000000018001aaec f   libucrt:_flsbuf.obj
 0001:00019bd4       __acrt_stdio_flush_and_write_wide_nolock 000000018001abd4 f   libucrt:_flsbuf.obj
 0001:00019cc0       _fwrite_nolock             000000018001acc0 f   libucrt:fwrite.obj
 0001:0001a004       __acrt_stdio_refill_and_read_narrow_nolock 000000018001b004 f   libucrt:_filbuf.obj
 0001:0001a00c       _query_app_type            000000018001b00c f   libucrt:report_runtime_error.obj
 0001:0001a13c       _itow_s                    000000018001b13c f   libucrt:xtoa.obj
 0001:0001a15c       _set_error_mode            000000018001b15c f   libucrt:set_error_mode.obj
 0001:0001a19c       wcscat_s                   000000018001b19c f   libucrt:wcscat_s.obj
 0001:0001a21c       wcscpy_s                   000000018001b21c f   libucrt:wcscpy_s.obj
 0001:0001a284       wcsncat_s                  000000018001b284 f   libucrt:wcsncat_s.obj
 0001:0001a3ac       __acrt_show_wide_message_box 000000018001b3ac f   libucrt:crtmbox.obj
 0001:0001a4c8       ??$?RV<lambda_7a5ef57ff966f610505f1d28a3d40618>@@AEAV<lambda_b721fa326cdb32351d23dfa67958c160>@@V<lambda_5e0fb27672408a07956fe59e48ccb2aa>@@@?$__crt_seh_guarded_call@H@@QEAAH$$QEAV<lambda_7a5ef57ff966f610505f1d28a3d40618>@@AEAV<lambda_b721fa326cdb32351d23dfa67958c160>@@$$QEAV<lambda_5e0fb27672408a07956fe59e48ccb2aa>@@@Z 000000018001b4c8 f i libucrt:setvbuf.obj
 0001:0001a5f8       setvbuf                    000000018001b5f8 f   libucrt:setvbuf.obj
 0001:0001a698       ??$?RV<lambda_c36588078e9f5dfd39652860aa6b3aaf>@@AEAV<lambda_ec61778202f4f5fc7e7711acc23c3bca>@@V<lambda_dc9d2797ccde5d239b4a0efae8ebd7db>@@@?$__crt_seh_guarded_call@P6AXH@Z@@QEAAP6AXH@Z$$QEAV<lambda_c36588078e9f5dfd39652860aa6b3aaf>@@AEAV<lambda_ec61778202f4f5fc7e7711acc23c3bca>@@$$QEAV<lambda_dc9d2797ccde5d239b4a0efae8ebd7db>@@@Z 000000018001b698 f i libucrt:signal.obj
 0001:0001a6e0       __acrt_get_sigabrt_handler 000000018001b6e0 f   libucrt:signal.obj
 0001:0001a710       __acrt_initialize_signal_handlers 000000018001b710 f   libucrt:signal.obj
 0001:0001a730       raise                      000000018001b730 f   libucrt:signal.obj
 0001:0001a9cc       __sys_errlist              000000018001b9cc f   libucrt:syserr.obj
 0001:0001a9d4       __sys_nerr                 000000018001b9d4 f   libucrt:syserr.obj
 0001:0001a9dc       strncpy_s                  000000018001b9dc f   libucrt:strncpy_s.obj
 0001:0001aab0       ??$?RV<lambda_99476a1ad63dd22509b5d3e65b0ffc95>@@AEAV<lambda_ad1ced32f4ac17aa236e5ef05d6b3b7c>@@V<lambda_f7424dd8d45958661754dc4f2697e9c3>@@@?$__crt_seh_guarded_call@X@@QEAAX$$QEAV<lambda_99476a1ad63dd22509b5d3e65b0ffc95>@@AEAV<lambda_ad1ced32f4ac17aa236e5ef05d6b3b7c>@@$$QEAV<lambda_f7424dd8d45958661754dc4f2697e9c3>@@@Z 000000018001bab0 f i libucrt:mbctype.obj
 0001:0001b1ac       __acrt_initialize_multibyte 000000018001c1ac f   libucrt:mbctype.obj
 0001:0001b1d4       __acrt_update_thread_multibyte_data 000000018001c1d4 f   libucrt:mbctype.obj
 0001:0001b294       _setmbcp_nolock            000000018001c294 f   libucrt:mbctype.obj
 0001:0001b53c       __dcrt_get_narrow_environment_from_os 000000018001c53c f   libucrt:get_environment_from_os.obj
 0001:0001b640       _recalloc                  000000018001c640 f   libucrt:recalloc.obj
 0001:0001b648       _recalloc_base             000000018001c648 f   libucrt:recalloc.obj
 0001:0001b6e0       __acrt_initialize_heap     000000018001c6e0 f   libucrt:heap_handle.obj
 0001:0001b6fc       __acrt_uninitialize_heap   000000018001c6fc f   libucrt:heap_handle.obj
 0001:0001b708       __acrt_initialize_command_line 000000018001c708 f   libucrt:argv_data.obj
 0001:0001b730       __acrt_execute_initializers 000000018001c730 f   libucrt:shared_initialization.obj
 0001:0001b7c4       __acrt_execute_uninitializers 000000018001c7c4 f   libucrt:shared_initialization.obj
 0001:0001b814       __acrt_has_user_matherr    000000018001c814 f   libucrt:matherr.obj
 0001:0001b834       __acrt_initialize_user_matherr 000000018001c834 f   libucrt:matherr.obj
 0001:0001b83c       __acrt_invoke_user_matherr 000000018001c83c f   libucrt:matherr.obj
 0001:0001b884       _query_new_mode            000000018001c884 f   libucrt:new_mode.obj
 0001:0001b88c       __pctype_func              000000018001c88c f   libucrt:ctype.obj
 0001:0001b8bc       iswctype                   000000018001c8bc f   libucrt:iswctype.obj
 0001:0001b92c       _isctype_l                 000000018001c92c f   libucrt:isctype.obj
 0001:0001ba3c       __acrt_lowio_create_handle_array 000000018001ca3c f   libucrt:osfinfo.obj
 0001:0001bad4       __acrt_lowio_destroy_handle_array 000000018001cad4 f   libucrt:osfinfo.obj
 0001:0001bb24       __acrt_lowio_ensure_fh_exists 000000018001cb24 f   libucrt:osfinfo.obj
 0001:0001bbdc       __acrt_lowio_lock_fh       000000018001cbdc f   libucrt:osfinfo.obj
 0001:0001bc00       __acrt_lowio_set_os_handle 000000018001cc00 f   libucrt:osfinfo.obj
 0001:0001bcc0       __acrt_lowio_unlock_fh     000000018001ccc0 f   libucrt:osfinfo.obj
 0001:0001bce4       _alloc_osfhnd              000000018001cce4 f   libucrt:osfinfo.obj
 0001:0001be14       _free_osfhnd               000000018001ce14 f   libucrt:osfinfo.obj
 0001:0001bed0       _get_osfhandle             000000018001ced0 f   libucrt:osfinfo.obj
 0001:0001bf48       _isatty                    000000018001cf48 f   libucrt:isatty.obj
 0001:0001bfc0       strncmp                    000000018001cfc0 f   libucrt:strncmp.obj
 0001:0001c040       __ascii_strnicmp           000000018001d040 f   libucrt:strnicmp.obj
 0001:0001c088       _strnicmp                  000000018001d088 f   libucrt:strnicmp.obj
 0001:0001c0d8       _strnicmp_l                000000018001d0d8 f   libucrt:strnicmp.obj
 0001:0001c7f8       _sopen_nolock              000000018001d7f8 f   libucrt:open.obj
 0001:0001c888       _sopen_s                   000000018001d888 f   libucrt:open.obj
 0001:0001c8bc       _wsopen_nolock             000000018001d8bc f   libucrt:open.obj
 0001:0001cd74       __acrt_DownlevelLocaleNameToLCID 000000018001dd74 f   libucrt:lcidtoname_downlevel.obj
 0001:0001cda8       _putwch_nolock             000000018001dda8 f   libucrt:putwch.obj
 0001:0001ce04       _isleadbyte_l              000000018001de04 f i libucrt:_wctype.obj
 0001:0001d1a0       __acrt_LCMapStringA        000000018001e1a0 f   libucrt:lcmapstringa.obj
 0001:0001d238       __acrt_add_locale_ref      000000018001e238 f   libucrt:locale_refcounting.obj
 0001:0001d2c4       __acrt_free_locale         000000018001e2c4 f   libucrt:locale_refcounting.obj
 0001:0001d43c       __acrt_locale_add_lc_time_reference 000000018001e43c f   libucrt:locale_refcounting.obj
 0001:0001d464       __acrt_locale_free_lc_time_if_unreferenced 000000018001e464 f   libucrt:locale_refcounting.obj
 0001:0001d49c       __acrt_locale_release_lc_time_reference 000000018001e49c f   libucrt:locale_refcounting.obj
 0001:0001d4c4       __acrt_release_locale_ref  000000018001e4c4 f   libucrt:locale_refcounting.obj
 0001:0001d56c       __acrt_update_thread_locale_data 000000018001e56c f   libucrt:locale_refcounting.obj
 0001:0001d5dc       _updatetlocinfoEx_nolock   000000018001e5dc f   libucrt:locale_refcounting.obj
 0001:0001d644       __acrt_fp_strflt_to_string 000000018001e644 f   libucrt:_fptostr.obj
 0001:0001d710       ?divide@__crt_strtox@@YA_KAEAUbig_integer@1@AEBU21@@Z 000000018001e710 f i libucrt:cfout.obj
 0001:0001dbe0       __acrt_fltout              000000018001ebe0 f   libucrt:cfout.obj
 0001:0001efd4       __acrt_locale_free_monetary 000000018001ffd4 f   libucrt:initmon.obj
 0001:0001f0e0       __acrt_locale_free_numeric 00000001800200e0 f   libucrt:initnum.obj
 0001:0001f1a4       __acrt_locale_free_time    00000001800201a4 f   libucrt:inittime.obj
 0001:0001f2ac       __acrt_GetStringTypeA      00000001800202ac f   libucrt:getstringtypea.obj
 0001:0001f460       __acrt_stdio_allocate_buffer_nolock 0000000180020460 f   libucrt:_getbuf.obj
 0001:0001f4dc       _msize                     00000001800204dc f   libucrt:msize.obj
 0001:0001f518       _realloc_base              0000000180020518 f   libucrt:realloc_base.obj
 0001:0001f59c       _get_fmode                 000000018002059c f   libucrt:setmode.obj
 0001:0001f5cc       _setmode_nolock            00000001800205cc f   libucrt:setmode.obj
 0001:0001f6ac       __acrt_copy_path_to_wide_string 00000001800206ac f   libucrt:string_utilities.obj
 0001:0001f7a4       _chsize_nolock             00000001800207a4 f   libucrt:chsize.obj
 0001:0001f920       __dcrt_lowio_initialize_console_output 0000000180020920 f   libucrt:initcon.obj
 0001:0001f95c       __dcrt_terminate_console_output 000000018002095c f   libucrt:initcon.obj
 0001:0001f97c       __strncnt                  000000018002097c f   libucrt:strncnt.obj
 0001:0001f994       fegetenv                   0000000180020994 f   libucrt:fegetenv.obj
 0001:0001f9b4       fesetenv                   00000001800209b4 f   libucrt:fesetenv.obj
 0001:0001fa00       feholdexcept               0000000180020a00 f   libucrt:feholdexcept.obj
 0001:0001fa50       ceil                       0000000180020a50 f   libucrt:ceil.obj
 0001:0001fb20       log10                      0000000180020b20 f   libucrt:log10.obj
 0001:000200cc       _getfpcontrolword          00000001800210cc f   libucrt:_fenvutils.obj
 0001:000200e4       _getfpstatusword           00000001800210e4 f   libucrt:_fenvutils.obj
 0001:000200f8       _setfpcontrolword          00000001800210f8 f   libucrt:_fenvutils.obj
 0001:00020104       _setfpstatusword           0000000180021104 f   libucrt:_fenvutils.obj
 0001:00020154       _clearfp                   0000000180021154 f   libucrt:ieee.obj
 0001:000201a8       _controlfp                 00000001800211a8 f   libucrt:ieee.obj
 0001:000201b4       _statusfp                  00000001800211b4 f   libucrt:ieee.obj
 0001:000205b8       _handle_error              00000001800215b8 f   libucrt:libm_error.obj
 0001:000206e0       _handle_nan                00000001800216e0 f   libucrt:libm_error.obj
 0001:00020700       __acrt_initialize_fma3     0000000180021700 f   libucrt:fma3_available.obj
 0001:00020770       _log10_special             0000000180021770 f   libucrt:log_special.obj
 0001:00020840       _get_fpsr                  0000000180021840 f   libucrt:fpsr.obj
 0001:00020850       _set_fpsr                  0000000180021850 f   libucrt:fpsr.obj
 0001:0002085a       _fclrf                     000000018002185a f   libucrt:fpsr.obj
 0001:0002086e       _frnd                      000000018002186e f   libucrt:fpsr.obj
 0001:00020890       _raise_exc                 0000000180021890 f   libucrt:fpexcept.obj
 0001:000208b8       _raise_exc_ex              00000001800218b8 f   libucrt:fpexcept.obj
 0001:00020bc0       _set_errno_from_matherr    0000000180021bc0 f   libucrt:fpexcept.obj
 0001:00020bf0       _clrfp                     0000000180021bf0 f   libucrt:fpctrl.obj
 0001:00020c10       _ctrlfp                    0000000180021c10 f   libucrt:fpctrl.obj
 0001:00020c8c       _set_statfp                0000000180021c8c f   libucrt:fpctrl.obj
 0001:00020cac       _statfp                    0000000180021cac f   libucrt:fpctrl.obj
 0001:00020cbe       IsProcessorFeaturePresent  0000000180021cbe f   kernel32:KERNEL32.dll
 0001:00020cc4       RtlUnwindEx                0000000180021cc4 f   kernel32:KERNEL32.dll
 0001:00020cca       SystemFunction036          0000000180021cca f   advapi32:ADVAPI32.dll
 0001:00020cd0       ?DloadAcquireSectionWriteAccess@@YAXXZ 0000000180021cd0 f i DelayImp:delayhlp.obj
 0001:00020d8c       ?DloadGetSRWLockFunctionPointers@@YAEXZ 0000000180021d8c f i DelayImp:delayhlp.obj
 0001:00020e28       ?DloadMakePermanentImageCommit@@YAXPEAX_K@Z 0000000180021e28 f i DelayImp:delayhlp.obj
 0001:00020ec0       ?DloadObtainSection@@YAPEAXPEAK0@Z 0000000180021ec0 f i DelayImp:delayhlp.obj
 0001:00020f58       ?DloadProtectSection@@YAXKPEAK@Z 0000000180021f58 f i DelayImp:delayhlp.obj
 0001:00020fe8       ?DloadReleaseSectionWriteAccess@@YAXXZ 0000000180021fe8 f i DelayImp:delayhlp.obj
 0001:0002108c       __delayLoadHelper2         000000018002208c f   DelayImp:delayhlp.obj
 0001:000213a0       _FindPESection             00000001800223a0 f   LIBCMT:pesect.obj
 0001:000213f0       _IsNonwritableInCurrentImage 00000001800223f0 f   LIBCMT:pesect.obj
 0001:00021440       _ValidateImageBase         0000000180022440 f   LIBCMT:pesect.obj
 0001:00021470       __GSHandlerCheck           0000000180022470 f   LIBCMT:_gshandler_.obj
 0001:00021490       __GSHandlerCheckCommon     0000000180022490 f   LIBCMT:_gshandler_.obj
 0001:00021500       _alloca_probe              0000000180022500 f   LIBCMT:_chkstk_.obj
 0001:00021500       __chkstk                   0000000180022500 f   LIBCMT:_chkstk_.obj
 0001:00021570       memmove                    0000000180022570 f   libvcruntime:memcpy.obj
 0001:00021570       memcpy                     0000000180022570 f   libvcruntime:memcpy.obj
 0001:000219a8       strrchr                    00000001800229a8 f   libvcruntime:strrchr.obj
 0001:00021b00       memcmp                     0000000180022b00 f   libvcruntime:memcmp.obj
 0001:00021be0       _guard_dispatch_icall_nop  0000000180022be0 f   LIBCMT:_guard_dispatch_.obj
 0002:00000000       __imp_SystemFunction036    0000000180023000     advapi32:ADVAPI32.dll
 0002:00000008       \177ADVAPI32_NULL_THUNK_DATA 0000000180023008     advapi32:ADVAPI32.dll
 0002:00000010       __imp_RtlCaptureContext    0000000180023010     kernel32:KERNEL32.dll
 0002:00000018       __imp_RtlLookupFunctionEntry 0000000180023018     kernel32:KERNEL32.dll
 0002:00000020       __imp_RtlVirtualUnwind     0000000180023020     kernel32:KERNEL32.dll
 0002:00000028       __imp_UnhandledExceptionFilter 0000000180023028     kernel32:KERNEL32.dll
 0002:00000030       __imp_SetUnhandledExceptionFilter 0000000180023030     kernel32:KERNEL32.dll
 0002:00000038       __imp_GetCurrentProcess    0000000180023038     kernel32:KERNEL32.dll
 0002:00000040       __imp_TerminateProcess     0000000180023040     kernel32:KERNEL32.dll
 0002:00000048       __imp_IsProcessorFeaturePresent 0000000180023048     kernel32:KERNEL32.dll
 0002:00000050       __imp_IsDebuggerPresent    0000000180023050     kernel32:KERNEL32.dll
 0002:00000058       __imp_GetStartupInfoW      0000000180023058     kernel32:KERNEL32.dll
 0002:00000060       __imp_GetModuleHandleW     0000000180023060     kernel32:KERNEL32.dll
 0002:00000068       __imp_QueryPerformanceCounter 0000000180023068     kernel32:KERNEL32.dll
 0002:00000070       __imp_GetCurrentProcessId  0000000180023070     kernel32:KERNEL32.dll
 0002:00000078       __imp_GetCurrentThreadId   0000000180023078     kernel32:KERNEL32.dll
 0002:00000080       __imp_GetSystemTimeAsFileTime 0000000180023080     kernel32:KERNEL32.dll
 0002:00000088       __imp_InitializeSListHead  0000000180023088     kernel32:KERNEL32.dll
 0002:00000090       __imp_RtlUnwindEx          0000000180023090     kernel32:KERNEL32.dll
 0002:00000098       __imp_GetLastError         0000000180023098     kernel32:KERNEL32.dll
 0002:000000a0       __imp_GetModuleFileNameW   00000001800230a0     kernel32:KERNEL32.dll
 0002:000000a8       __imp_RtlPcToFileHeader    00000001800230a8     kernel32:KERNEL32.dll
 0002:000000b0       __imp_RaiseException       00000001800230b0     kernel32:KERNEL32.dll
 0002:000000b8       __imp_InterlockedFlushSList 00000001800230b8     kernel32:KERNEL32.dll
 0002:000000c0       __imp_SetLastError         00000001800230c0     kernel32:KERNEL32.dll
 0002:000000c8       __imp_EnterCriticalSection 00000001800230c8     kernel32:KERNEL32.dll
 0002:000000d0       __imp_LeaveCriticalSection 00000001800230d0     kernel32:KERNEL32.dll
 0002:000000d8       __imp_DeleteCriticalSection 00000001800230d8     kernel32:KERNEL32.dll
 0002:000000e0       __imp_InitializeCriticalSectionAndSpinCount 00000001800230e0     kernel32:KERNEL32.dll
 0002:000000e8       __imp_TlsAlloc             00000001800230e8     kernel32:KERNEL32.dll
 0002:000000f0       __imp_TlsGetValue          00000001800230f0     kernel32:KERNEL32.dll
 0002:000000f8       __imp_TlsSetValue          00000001800230f8     kernel32:KERNEL32.dll
 0002:00000100       __imp_TlsFree              0000000180023100     kernel32:KERNEL32.dll
 0002:00000108       __imp_FreeLibrary          0000000180023108     kernel32:KERNEL32.dll
 0002:00000110       __imp_GetProcAddress       0000000180023110     kernel32:KERNEL32.dll
 0002:00000118       __imp_LoadLibraryExW       0000000180023118     kernel32:KERNEL32.dll
 0002:00000120       __imp_ReadFile             0000000180023120     kernel32:KERNEL32.dll
 0002:00000128       __imp_GetStdHandle         0000000180023128     kernel32:KERNEL32.dll
 0002:00000130       __imp_GetFileType          0000000180023130     kernel32:KERNEL32.dll
 0002:00000138       __imp_GetModuleHandleExW   0000000180023138     kernel32:KERNEL32.dll
 0002:00000140       __imp_WriteConsoleW        0000000180023140     kernel32:KERNEL32.dll
 0002:00000148       __imp_GetModuleHandleA     0000000180023148     kernel32:KERNEL32.dll
 0002:00000150       __imp_MultiByteToWideChar  0000000180023150     kernel32:KERNEL32.dll
 0002:00000158       __imp_WideCharToMultiByte  0000000180023158     kernel32:KERNEL32.dll
 0002:00000160       __imp_HeapFree             0000000180023160     kernel32:KERNEL32.dll
 0002:00000168       __imp_HeapAlloc            0000000180023168     kernel32:KERNEL32.dll
 0002:00000170       __imp_SetFilePointerEx     0000000180023170     kernel32:KERNEL32.dll
 0002:00000178       __imp_GetConsoleMode       0000000180023178     kernel32:KERNEL32.dll
 0002:00000180       __imp_ReadConsoleW         0000000180023180     kernel32:KERNEL32.dll
 0002:00000188       __imp_LCMapStringW         0000000180023188     kernel32:KERNEL32.dll
 0002:00000190       __imp_FlushFileBuffers     0000000180023190     kernel32:KERNEL32.dll
 0002:00000198       __imp_WriteFile            0000000180023198     kernel32:KERNEL32.dll
 0002:000001a0       __imp_GetConsoleCP         00000001800231a0     kernel32:KERNEL32.dll
 0002:000001a8       __imp_CloseHandle          00000001800231a8     kernel32:KERNEL32.dll
 0002:000001b0       __imp_GetACP               00000001800231b0     kernel32:KERNEL32.dll
 0002:000001b8       __imp_OutputDebugStringW   00000001800231b8     kernel32:KERNEL32.dll
 0002:000001c0       __imp_WaitForSingleObjectEx 00000001800231c0     kernel32:KERNEL32.dll
 0002:000001c8       __imp_CreateThread         00000001800231c8     kernel32:KERNEL32.dll
 0002:000001d0       __imp_IsValidCodePage      00000001800231d0     kernel32:KERNEL32.dll
 0002:000001d8       __imp_GetOEMCP             00000001800231d8     kernel32:KERNEL32.dll
 0002:000001e0       __imp_GetCPInfo            00000001800231e0     kernel32:KERNEL32.dll
 0002:000001e8       __imp_GetEnvironmentStringsW 00000001800231e8     kernel32:KERNEL32.dll
 0002:000001f0       __imp_FreeEnvironmentStringsW 00000001800231f0     kernel32:KERNEL32.dll
 0002:000001f8       __imp_GetProcessHeap       00000001800231f8     kernel32:KERNEL32.dll
 0002:00000200       __imp_GetCommandLineA      0000000180023200     kernel32:KERNEL32.dll
 0002:00000208       __imp_GetCommandLineW      0000000180023208     kernel32:KERNEL32.dll
 0002:00000210       __imp_GetStringTypeW       0000000180023210     kernel32:KERNEL32.dll
 0002:00000218       __imp_SetStdHandle         0000000180023218     kernel32:KERNEL32.dll
 0002:00000220       __imp_CreateFileW          0000000180023220     kernel32:KERNEL32.dll
 0002:00000228       __imp_HeapSize             0000000180023228     kernel32:KERNEL32.dll
 0002:00000230       __imp_HeapReAlloc          0000000180023230     kernel32:KERNEL32.dll
 0002:00000238       __imp_SetEndOfFile         0000000180023238     kernel32:KERNEL32.dll
 0002:00000240       __imp_ExitProcess          0000000180023240     kernel32:KERNEL32.dll
 0002:00000248       __imp_TerminateThread      0000000180023248     kernel32:KERNEL32.dll
 0002:00000250       __imp_GetSystemInfo        0000000180023250     kernel32:KERNEL32.dll
 0002:00000258       __imp_VirtualProtect       0000000180023258     kernel32:KERNEL32.dll
 0002:00000260       __imp_VirtualQuery         0000000180023260     kernel32:KERNEL32.dll
 0002:00000268       __imp_LoadLibraryExA       0000000180023268     kernel32:KERNEL32.dll
 0002:00000270       \177KERNEL32_NULL_THUNK_DATA 0000000180023270     kernel32:KERNEL32.dll
 0002:00000278       __guard_check_icall_fptr   0000000180023278     LIBCMT:guard_support.obj
 0002:00000280       __guard_dispatch_icall_fptr 0000000180023280     LIBCMT:guard_support.obj
 0002:00000288       __xc_a                     0000000180023288     LIBCMT:initializers.obj
 0002:000002a8       _register_WebWorkerThreads_ 00000001800232a8     WebWorkerThreads.obj
 0002:000002b0       __xc_z                     00000001800232b0     LIBCMT:initializers.obj
 0002:000002b8       __xi_a                     00000001800232b8     LIBCMT:initializers.obj
 0002:000002c0       __acrt_stdio_initializer   00000001800232c0     libucrt:stdio_initializer.obj
 0002:000002c8       __acrt_multibyte_initializer 00000001800232c8     libucrt:multibyte_initializer.obj
 0002:000002d0       __acrt_tran_fma3_initializer 00000001800232d0     libucrt:fma3_initializer.obj
 0002:000002d8       __xi_z                     00000001800232d8     LIBCMT:initializers.obj
 0002:000002e0       __xp_a                     00000001800232e0     LIBCMT:initializers.obj
 0002:000002e8       __acrt_locale_terminator   00000001800232e8     libucrt:locale_initializer.obj
 0002:000002f0       __dcrt_console_output_terminator 00000001800232f0     libucrt:console_output_initializer.obj
 0002:000002f8       __acrt_stdio_terminator    00000001800232f8     libucrt:stdio_initializer.obj
 0002:00000300       __xp_z                     0000000180023300     LIBCMT:initializers.obj
 0002:00000308       __xt_a                     0000000180023308     LIBCMT:initializers.obj
 0002:00000310       __xt_z                     0000000180023310     LIBCMT:initializers.obj
 0002:00000320       __sz_node_exe              0000000180023320     node:node.exe
 0002:00000338       ??_7type_info@@6B@         0000000180023338     LIBCMT:std_type_info_static.obj
 0002:00000340       _pDefaultRawDllMain        0000000180023340     LIBCMT:dll_dllmain.obj
 0002:00000340       _pRawDllMain               0000000180023340     LIBCMT:dll_dllmain.obj
 0002:00000360       ??_7exception@std@@6B@     0000000180023360     LIBCMT:throw_bad_alloc.obj
 0002:00000370       ??_C@_0BC@EOODALEL@Unknown?5exception?$AA@ 0000000180023370     LIBCMT:throw_bad_alloc.obj
 0002:00000390       ??_7bad_alloc@std@@6B@     0000000180023390     LIBCMT:throw_bad_alloc.obj
 0002:000003a0       ??_C@_0P@GHFPNOJB@bad?5allocation?$AA@ 00000001800233a0     LIBCMT:throw_bad_alloc.obj
 0002:000003b8       ??_7bad_array_new_length@std@@6B@ 00000001800233b8     LIBCMT:throw_bad_alloc.obj
 0002:000003c8       ??_C@_0BF@KINCDENJ@bad?5array?5new?5length?$AA@ 00000001800233c8     LIBCMT:throw_bad_alloc.obj
 0002:000003e0       _Microsoft_CRTProvider     00000001800233e0     libvcruntime:telemetry.obj
 0002:000003e8       ??_C@_00CNPNBAHC@?$AA@     00000001800233e8     libvcruntime:telemetry.obj
 0002:000003ec       ??_C@_11LOCGONAA@?$AA?$AA@ 00000001800233ec     libvcruntime:telemetry.obj
 0002:000003f0       ??_C@_0O@JEOPJOMI@Main?5Invoked?4?$AA@ 00000001800233f0     libvcruntime:telemetry.obj
 0002:00000400       ??_C@_0P@NEAEIBDO@Main?5Returned?4?$AA@ 0000000180023400     libvcruntime:telemetry.obj
 0002:00000470       ??_C@_1BC@DNHGCMLG@?$AAa?$AAd?$AAv?$AAa?$AAp?$AAi?$AA3?$AA2?$AA?$AA@ 0000000180023470     libvcruntime:winapi_downlevel.obj
 0002:00000488       ??_C@_1DM@KHCHBNEB@?$AAa?$AAp?$AAi?$AA?9?$AAm?$AAs?$AA?9?$AAw?$AAi?$AAn?$AA?9?$AAc?$AAo?$AAr?$AAe?$AA?9?$AAf?$AAi?$AAb?$AAe?$AAr?$AAs?$AA?9?$AAl?$AA1?$AA?9?$AA1?$AA?9?$AA1?$AA?$AA@ 0000000180023488     libvcruntime:winapi_downlevel.obj
 0002:000004c8       ??_C@_1DK@LPPGFMPP@?$AAa?$AAp?$AAi?$AA?9?$AAm?$AAs?$AA?9?$AAw?$AAi?$AAn?$AA?9?$AAc?$AAo?$AAr?$AAe?$AA?9?$AAs?$AAy?$AAn?$AAc?$AAh?$AA?9?$AAl?$AA1?$AA?9?$AA2?$AA?9?$AA0?$AA?$AA@ 00000001800234c8     libvcruntime:winapi_downlevel.obj
 0002:00000508       ??_C@_1BC@GDMECMAK@?$AAk?$AAe?$AAr?$AAn?$AAe?$AAl?$AA3?$AA2?$AA?$AA@ 0000000180023508     libvcruntime:winapi_downlevel.obj
 0002:00000520       ??_C@_0O@BAMBGLIE@EventRegister?$AA@ 0000000180023520     libvcruntime:winapi_downlevel.obj
 0002:00000538       ??_C@_0BE@BJEEGHGK@EventSetInformation?$AA@ 0000000180023538     libvcruntime:winapi_downlevel.obj
 0002:00000550       ??_C@_0BA@FAKLIPIC@EventUnregister?$AA@ 0000000180023550     libvcruntime:winapi_downlevel.obj
 0002:00000568       ??_C@_0BD@PKLHJPHD@EventWriteTransfer?$AA@ 0000000180023568     libvcruntime:winapi_downlevel.obj
 0002:00000588       ??_C@_08KNHFBNJ@FlsAlloc?$AA@ 0000000180023588     libvcruntime:winapi_downlevel.obj
 0002:000005a0       ??_C@_07PEJMOBNF@FlsFree?$AA@ 00000001800235a0     libvcruntime:winapi_downlevel.obj
 0002:000005b0       ??_C@_0M@GDNOONDI@FlsGetValue?$AA@ 00000001800235b0     libvcruntime:winapi_downlevel.obj
 0002:000005c8       ??_C@_0M@JCPCPOEF@FlsSetValue?$AA@ 00000001800235c8     libvcruntime:winapi_downlevel.obj
 0002:000005e0       ??_C@_0BM@HCFOFFN@InitializeCriticalSectionEx?$AA@ 00000001800235e0     libvcruntime:winapi_downlevel.obj
 0002:000005fc       ??_C@_01JOAMLHOP@?9?$AA@   00000001800235fc     libvcruntime:undname.obj
 0002:00000600       ??_C@_01MIFGBAGJ@?$CL?$AA@ 0000000180023600     libvcruntime:undname.obj
 0002:00000604       ??_C@_01HNPIGOCE@?$CG?$AA@ 0000000180023604     libvcruntime:undname.obj
 0002:00000608       ??_C@_03MNHNFDLC@?9?$DO?$CK?$AA@ 0000000180023608     libvcruntime:undname.obj
 0002:0000060c       ??_C@_01KMDKNFGN@?1?$AA@   000000018002360c     libvcruntime:undname.obj
 0002:00000610       ??_C@_01FGNFDNOH@?$CF?$AA@ 0000000180023610     libvcruntime:undname.obj
 0002:00000614       ??_C@_01MNNFJEPP@?$DM?$AA@ 0000000180023614     libvcruntime:undname.obj
 0002:00000618       ??_C@_02EHCHHCKH@?$DM?$DN?$AA@ 0000000180023618     libvcruntime:undname.obj
 0002:0000061c       ??_C@_01PPODPGHN@?$DO?$AA@ 000000018002361c     libvcruntime:undname.obj
 0002:00000620       ??_C@_02EEKDKGMJ@?$DO?$DN?$AA@ 0000000180023620     libvcruntime:undname.obj
 0002:00000624       ??_C@_01IHBHIGKO@?0?$AA@   0000000180023624     libvcruntime:undname.obj
 0002:00000628       ??_C@_02HCKGKOFO@?$CI?$CJ?$AA@ 0000000180023628     libvcruntime:undname.obj
 0002:0000062c       ??_C@_01PJKLJHI@?$HO?$AA@  000000018002362c     libvcruntime:undname.obj
 0002:00000630       ??_C@_01JKBOJNNK@?$FO?$AA@ 0000000180023630     libvcruntime:undname.obj
 0002:00000634       ??_C@_01DNKMNLPK@?$HM?$AA@ 0000000180023634     libvcruntime:undname.obj
 0002:00000638       ??_C@_02PPKAJPJL@?$CG?$CG?$AA@ 0000000180023638     libvcruntime:undname.obj
 0002:0000063c       ??_C@_02NONPIBCD@?$HM?$HM?$AA@ 000000018002363c     libvcruntime:undname.obj
 0002:00000640       ??_C@_02FPIMKNGF@?$CK?$DN?$AA@ 0000000180023640     libvcruntime:undname.obj
 0002:00000644       ??_C@_02FOEOMHFC@?$CL?$DN?$AA@ 0000000180023644     libvcruntime:undname.obj
 0002:00000648       ??_C@_02FKMDLLOA@?9?$DN?$AA@ 0000000180023648     libvcruntime:undname.obj
 0002:0000064c       ??_C@_02FJEHGPIO@?1?$DN?$AA@ 000000018002364c     libvcruntime:undname.obj
 0002:00000650       ??_C@_02FENAOKFI@?$CF?$DN?$AA@ 0000000180023650     libvcruntime:undname.obj
 0002:00000654       ??_C@_03IKFCCPFF@?$DO?$DO?$DN?$AA@ 0000000180023654     libvcruntime:undname.obj
 0002:00000658       ??_C@_03CDNPDDLA@?$DM?$DM?$DN?$AA@ 0000000180023658     libvcruntime:undname.obj
 0002:0000065c       ??_C@_02FGJGFEAB@?$CG?$DN?$AA@ 000000018002365c     libvcruntime:undname.obj
 0002:00000660       ??_C@_02DHLNPPGH@?$HM?$DN?$AA@ 0000000180023660     libvcruntime:undname.obj
 0002:00000664       ??_C@_02MHEGNOJ@?$FO?$DN?$AA@ 0000000180023664     libvcruntime:undname.obj
 0002:00000668       ??_C@_09IFPLHPGF@?$GAvftable?8?$AA@ 0000000180023668     libvcruntime:undname.obj
 0002:00000678       ??_C@_09BLBHBJP@?$GAvbtable?8?$AA@ 0000000180023678     libvcruntime:undname.obj
 0002:00000688       ??_C@_07FEEIOKP@?$GAvcall?8?$AA@ 0000000180023688     libvcruntime:undname.obj
 0002:00000690       ??_C@_08LLFFHHDJ@?$GAtypeof?8?$AA@ 0000000180023690     libvcruntime:undname.obj
 0002:000006a0       ??_C@_0BF@KDPPACIK@?$GAlocal?5static?5guard?8?$AA@ 00000001800236a0     libvcruntime:undname.obj
 0002:000006b8       ??_C@_08OBABFOLI@?$GAstring?8?$AA@ 00000001800236b8     libvcruntime:undname.obj
 0002:000006c8       ??_C@_0BD@JDLKDPAB@?$GAvbase?5destructor?8?$AA@ 00000001800236c8     libvcruntime:undname.obj
 0002:000006e0       ??_C@_0BN@DEGPLNFK@?$GAvector?5deleting?5destructor?8?$AA@ 00000001800236e0     libvcruntime:undname.obj
 0002:00000700       ??_C@_0BO@OBMKPJIG@?$GAdefault?5constructor?5closure?8?$AA@ 0000000180023700     libvcruntime:undname.obj
 0002:00000720       ??_C@_0BN@IMDCHIKM@?$GAscalar?5deleting?5destructor?8?$AA@ 0000000180023720     libvcruntime:undname.obj
 0002:00000740       ??_C@_0BO@PFGOCPJJ@?$GAvector?5constructor?5iterator?8?$AA@ 0000000180023740     libvcruntime:undname.obj
 0002:00000760       ??_C@_0BN@LFPFMEDL@?$GAvector?5destructor?5iterator?8?$AA@ 0000000180023760     libvcruntime:undname.obj
 0002:00000780       ??_C@_0CE@IKBNEHA@?$GAvector?5vbase?5constructor?5iterat@ 0000000180023780     libvcruntime:undname.obj
 0002:000007a8       ??_C@_0BL@NILFHHPC@?$GAvirtual?5displacement?5map?8?$AA@ 00000001800237a8     libvcruntime:undname.obj
 0002:000007c8       ??_C@_0CB@JONCMFFK@?$GAeh?5vector?5constructor?5iterator?8@ 00000001800237c8     libvcruntime:undname.obj
 0002:000007f0       ??_C@_0CA@GCEOPDGL@?$GAeh?5vector?5destructor?5iterator?8?$AA@ 00000001800237f0     libvcruntime:undname.obj
 0002:00000810       ??_C@_0CH@OOJPLCPH@?$GAeh?5vector?5vbase?5constructor?5ite@ 0000000180023810     libvcruntime:undname.obj
 0002:00000838       ??_C@_0BL@LLKPOHJI@?$GAcopy?5constructor?5closure?8?$AA@ 0000000180023838     libvcruntime:undname.obj
 0002:00000858       ??_C@_0BA@KBCDOMBN@?$GAudt?5returning?8?$AA@ 0000000180023858     libvcruntime:undname.obj
 0002:00000868       ??_C@_03KLGMFNMG@?$GAEH?$AA@ 0000000180023868     libvcruntime:undname.obj
 0002:0000086c       ??_C@_05KHLCHHI@?$GARTTI?$AA@ 000000018002386c     libvcruntime:undname.obj
 0002:00000878       ??_C@_0BA@KKLDJDLB@?$GAlocal?5vftable?8?$AA@ 0000000180023878     libvcruntime:undname.obj
 0002:00000888       ??_C@_0CE@IIHCMGGL@?$GAlocal?5vftable?5constructor?5closu@ 0000000180023888     libvcruntime:undname.obj
 0002:000008ac       ??_C@_06FHBGPFGH@?5new?$FL?$FN?$AA@ 00000001800238ac     libvcruntime:undname.obj
 0002:000008b8       ??_C@_09LBNFPBCA@?5delete?$FL?$FN?$AA@ 00000001800238b8     libvcruntime:undname.obj
 0002:000008c8       ??_C@_0P@HJKNJFNN@?$GAomni?5callsig?8?$AA@ 00000001800238c8     libvcruntime:undname.obj
 0002:000008d8       ??_C@_0BL@CNOONJFP@?$GAplacement?5delete?5closure?8?$AA@ 00000001800238d8     libvcruntime:undname.obj
 0002:000008f8       ??_C@_0BN@CKNJLHMB@?$GAplacement?5delete?$FL?$FN?5closure?8?$AA@ 00000001800238f8     libvcruntime:undname.obj
 0002:00000918       ??_C@_0CG@CFDHKGGD@?$GAmanaged?5vector?5constructor?5iter@ 0000000180023918     libvcruntime:undname.obj
 0002:00000940       ??_C@_0CF@IMGKMJNO@?$GAmanaged?5vector?5destructor?5itera@ 0000000180023940     libvcruntime:undname.obj
 0002:00000968       ??_C@_0CG@HLDDJMAG@?$GAeh?5vector?5copy?5constructor?5iter@ 0000000180023968     libvcruntime:undname.obj
 0002:00000990       ??_C@_0CM@FCBBDIGB@?$GAeh?5vector?5vbase?5copy?5constructo@ 0000000180023990     libvcruntime:undname.obj
 0002:000009c0       ??_C@_0BL@CLIPGLGB@?$GAdynamic?5initializer?5for?5?8?$AA@ 00000001800239c0     libvcruntime:undname.obj
 0002:000009e0       ??_C@_0CB@PDBIFEP@?$GAdynamic?5atexit?5destructor?5for?5?8@ 00000001800239e0     libvcruntime:undname.obj
 0002:00000a08       ??_C@_0CD@CGAJBKEJ@?$GAvector?5copy?5constructor?5iterato@ 0000000180023a08     libvcruntime:undname.obj
 0002:00000a30       ??_C@_0CJ@GJELGAMM@?$GAvector?5vbase?5copy?5constructor?5i@ 0000000180023a30     libvcruntime:undname.obj
 0002:00000a60       ??_C@_0CL@FGIJHLCE@?$GAmanaged?5vector?5copy?5constructor@ 0000000180023a60     libvcruntime:undname.obj
 0002:00000a90       ??_C@_0BM@PMGGMLDN@?$GAlocal?5static?5thread?5guard?8?$AA@ 0000000180023a90     libvcruntime:undname.obj
 0002:00000ab0       ??_C@_0N@BDNMDMOL@operator?5?$CC?$CC?5?$AA@ 0000000180023ab0     libvcruntime:undname.obj
 0002:00000de8       ??_C@_0BC@DAFEJGAK@?5Type?5Descriptor?8?$AA@ 0000000180023de8     libvcruntime:undname.obj
 0002:00000e00       ??_C@_0BM@LDKODKLH@?5Base?5Class?5Descriptor?5at?5?$CI?$AA@ 0000000180023e00     libvcruntime:undname.obj
 0002:00000e20       ??_C@_0BD@LGICGFMM@?5Base?5Class?5Array?8?$AA@ 0000000180023e20     libvcruntime:undname.obj
 0002:00000e38       ??_C@_0BN@MECKDCOJ@?5Class?5Hierarchy?5Descriptor?8?$AA@ 0000000180023e38     libvcruntime:undname.obj
 0002:00000e58       ??_C@_0BK@CFCOFLF@?5Complete?5Object?5Locator?8?$AA@ 0000000180023e58     libvcruntime:undname.obj
 0002:00000e78       ??_C@_08EHJDFFNH@__based?$CI?$AA@ 0000000180023e78     libvcruntime:undname.obj
 0002:00000e88       ??_C@_07KOLFKCDI@__cdecl?$AA@ 0000000180023e88     libvcruntime:undname.obj
 0002:00000e90       ??_C@_08GHMPAG@__pascal?$AA@ 0000000180023e90     libvcruntime:undname.obj
 0002:00000ea0       ??_C@_09IFJBGAPI@__stdcall?$AA@ 0000000180023ea0     libvcruntime:undname.obj
 0002:00000eb0       ??_C@_0L@NPHFGOKO@__thiscall?$AA@ 0000000180023eb0     libvcruntime:undname.obj
 0002:00000ec0       ??_C@_0L@JMKHOMEK@__fastcall?$AA@ 0000000180023ec0     libvcruntime:undname.obj
 0002:00000ed0       ??_C@_0N@BCKKPABJ@__vectorcall?$AA@ 0000000180023ed0     libvcruntime:undname.obj
 0002:00000ee0       ??_C@_09HIJEGCPM@__clrcall?$AA@ 0000000180023ee0     libvcruntime:undname.obj
 0002:00000eec       ??_C@_06GHPCKEAG@__eabi?$AA@ 0000000180023eec     libvcruntime:undname.obj
 0002:00000ef8       ??_C@_07JOMMBBKO@__ptr64?$AA@ 0000000180023ef8     libvcruntime:undname.obj
 0002:00000f00       ??_C@_0L@PILCLIHE@__restrict?$AA@ 0000000180023f00     libvcruntime:undname.obj
 0002:00000f10       ??_C@_0M@GFIIJFMG@__unaligned?$AA@ 0000000180023f10     libvcruntime:undname.obj
 0002:00000f20       ??_C@_09DHDLOLLB@restrict?$CI?$AA@ 0000000180023f20     libvcruntime:undname.obj
 0002:00000f2c       ??_C@_04NIHEBCM@?5new?$AA@ 0000000180023f2c     libvcruntime:undname.obj
 0002:00000f38       ??_C@_07FPCDHGMM@?5delete?$AA@ 0000000180023f38     libvcruntime:undname.obj
 0002:00000f40       ??_C@_01NEMOKFLO@?$DN?$AA@ 0000000180023f40     libvcruntime:undname.obj
 0002:00000f44       ??_C@_02GPIOPFAK@?$DO?$DO?$AA@ 0000000180023f44     libvcruntime:undname.obj
 0002:00000f48       ??_C@_02FODMEDOG@?$DM?$DM?$AA@ 0000000180023f48     libvcruntime:undname.obj
 0002:00000f4c       ??_C@_01DCLJPIOD@?$CB?$AA@ 0000000180023f4c     libvcruntime:undname.obj
 0002:00000f50       ??_C@_02EGOFBIJA@?$DN?$DN?$AA@ 0000000180023f50     libvcruntime:undname.obj
 0002:00000f54       ??_C@_02FDNJECIE@?$CB?$DN?$AA@ 0000000180023f54     libvcruntime:undname.obj
 0002:00000f58       ??_C@_02GPECMEKF@?$FL?$FN?$AA@ 0000000180023f58     libvcruntime:undname.obj
 0002:00000f60       ??_C@_08LHJFAFGD@operator?$AA@ 0000000180023f60     libvcruntime:undname.obj
 0002:00000f6c       ??_C@_02HBOOOICD@?9?$DO?$AA@ 0000000180023f6c     libvcruntime:undname.obj
 0002:00000f70       ??_C@_01NBENCBCI@?$CK?$AA@ 0000000180023f70     libvcruntime:undname.obj
 0002:00000f74       ??_C@_02ECNGHCIF@?$CL?$CL?$AA@ 0000000180023f74     libvcruntime:undname.obj
 0002:00000f78       ??_C@_02BAABKJLB@?9?9?$AA@ 0000000180023f78     libvcruntime:undname.obj
 0002:00000f80       standard_lookup_table      0000000180023f80     libucrt:output.obj
 0002:00000fdc       ??_C@_06OJHGLDPL@?$CInull?$CJ?$AA@ 0000000180023fdc     libucrt:output.obj
 0002:00000fe8       ??_C@_1O@CEDCILHN@?$AA?$CI?$AAn?$AAu?$AAl?$AAl?$AA?$CJ?$AA?$AA@ 0000000180023fe8     libucrt:output.obj
 0002:00001170       ??_C@_1EK@MBDPDCGA@?$AAM?$AAi?$AAc?$AAr?$AAo?$AAs?$AAo?$AAf?$AAt?$AA?5?$AAV?$AAi?$AAs?$AAu?$AAa?$AAl?$AA?5?$AAC?$AA?$CL?$AA?$CL?$AA?5?$AAR?$AAu?$AAn?$AAt?$AAi?$AAm?$AAe?$AA?5?$AAL?$AAi?$AAb@ 0000000180024170     libucrt:assert.obj
 0002:000011c0       ??_C@_1FE@LHBLIKM@?$AAA?$AAs?$AAs?$AAe?$AAr?$AAt?$AAi?$AAo?$AAn?$AA?5?$AAf?$AAa?$AAi?$AAl?$AAe?$AAd?$AA?3?$AA?5?$AA?$CF?$AAT?$AAs?$AA?0?$AA?5?$AAf?$AAi?$AAl?$AAe?$AA?5?$AA?$CF?$AAT?$AAs?$AA?0@ 00000001800241c0     libucrt:assert.obj
 0002:00001218       ??_C@_1CE@OJBNHDMO@?$AAA?$AAs?$AAs?$AAe?$AAr?$AAt?$AAi?$AAo?$AAn?$AA?5?$AAf?$AAa?$AAi?$AAl?$AAe?$AAd?$AA?$CB?$AA?$AA@ 0000000180024218     libucrt:assert.obj
 0002:00001240       ??_C@_1BE@PHKBBGE@?$AAP?$AAr?$AAo?$AAg?$AAr?$AAa?$AAm?$AA?3?$AA?5?$AA?$AA@ 0000000180024240     libucrt:assert.obj
 0002:00001258       ??_C@_1O@HEMHKNDC@?$AAF?$AAi?$AAl?$AAe?$AA?3?$AA?5?$AA?$AA@ 0000000180024258     libucrt:assert.obj
 0002:00001268       ??_C@_1O@KCAFKHJE@?$AAL?$AAi?$AAn?$AAe?$AA?3?$AA?5?$AA?$AA@ 0000000180024268     libucrt:assert.obj
 0002:00001278       ??_C@_1BK@PEDCIPMA@?$AAE?$AAx?$AAp?$AAr?$AAe?$AAs?$AAs?$AAi?$AAo?$AAn?$AA?3?$AA?5?$AA?$AA@ 0000000180024278     libucrt:assert.obj
 0002:000012a0       ??_C@_1OA@EGMLFBHJ@?$AAF?$AAo?$AAr?$AA?5?$AAi?$AAn?$AAf?$AAo?$AAr?$AAm?$AAa?$AAt?$AAi?$AAo?$AAn?$AA?5?$AAo?$AAn?$AA?5?$AAh?$AAo?$AAw?$AA?5?$AAy?$AAo?$AAu?$AAr?$AA?5?$AAp?$AAr?$AAo?$AAg@ 00000001800242a0     libucrt:assert.obj
 0002:00001380       ??_C@_1HK@POCJMFGK@?$AA?$CI?$AAP?$AAr?$AAe?$AAs?$AAs?$AA?5?$AAR?$AAe?$AAt?$AAr?$AAy?$AA?5?$AAt?$AAo?$AA?5?$AAd?$AAe?$AAb?$AAu?$AAg?$AA?5?$AAt?$AAh?$AAe?$AA?5?$AAa?$AAp?$AAp?$AAl?$AAi?$AAc@ 0000000180024380     libucrt:assert.obj
 0002:00001400       ??_C@_17LGKOMLJ@?$AA?4?$AA?4?$AA?4?$AA?$AA@ 0000000180024400     libucrt:assert.obj
 0002:00001408       ??_C@_13LBAGMAIH@?$AA?6?$AA?$AA@ 0000000180024408     libucrt:assert.obj
 0002:0000140c       ??_C@_15IABLJNFO@?$AA?6?$AA?6?$AA?$AA@ 000000018002440c     libucrt:assert.obj
 0002:00001418       ??_C@_1CO@EAEJAADC@?$AA?$DM?$AAp?$AAr?$AAo?$AAg?$AAr?$AAa?$AAm?$AA?5?$AAn?$AAa?$AAm?$AAe?$AA?5?$AAu?$AAn?$AAk?$AAn?$AAo?$AAw?$AAn?$AA?$DO?$AA?$AA@ 0000000180024418     libucrt:assert.obj
 0002:00001450       ??_C@_0EA@FCLIIPNN@Visual?5C?$CL?$CL?5CRT?3?5Not?5enough?5memor@ 0000000180024450     libucrt:strerror.obj
 0002:00001490       __acrt_exception_action_table 0000000180024490     libucrt:exception_filter.obj
 0002:00001550       __acrt_signal_action_table_count 0000000180024550     libucrt:exception_filter.obj
 0002:00001558       __acrt_signal_action_first_fpe_index 0000000180024558     libucrt:exception_filter.obj
 0002:00001560       __acrt_signal_action_fpe_count 0000000180024560     libucrt:exception_filter.obj
 0002:00001568       ??_C@_1BI@BGOHAHKC@?$AAm?$AAs?$AAc?$AAo?$AAr?$AAe?$AAe?$AA?4?$AAd?$AAl?$AAl?$AA?$AA@ 0000000180024568     libucrt:exit.obj
 0002:00001580       ??_C@_0P@MIGLKIOC@CorExitProcess?$AA@ 0000000180024580     libucrt:exit.obj
 0002:00001680       ?ccs@?BL@???$__acrt_stdio_parse_mode@D@@YA?AU__acrt_stdio_stream_mode@@QEBD@Z@4QBDB 0000000180024680     libucrt:openfile.obj
 0002:00001684       ?utf8_encoding@?BL@???$__acrt_stdio_parse_mode@D@@YA?AU__acrt_stdio_stream_mode@@QEBD@Z@4QBDB 0000000180024684     libucrt:openfile.obj
 0002:00001690       ?utf16_encoding@?BL@???$__acrt_stdio_parse_mode@D@@YA?AU__acrt_stdio_stream_mode@@QEBD@Z@4QBDB 0000000180024690     libucrt:openfile.obj
 0002:00001698       ?unicode_encoding@?BL@???$__acrt_stdio_parse_mode@D@@YA?AU__acrt_stdio_stream_mode@@QEBD@Z@4QBDB 0000000180024698     libucrt:openfile.obj
 0002:00001740       ??_C@_1EG@CNNIPFIM@?$AAa?$AAp?$AAi?$AA?9?$AAm?$AAs?$AA?9?$AAw?$AAi?$AAn?$AA?9?$AAa?$AAp?$AAp?$AAm?$AAo?$AAd?$AAe?$AAl?$AA?9?$AAr?$AAu?$AAn?$AAt?$AAi?$AAm?$AAe?$AA?9?$AAl?$AA1?$AA?9?$AA1@ 0000000180024740     libucrt:winapi_thunks.obj
 0002:00001790       ??_C@_1EA@JGEFHKEI@?$AAa?$AAp?$AAi?$AA?9?$AAm?$AAs?$AA?9?$AAw?$AAi?$AAn?$AA?9?$AAc?$AAo?$AAr?$AAe?$AA?9?$AAd?$AAa?$AAt?$AAe?$AAt?$AAi?$AAm?$AAe?$AA?9?$AAl?$AA1?$AA?9?$AA1?$AA?9?$AA1?$AA?$AA@ 0000000180024790     libucrt:winapi_thunks.obj
 0002:000017d0       ??_C@_1DI@GCIAAENM@?$AAa?$AAp?$AAi?$AA?9?$AAm?$AAs?$AA?9?$AAw?$AAi?$AAn?$AA?9?$AAc?$AAo?$AAr?$AAe?$AA?9?$AAf?$AAi?$AAl?$AAe?$AA?9?$AAl?$AA2?$AA?9?$AA1?$AA?9?$AA1?$AA?$AA@ 00000001800247d0     libucrt:winapi_thunks.obj
 0002:00001810       ??_C@_1EI@MPIAOHOC@?$AAa?$AAp?$AAi?$AA?9?$AAm?$AAs?$AA?9?$AAw?$AAi?$AAn?$AA?9?$AAc?$AAo?$AAr?$AAe?$AA?9?$AAl?$AAo?$AAc?$AAa?$AAl?$AAi?$AAz?$AAa?$AAt?$AAi?$AAo?$AAn?$AA?9?$AAl?$AA1?$AA?9@ 0000000180024810     libucrt:winapi_thunks.obj
 0002:00001860       ??_C@_1FK@FPHCKFIE@?$AAa?$AAp?$AAi?$AA?9?$AAm?$AAs?$AA?9?$AAw?$AAi?$AAn?$AA?9?$AAc?$AAo?$AAr?$AAe?$AA?9?$AAl?$AAo?$AAc?$AAa?$AAl?$AAi?$AAz?$AAa?$AAt?$AAi?$AAo?$AAn?$AA?9?$AAo?$AAb?$AAs@ 0000000180024860     libucrt:winapi_thunks.obj
 0002:000018c0       ??_C@_1EM@DILCGIIO@?$AAa?$AAp?$AAi?$AA?9?$AAm?$AAs?$AA?9?$AAw?$AAi?$AAn?$AA?9?$AAc?$AAo?$AAr?$AAe?$AA?9?$AAp?$AAr?$AAo?$AAc?$AAe?$AAs?$AAs?$AAt?$AAh?$AAr?$AAe?$AAa?$AAd?$AAs?$AA?9?$AAl@ 00000001800248c0     libucrt:winapi_thunks.obj
 0002:00001910       ??_C@_1DM@LNCGDDPN@?$AAa?$AAp?$AAi?$AA?9?$AAm?$AAs?$AA?9?$AAw?$AAi?$AAn?$AA?9?$AAc?$AAo?$AAr?$AAe?$AA?9?$AAs?$AAt?$AAr?$AAi?$AAn?$AAg?$AA?9?$AAl?$AA1?$AA?9?$AA1?$AA?9?$AA0?$AA?$AA@ 0000000180024910     libucrt:winapi_thunks.obj
 0002:00001950       ??_C@_1DO@FPAPJEMD@?$AAa?$AAp?$AAi?$AA?9?$AAm?$AAs?$AA?9?$AAw?$AAi?$AAn?$AA?9?$AAc?$AAo?$AAr?$AAe?$AA?9?$AAs?$AAy?$AAs?$AAi?$AAn?$AAf?$AAo?$AA?9?$AAl?$AA1?$AA?9?$AA2?$AA?9?$AA1?$AA?$AA@ 0000000180024950     libucrt:winapi_thunks.obj
 0002:00001990       ??_C@_1DK@NDHNAHIO@?$AAa?$AAp?$AAi?$AA?9?$AAm?$AAs?$AA?9?$AAw?$AAi?$AAn?$AA?9?$AAc?$AAo?$AAr?$AAe?$AA?9?$AAw?$AAi?$AAn?$AAr?$AAt?$AA?9?$AAl?$AA1?$AA?9?$AA1?$AA?9?$AA0?$AA?$AA@ 0000000180024990     libucrt:winapi_thunks.obj
 0002:000019d0       ??_C@_1DM@KGHDGBCM@?$AAa?$AAp?$AAi?$AA?9?$AAm?$AAs?$AA?9?$AAw?$AAi?$AAn?$AA?9?$AAc?$AAo?$AAr?$AAe?$AA?9?$AAx?$AAs?$AAt?$AAa?$AAt?$AAe?$AA?9?$AAl?$AA2?$AA?9?$AA1?$AA?9?$AA0?$AA?$AA@ 00000001800249d0     libucrt:winapi_thunks.obj
 0002:00001a10       ??_C@_1EO@IJIOEFOH@?$AAa?$AAp?$AAi?$AA?9?$AAm?$AAs?$AA?9?$AAw?$AAi?$AAn?$AA?9?$AAr?$AAt?$AAc?$AAo?$AAr?$AAe?$AA?9?$AAn?$AAt?$AAu?$AAs?$AAe?$AAr?$AA?9?$AAw?$AAi?$AAn?$AAd?$AAo?$AAw?$AA?9@ 0000000180024a10     libucrt:winapi_thunks.obj
 0002:00001a60       ??_C@_1FG@HHGEKANL@?$AAa?$AAp?$AAi?$AA?9?$AAm?$AAs?$AA?9?$AAw?$AAi?$AAn?$AA?9?$AAs?$AAe?$AAc?$AAu?$AAr?$AAi?$AAt?$AAy?$AA?9?$AAs?$AAy?$AAs?$AAt?$AAe?$AAm?$AAf?$AAu?$AAn?$AAc?$AAt?$AAi@ 0000000180024a60     libucrt:winapi_thunks.obj
 0002:00001ac0       ??_C@_1FG@NCKKOLKO@?$AAe?$AAx?$AAt?$AA?9?$AAm?$AAs?$AA?9?$AAw?$AAi?$AAn?$AA?9?$AAk?$AAe?$AAr?$AAn?$AAe?$AAl?$AA3?$AA2?$AA?9?$AAp?$AAa?$AAc?$AAk?$AAa?$AAg?$AAe?$AA?9?$AAc?$AAu?$AAr?$AAr@ 0000000180024ac0     libucrt:winapi_thunks.obj
 0002:00001b20       ??_C@_1EG@DBIOJECG@?$AAe?$AAx?$AAt?$AA?9?$AAm?$AAs?$AA?9?$AAw?$AAi?$AAn?$AA?9?$AAn?$AAt?$AAu?$AAs?$AAe?$AAr?$AA?9?$AAd?$AAi?$AAa?$AAl?$AAo?$AAg?$AAb?$AAo?$AAx?$AA?9?$AAl?$AA1?$AA?9?$AA1@ 0000000180024b20     libucrt:winapi_thunks.obj
 0002:00001b70       ??_C@_1EO@FIHMJCLF@?$AAe?$AAx?$AAt?$AA?9?$AAm?$AAs?$AA?9?$AAw?$AAi?$AAn?$AA?9?$AAn?$AAt?$AAu?$AAs?$AAe?$AAr?$AA?9?$AAw?$AAi?$AAn?$AAd?$AAo?$AAw?$AAs?$AAt?$AAa?$AAt?$AAi?$AAo?$AAn?$AA?9@ 0000000180024b70     libucrt:winapi_thunks.obj
 0002:00001bc0       ??_C@_1O@BCCLBEOE@?$AAu?$AAs?$AAe?$AAr?$AA3?$AA2?$AA?$AA@ 0000000180024bc0     libucrt:winapi_thunks.obj
 0002:00001bd8       ??_C@_0BA@FHFNEAED@AreFileApisANSI?$AA@ 0000000180024bd8     libucrt:winapi_thunks.obj
 0002:00001c10       ??_C@_0BA@HNOPNCHB@GetActiveWindow?$AA@ 0000000180024c10     libucrt:winapi_thunks.obj
 0002:00001c28       ??_C@_0BE@JOGNEJCI@GetCurrentPackageId?$AA@ 0000000180024c28     libucrt:winapi_thunks.obj
 0002:00001c48       ??_C@_0BD@HHGDFDBJ@GetLastActivePopup?$AA@ 0000000180024c48     libucrt:winapi_thunks.obj
 0002:00001c68       ??_C@_0BI@DFKBFLJE@GetProcessWindowStation?$AA@ 0000000180024c68     libucrt:winapi_thunks.obj
 0002:00001c88       ??_C@_0BK@DEKFELLI@GetUserObjectInformationW?$AA@ 0000000180024c88     libucrt:winapi_thunks.obj
 0002:00001cb8       ??_C@_0O@KKBNKAPF@LCMapStringEx?$AA@ 0000000180024cb8     libucrt:winapi_thunks.obj
 0002:00001cd0       ??_C@_0BB@HBDEELFH@LocaleNameToLCID?$AA@ 0000000180024cd0     libucrt:winapi_thunks.obj
 0002:00001cf0       ??_C@_0M@CHKKJDAI@MessageBoxA?$AA@ 0000000180024cf0     libucrt:winapi_thunks.obj
 0002:00001d08       ??_C@_0M@DLDCCGNP@MessageBoxW?$AA@ 0000000180024d08     libucrt:winapi_thunks.obj
 0002:00001d14       ??_C@_03OEIAHPBN@INF?$AA@  0000000180024d14     libucrt:cvt.obj
 0002:00001d18       ??_C@_03OJHLLCGB@inf?$AA@  0000000180024d18     libucrt:cvt.obj
 0002:00001d1c       ??_C@_03LKNCIKJB@NAN?$AA@  0000000180024d1c     libucrt:cvt.obj
 0002:00001d20       ??_C@_03LHCJEHON@nan?$AA@  0000000180024d20     libucrt:cvt.obj
 0002:00001d28       ??_C@_09OFJJIMPC@NAN?$CISNAN?$CJ?$AA@ 0000000180024d28     libucrt:cvt.obj
 0002:00001d38       ??_C@_09IPFBKMDL@nan?$CIsnan?$CJ?$AA@ 0000000180024d38     libucrt:cvt.obj
 0002:00001d48       ??_C@_08IKHNHAJ@NAN?$CIIND?$CJ?$AA@ 0000000180024d48     libucrt:cvt.obj
 0002:00001d58       ??_C@_08OFCDMILK@nan?$CIind?$CJ?$AA@ 0000000180024d58     libucrt:cvt.obj
 0002:00001d64       ??_C@_05KLBDPFGC@e?$CL000?$AA@ 0000000180024d64     libucrt:cvt.obj
 0002:00001d70       __lc_time_c                0000000180024d70     libucrt:nlsdata.obj
 0002:00002030       ??_C@_03KOEHGMDN@Sun?$AA@  0000000180025030     libucrt:nlsdata.obj
 0002:00002034       ??_C@_03PDAGKDH@Mon?$AA@   0000000180025034     libucrt:nlsdata.obj
 0002:00002038       ??_C@_03NAGEINEP@Tue?$AA@  0000000180025038     libucrt:nlsdata.obj
 0002:0000203c       ??_C@_03MHOMLAJA@Wed?$AA@  000000018002503c     libucrt:nlsdata.obj
 0002:00002040       ??_C@_03IOFIKPDN@Thu?$AA@  0000000180025040     libucrt:nlsdata.obj
 0002:00002044       ??_C@_03IDIOELNC@Fri?$AA@  0000000180025044     libucrt:nlsdata.obj
 0002:00002048       ??_C@_03FEFJNEK@Sat?$AA@   0000000180025048     libucrt:nlsdata.obj
 0002:0000204c       ??_C@_06OOPIFAJ@Sunday?$AA@ 000000018002504c     libucrt:nlsdata.obj
 0002:00002054       ??_C@_06JLEDEDGH@Monday?$AA@ 0000000180025054     libucrt:nlsdata.obj
 0002:00002060       ??_C@_07BAAGCFCM@Tuesday?$AA@ 0000000180025060     libucrt:nlsdata.obj
 0002:00002068       ??_C@_09DLIGFAKA@Wednesday?$AA@ 0000000180025068     libucrt:nlsdata.obj
 0002:00002078       ??_C@_08HACCIKIA@Thursday?$AA@ 0000000180025078     libucrt:nlsdata.obj
 0002:00002084       ??_C@_06JECMNKMI@Friday?$AA@ 0000000180025084     libucrt:nlsdata.obj
 0002:00002090       ??_C@_08INBOOONO@Saturday?$AA@ 0000000180025090     libucrt:nlsdata.obj
 0002:0000209c       ??_C@_03JIHJHPIE@Jan?$AA@  000000018002509c     libucrt:nlsdata.obj
 0002:000020a0       ??_C@_03HJBDCHOM@Feb?$AA@  00000001800250a0     libucrt:nlsdata.obj
 0002:000020a4       ??_C@_03ODNJBKGA@Mar?$AA@  00000001800250a4     libucrt:nlsdata.obj
 0002:000020a8       ??_C@_03LEOLGMJP@Apr?$AA@  00000001800250a8     libucrt:nlsdata.obj
 0002:000020ac       ??_C@_03CNMDKL@May?$AA@    00000001800250ac     libucrt:nlsdata.obj
 0002:000020b0       ??_C@_03IDFGHECI@Jun?$AA@  00000001800250b0     libucrt:nlsdata.obj
 0002:000020b4       ??_C@_03LBGABGKK@Jul?$AA@  00000001800250b4     libucrt:nlsdata.obj
 0002:000020b8       ??_C@_03IFJFEIGA@Aug?$AA@  00000001800250b8     libucrt:nlsdata.obj
 0002:000020bc       ??_C@_03GGCAPAJC@Sep?$AA@  00000001800250bc     libucrt:nlsdata.obj
 0002:000020c0       ??_C@_03BMAOKBAD@Oct?$AA@  00000001800250c0     libucrt:nlsdata.obj
 0002:000020c4       ??_C@_03JPJOFNIA@Nov?$AA@  00000001800250c4     libucrt:nlsdata.obj
 0002:000020c8       ??_C@_03MKABNOCG@Dec?$AA@  00000001800250c8     libucrt:nlsdata.obj
 0002:000020d0       ??_C@_07CGJPFGJA@January?$AA@ 00000001800250d0     libucrt:nlsdata.obj
 0002:000020d8       ??_C@_08GNJGEPFN@February?$AA@ 00000001800250d8     libucrt:nlsdata.obj
 0002:000020e4       ??_C@_05HPCKOFNC@March?$AA@ 00000001800250e4     libucrt:nlsdata.obj
 0002:000020ec       ??_C@_05DMJDNLEJ@April?$AA@ 00000001800250ec     libucrt:nlsdata.obj
 0002:000020f4       ??_C@_04CNLMGBGM@June?$AA@ 00000001800250f4     libucrt:nlsdata.obj
 0002:000020fc       ??_C@_04MIEPOIFP@July?$AA@ 00000001800250fc     libucrt:nlsdata.obj
 0002:00002104       ??_C@_06LBBHFDDG@August?$AA@ 0000000180025104     libucrt:nlsdata.obj
 0002:00002110       ??_C@_09BHHEALKD@September?$AA@ 0000000180025110     libucrt:nlsdata.obj
 0002:00002120       ??_C@_07JJNFCEND@October?$AA@ 0000000180025120     libucrt:nlsdata.obj
 0002:00002128       ??_C@_08HCHEGEOA@November?$AA@ 0000000180025128     libucrt:nlsdata.obj
 0002:00002138       ??_C@_08EDHMEBNP@December?$AA@ 0000000180025138     libucrt:nlsdata.obj
 0002:00002144       ??_C@_02DEDBPAFC@AM?$AA@   0000000180025144     libucrt:nlsdata.obj
 0002:00002148       ??_C@_02CJNFDJBF@PM?$AA@   0000000180025148     libucrt:nlsdata.obj
 0002:00002150       ??_C@_08BPBNCDIB@MM?1dd?1yy?$AA@ 0000000180025150     libucrt:nlsdata.obj
 0002:00002160       ??_C@_0BE@CKGJFCPC@dddd?0?5MMMM?5dd?0?5yyyy?$AA@ 0000000180025160     libucrt:nlsdata.obj
 0002:00002178       ??_C@_08JCCMCCIL@HH?3mm?3ss?$AA@ 0000000180025178     libucrt:nlsdata.obj
 0002:00002188       ??_C@_17MBGCMIPB@?$AAS?$AAu?$AAn?$AA?$AA@ 0000000180025188     libucrt:nlsdata.obj
 0002:00002190       ??_C@_17KBOMKBF@?$AAM?$AAo?$AAn?$AA?$AA@ 0000000180025190     libucrt:nlsdata.obj
 0002:00002198       ??_C@_17BMKGEGOJ@?$AAT?$AAu?$AAe?$AA?$AA@ 0000000180025198     libucrt:nlsdata.obj
 0002:000021a0       ??_C@_17CJEDCEPE@?$AAW?$AAe?$AAd?$AA?$AA@ 00000001800251a0     libucrt:nlsdata.obj
 0002:000021a8       ??_C@_17PDPHAADD@?$AAT?$AAh?$AAu?$AA?$AA@ 00000001800251a8     libucrt:nlsdata.obj
 0002:000021b0       ??_C@_17HFOLPPLP@?$AAF?$AAr?$AAi?$AA?$AA@ 00000001800251b0     libucrt:nlsdata.obj
 0002:000021b8       ??_C@_17GGIBDPIH@?$AAS?$AAa?$AAt?$AA?$AA@ 00000001800251b8     libucrt:nlsdata.obj
 0002:000021c0       ??_C@_1O@IHNHDHPB@?$AAS?$AAu?$AAn?$AAd?$AAa?$AAy?$AA?$AA@ 00000001800251c0     libucrt:nlsdata.obj
 0002:000021d0       ??_C@_1O@MMNBFLIA@?$AAM?$AAo?$AAn?$AAd?$AAa?$AAy?$AA?$AA@ 00000001800251d0     libucrt:nlsdata.obj
 0002:000021e0       ??_C@_1BA@ENFBFFEK@?$AAT?$AAu?$AAe?$AAs?$AAd?$AAa?$AAy?$AA?$AA@ 00000001800251e0     libucrt:nlsdata.obj
 0002:000021f0       ??_C@_1BE@EBOGMDOH@?$AAW?$AAe?$AAd?$AAn?$AAe?$AAs?$AAd?$AAa?$AAy?$AA?$AA@ 00000001800251f0     libucrt:nlsdata.obj
 0002:00002208       ??_C@_1BC@HHMNLIHE@?$AAT?$AAh?$AAu?$AAr?$AAs?$AAd?$AAa?$AAy?$AA?$AA@ 0000000180025208     libucrt:nlsdata.obj
 0002:00002220       ??_C@_1O@PDICJHAG@?$AAF?$AAr?$AAi?$AAd?$AAa?$AAy?$AA?$AA@ 0000000180025220     libucrt:nlsdata.obj
 0002:00002230       ??_C@_1BC@ENMNNPAJ@?$AAS?$AAa?$AAt?$AAu?$AAr?$AAd?$AAa?$AAy?$AA?$AA@ 0000000180025230     libucrt:nlsdata.obj
 0002:00002248       ??_C@_17DKNBKCHM@?$AAJ?$AAa?$AAn?$AA?$AA@ 0000000180025248     libucrt:nlsdata.obj
 0002:00002250       ??_C@_17LMDJEKJN@?$AAF?$AAe?$AAb?$AA?$AA@ 0000000180025250     libucrt:nlsdata.obj
 0002:00002258       ??_C@_17CKNLEDEC@?$AAM?$AAa?$AAr?$AA?$AA@ 0000000180025258     libucrt:nlsdata.obj
 0002:00002260       ??_C@_17LFPOIHDD@?$AAA?$AAp?$AAr?$AA?$AA@ 0000000180025260     libucrt:nlsdata.obj
 0002:00002268       ??_C@_17PNNKMEED@?$AAM?$AAa?$AAy?$AA?$AA@ 0000000180025268     libucrt:nlsdata.obj
 0002:00002270       ??_C@_17KCJGOCPB@?$AAJ?$AAu?$AAn?$AA?$AA@ 0000000180025270     libucrt:nlsdata.obj
 0002:00002278       ??_C@_17IJPCKHK@?$AAJ?$AAu?$AAl?$AA?$AA@ 0000000180025278     libucrt:nlsdata.obj
 0002:00002280       ??_C@_17ICPELBCN@?$AAA?$AAu?$AAg?$AA?$AA@ 0000000180025280     libucrt:nlsdata.obj
 0002:00002288       ??_C@_17HCHCOKMG@?$AAS?$AAe?$AAp?$AA?$AA@ 0000000180025288     libucrt:nlsdata.obj
 0002:00002290       ??_C@_17FNLKOI@?$AAO?$AAc?$AAt?$AA?$AA@ 0000000180025290     libucrt:nlsdata.obj
 0002:00002298       ??_C@_17BBDMLCIG@?$AAN?$AAo?$AAv?$AA?$AA@ 0000000180025298     libucrt:nlsdata.obj
 0002:000022a0       ??_C@_17EGKACKIF@?$AAD?$AAe?$AAc?$AA?$AA@ 00000001800252a0     libucrt:nlsdata.obj
 0002:000022a8       ??_C@_1BA@EFMEIEBA@?$AAJ?$AAa?$AAn?$AAu?$AAa?$AAr?$AAy?$AA?$AA@ 00000001800252a8     libucrt:nlsdata.obj
 0002:000022b8       ??_C@_1BC@JGDDFFAM@?$AAF?$AAe?$AAb?$AAr?$AAu?$AAa?$AAr?$AAy?$AA?$AA@ 00000001800252b8     libucrt:nlsdata.obj
 0002:000022d0       ??_C@_1M@IKEENEDF@?$AAM?$AAa?$AAr?$AAc?$AAh?$AA?$AA@ 00000001800252d0     libucrt:nlsdata.obj
 0002:000022e0       ??_C@_1M@GJNLMHFD@?$AAA?$AAp?$AAr?$AAi?$AAl?$AA?$AA@ 00000001800252e0     libucrt:nlsdata.obj
 0002:000022f0       ??_C@_19EPFLPGAP@?$AAJ?$AAu?$AAn?$AAe?$AA?$AA@ 00000001800252f0     libucrt:nlsdata.obj
 0002:00002300       ??_C@_19BIFMLPCD@?$AAJ?$AAu?$AAl?$AAy?$AA?$AA@ 0000000180025300     libucrt:nlsdata.obj
 0002:00002310       ??_C@_1O@PAHLKOAC@?$AAA?$AAu?$AAg?$AAu?$AAs?$AAt?$AA?$AA@ 0000000180025310     libucrt:nlsdata.obj
 0002:00002320       ??_C@_1BE@DKAAMBJL@?$AAS?$AAe?$AAp?$AAt?$AAe?$AAm?$AAb?$AAe?$AAr?$AA?$AA@ 0000000180025320     libucrt:nlsdata.obj
 0002:00002338       ??_C@_1BA@EPANDLNG@?$AAO?$AAc?$AAt?$AAo?$AAb?$AAe?$AAr?$AA?$AA@ 0000000180025338     libucrt:nlsdata.obj
 0002:00002348       ??_C@_1BC@BGLIFPF@?$AAN?$AAo?$AAv?$AAe?$AAm?$AAb?$AAe?$AAr?$AA?$AA@ 0000000180025348     libucrt:nlsdata.obj
 0002:00002360       ??_C@_1BC@FEMKIFH@?$AAD?$AAe?$AAc?$AAe?$AAm?$AAb?$AAe?$AAr?$AA?$AA@ 0000000180025360     libucrt:nlsdata.obj
 0002:00002374       ??_C@_15ODEHAHHF@?$AAA?$AAM?$AA?$AA@ 0000000180025374     libucrt:nlsdata.obj
 0002:0000237c       ??_C@_15CLMNNGEL@?$AAP?$AAM?$AA?$AA@ 000000018002537c     libucrt:nlsdata.obj
 0002:00002388       ??_C@_1BC@IEBCMHCM@?$AAM?$AAM?$AA?1?$AAd?$AAd?$AA?1?$AAy?$AAy?$AA?$AA@ 0000000180025388     libucrt:nlsdata.obj
 0002:000023a0       ??_C@_1CI@KNAKOEBC@?$AAd?$AAd?$AAd?$AAd?$AA?0?$AA?5?$AAM?$AAM?$AAM?$AAM?$AA?5?$AAd?$AAd?$AA?0?$AA?5?$AAy?$AAy?$AAy?$AAy?$AA?$AA@ 00000001800253a0     libucrt:nlsdata.obj
 0002:000023c8       ??_C@_1BC@GDGBMEMK@?$AAH?$AAH?$AA?3?$AAm?$AAm?$AA?3?$AAs?$AAs?$AA?$AA@ 00000001800253c8     libucrt:nlsdata.obj
 0002:000023e0       ??_C@_1M@BMHNFIME@?$AAe?$AAn?$AA?9?$AAU?$AAS?$AA?$AA@ 00000001800253e0     libucrt:nlsdata.obj
 0002:000023f0       _sys_errlist               00000001800253f0     libucrt:syserr.obj
 0002:00002550       ??_C@_08INEPGKHH@No?5error?$AA@ 0000000180025550     libucrt:syserr.obj
 0002:00002560       ??_C@_0BI@BJFCGOHL@Operation?5not?5permitted?$AA@ 0000000180025560     libucrt:syserr.obj
 0002:00002578       ??_C@_0BK@FMDHKPNF@No?5such?5file?5or?5directory?$AA@ 0000000180025578     libucrt:syserr.obj
 0002:00002598       ??_C@_0BA@FKIAIBGA@No?5such?5process?$AA@ 0000000180025598     libucrt:syserr.obj
 0002:000025a8       ??_C@_0BK@FJBOAFDK@Interrupted?5function?5call?$AA@ 00000001800255a8     libucrt:syserr.obj
 0002:000025c8       ??_C@_0BD@KKNFOBBD@Input?1output?5error?$AA@ 00000001800255c8     libucrt:syserr.obj
 0002:000025e0       ??_C@_0BK@DPKMCKJ@No?5such?5device?5or?5address?$AA@ 00000001800255e0     libucrt:syserr.obj
 0002:00002600       ??_C@_0BC@MFFGCDFL@Arg?5list?5too?5long?$AA@ 0000000180025600     libucrt:syserr.obj
 0002:00002618       ??_C@_0BC@HKPNECK@Exec?5format?5error?$AA@ 0000000180025618     libucrt:syserr.obj
 0002:00002630       ??_C@_0BE@NFGDDCEF@Bad?5file?5descriptor?$AA@ 0000000180025630     libucrt:syserr.obj
 0002:00002648       ??_C@_0BD@LOHELEP@No?5child?5processes?$AA@ 0000000180025648     libucrt:syserr.obj
 0002:00002660       ??_C@_0CB@EPFKGNAK@Resource?5temporarily?5unavailable@ 0000000180025660     libucrt:syserr.obj
 0002:00002688       ??_C@_0BB@IMDKMPFB@Not?5enough?5space?$AA@ 0000000180025688     libucrt:syserr.obj
 0002:000026a0       ??_C@_0BC@HFNFNKAI@Permission?5denied?$AA@ 00000001800256a0     libucrt:syserr.obj
 0002:000026b8       ??_C@_0M@LOEHLCJD@Bad?5address?$AA@ 00000001800256b8     libucrt:syserr.obj
 0002:000026c8       ??_C@_0O@NIPGCINC@Unknown?5error?$AA@ 00000001800256c8     libucrt:syserr.obj
 0002:000026d8       ??_C@_0BA@BIBLIOEK@Resource?5device?$AA@ 00000001800256d8     libucrt:syserr.obj
 0002:000026e8       ??_C@_0M@NAAJNNGH@File?5exists?$AA@ 00000001800256e8     libucrt:syserr.obj
 0002:000026f8       ??_C@_0O@OAMDNOCP@Improper?5link?$AA@ 00000001800256f8     libucrt:syserr.obj
 0002:00002708       ??_C@_0P@NLEIANHE@No?5such?5device?$AA@ 0000000180025708     libucrt:syserr.obj
 0002:00002718       ??_C@_0BA@CJBACOOL@Not?5a?5directory?$AA@ 0000000180025718     libucrt:syserr.obj
 0002:00002728       ??_C@_0P@NDHGCGKE@Is?5a?5directory?$AA@ 0000000180025728     libucrt:syserr.obj
 0002:00002738       ??_C@_0BB@HMGGCEBG@Invalid?5argument?$AA@ 0000000180025738     libucrt:syserr.obj
 0002:00002750       ??_C@_0BO@IIFBODJE@Too?5many?5open?5files?5in?5system?$AA@ 0000000180025750     libucrt:syserr.obj
 0002:00002770       ??_C@_0BE@INBJMKGG@Too?5many?5open?5files?$AA@ 0000000180025770     libucrt:syserr.obj
 0002:00002788       ??_C@_0CE@ONOKNLPF@Inappropriate?5I?1O?5control?5operat@ 0000000180025788     libucrt:syserr.obj
 0002:000027b0       ??_C@_0P@LFMMIPAE@File?5too?5large?$AA@ 00000001800257b0     libucrt:syserr.obj
 0002:000027c0       ??_C@_0BI@FEALHKLD@No?5space?5left?5on?5device?$AA@ 00000001800257c0     libucrt:syserr.obj
 0002:000027d8       ??_C@_0N@FEHLOILP@Invalid?5seek?$AA@ 00000001800257d8     libucrt:syserr.obj
 0002:000027e8       ??_C@_0BG@DDBFNKBH@Read?9only?5file?5system?$AA@ 00000001800257e8     libucrt:syserr.obj
 0002:00002800       ??_C@_0P@PKCJJLLM@Too?5many?5links?$AA@ 0000000180025800     libucrt:syserr.obj
 0002:00002810       ??_C@_0M@LHEPIIOM@Broken?5pipe?$AA@ 0000000180025810     libucrt:syserr.obj
 0002:00002820       ??_C@_0N@MMJPGLJK@Domain?5error?$AA@ 0000000180025820     libucrt:syserr.obj
 0002:00002830       ??_C@_0BB@FCBJFCAJ@Result?5too?5large?$AA@ 0000000180025830     libucrt:syserr.obj
 0002:00002848       ??_C@_0BK@JAEBMJJM@Resource?5deadlock?5avoided?$AA@ 0000000180025848     libucrt:syserr.obj
 0002:00002868       ??_C@_0BC@BEDIHIDK@Filename?5too?5long?$AA@ 0000000180025868     libucrt:syserr.obj
 0002:00002880       ??_C@_0BD@CLHBCGPB@No?5locks?5available?$AA@ 0000000180025880     libucrt:syserr.obj
 0002:00002898       ??_C@_0BJ@IHEHINLI@Function?5not?5implemented?$AA@ 0000000180025898     libucrt:syserr.obj
 0002:000028b8       ??_C@_0BE@ICMCHPHH@Directory?5not?5empty?$AA@ 00000001800258b8     libucrt:syserr.obj
 0002:000028d0       ??_C@_0BG@KLEAJEFJ@Illegal?5byte?5sequence?$AA@ 00000001800258d0     libucrt:syserr.obj
 0002:000028e8       _sys_nerr                  00000001800258e8     libucrt:syserr.obj
 0002:00002910       ??_C@_1M@HPNHIDJI@?$AAj?$AAa?$AA?9?$AAJ?$AAP?$AA?$AA@ 0000000180025910     libucrt:mbctype.obj
 0002:00002920       ??_C@_1M@BIBDDEMK@?$AAz?$AAh?$AA?9?$AAC?$AAN?$AA?$AA@ 0000000180025920     libucrt:mbctype.obj
 0002:00002930       ??_C@_1M@JLOOOEGK@?$AAk?$AAo?$AA?9?$AAK?$AAR?$AA?$AA@ 0000000180025930     libucrt:mbctype.obj
 0002:00002940       ??_C@_1M@CLNBBOPM@?$AAz?$AAh?$AA?9?$AAT?$AAW?$AA?$AA@ 0000000180025940     libucrt:mbctype.obj
 0002:00002950       __newctype                 0000000180025950     libucrt:ctype.obj
 0002:00002c50       __newclmap                 0000000180025c50     libucrt:ctype.obj
 0002:00002dd0       __newcumap                 0000000180025dd0     libucrt:ctype.obj
 0002:00002f50       _wctype                    0000000180025f50     libucrt:ctype.obj
 0002:00003fa0       ??_C@_15EMKDOKLE@?$AAa?$AAr?$AA?$AA@ 0000000180026fa0     libucrt:lcidtoname_downlevel.obj
 0002:00003fa8       ??_C@_15KNPADPLH@?$AAb?$AAg?$AA?$AA@ 0000000180026fa8     libucrt:lcidtoname_downlevel.obj
 0002:00003fb0       ??_C@_15EDMHLDMO@?$AAc?$AAa?$AA?$AA@ 0000000180026fb0     libucrt:lcidtoname_downlevel.obj
 0002:00003fb8       ??_C@_1O@BPEAJADD@?$AAz?$AAh?$AA?9?$AAC?$AAH?$AAS?$AA?$AA@ 0000000180026fb8     libucrt:lcidtoname_downlevel.obj
 0002:00003fc8       ??_C@_15LJNHCMNK@?$AAc?$AAs?$AA?$AA@ 0000000180026fc8     libucrt:lcidtoname_downlevel.obj
 0002:00003fd0       ??_C@_15FOMCIDHG@?$AAd?$AAa?$AA?$AA@ 0000000180026fd0     libucrt:lcidtoname_downlevel.obj
 0002:00003fd8       ??_C@_15NBKABECB@?$AAd?$AAe?$AA?$AA@ 0000000180026fd8     libucrt:lcidtoname_downlevel.obj
 0002:00003fe0       ??_C@_15GHPEIIAO@?$AAe?$AAl?$AA?$AA@ 0000000180026fe0     libucrt:lcidtoname_downlevel.obj
 0002:00003fe8       ??_C@_15MNPNEAIF@?$AAe?$AAn?$AA?$AA@ 0000000180026fe8     libucrt:lcidtoname_downlevel.obj
 0002:00003ff0       ??_C@_15GPIOMPMH@?$AAe?$AAs?$AA?$AA@ 0000000180026ff0     libucrt:lcidtoname_downlevel.obj
 0002:00003ff8       ??_C@_15NGLOAKJC@?$AAf?$AAi?$AA?$AA@ 0000000180026ff8     libucrt:lcidtoname_downlevel.obj
 0002:00004000       ??_C@_15FBKGNKAM@?$AAf?$AAr?$AA?$AA@ 0000000180027000     libucrt:lcidtoname_downlevel.obj
 0002:00004008       ??_C@_15KGGCNEFK@?$AAh?$AAe?$AA?$AA@ 0000000180027008     libucrt:lcidtoname_downlevel.obj
 0002:00004010       ??_C@_15PGHLIDMF@?$AAh?$AAu?$AA?$AA@ 0000000180027010     libucrt:lcidtoname_downlevel.obj
 0002:00004018       ??_C@_15BIEMAPLM@?$AAi?$AAs?$AA?$AA@ 0000000180027018     libucrt:lcidtoname_downlevel.obj
 0002:00004020       ??_C@_15IFJLDHAF@?$AAi?$AAt?$AA?$AA@ 0000000180027020     libucrt:lcidtoname_downlevel.obj
 0002:00004028       ??_C@_15GEMIOCAG@?$AAj?$AAa?$AA?$AA@ 0000000180027028     libucrt:lcidtoname_downlevel.obj
 0002:00004030       ??_C@_15EPELEGJA@?$AAk?$AAo?$AA?$AA@ 0000000180027030     libucrt:lcidtoname_downlevel.obj
 0002:00004038       ??_C@_15NDDHIMN@?$AAn?$AAl?$AA?$AA@ 0000000180027038     libucrt:lcidtoname_downlevel.obj
 0002:00004040       ??_C@_15BPIGNHCD@?$AAn?$AAo?$AA?$AA@ 0000000180027040     libucrt:lcidtoname_downlevel.obj
 0002:00004048       ??_C@_15DEOPBLCG@?$AAp?$AAl?$AA?$AA@ 0000000180027048     libucrt:lcidtoname_downlevel.obj
 0002:00004050       ??_C@_15KBECGEFG@?$AAp?$AAt?$AA?$AA@ 0000000180027050     libucrt:lcidtoname_downlevel.obj
 0002:00004058       ??_C@_15GLJCBFMD@?$AAr?$AAo?$AA?$AA@ 0000000180027058     libucrt:lcidtoname_downlevel.obj
 0002:00004060       ??_C@_15FEDGKCDI@?$AAr?$AAu?$AA?$AA@ 0000000180027060     libucrt:lcidtoname_downlevel.obj
 0002:00004068       ??_C@_15GLKMLLHM@?$AAh?$AAr?$AA?$AA@ 0000000180027068     libucrt:lcidtoname_downlevel.obj
 0002:00004070       ??_C@_15CPKMFBDB@?$AAs?$AAk?$AA?$AA@ 0000000180027070     libucrt:lcidtoname_downlevel.obj
 0002:00004078       ??_C@_15BAAIOGMK@?$AAs?$AAq?$AA?$AA@ 0000000180027078     libucrt:lcidtoname_downlevel.obj
 0002:00004080       ??_C@_15INNPNOHD@?$AAs?$AAv?$AA?$AA@ 0000000180027080     libucrt:lcidtoname_downlevel.obj
 0002:00004088       ??_C@_15CABMMOGH@?$AAt?$AAh?$AA?$AA@ 0000000180027088     libucrt:lcidtoname_downlevel.obj
 0002:00004090       ??_C@_15BPLIHJJM@?$AAt?$AAr?$AA?$AA@ 0000000180027090     libucrt:lcidtoname_downlevel.obj
 0002:00004098       ??_C@_15NEOEKKDJ@?$AAu?$AAr?$AA?$AA@ 0000000180027098     libucrt:lcidtoname_downlevel.obj
 0002:000040a0       ??_C@_15NFICGAJK@?$AAi?$AAd?$AA?$AA@ 00000001800270a0     libucrt:lcidtoname_downlevel.obj
 0002:000040a8       ??_C@_15PJPFLCCM@?$AAu?$AAk?$AA?$AA@ 00000001800270a8     libucrt:lcidtoname_downlevel.obj
 0002:000040b0       ??_C@_15HPJPHDM@?$AAb?$AAe?$AA?$AA@ 00000001800270b0     libucrt:lcidtoname_downlevel.obj
 0002:000040b8       ??_C@_15LCHLGJII@?$AAs?$AAl?$AA?$AA@ 00000001800270b8     libucrt:lcidtoname_downlevel.obj
 0002:000040c0       ??_C@_15PCFJPHHO@?$AAe?$AAt?$AA?$AA@ 00000001800270c0     libucrt:lcidtoname_downlevel.obj
 0002:000040c8       ??_C@_15HPFPGODN@?$AAl?$AAv?$AA?$AA@ 00000001800270c8     libucrt:lcidtoname_downlevel.obj
 0002:000040d0       ??_C@_15NFFGKGLG@?$AAl?$AAt?$AA?$AA@ 00000001800270d0     libucrt:lcidtoname_downlevel.obj
 0002:000040d8       ??_C@_15BDAKCCHN@?$AAf?$AAa?$AA?$AA@ 00000001800270d8     libucrt:lcidtoname_downlevel.obj
 0002:000040e0       ??_C@_15NFGIAIAJ@?$AAv?$AAi?$AA?$AA@ 00000001800270e0     libucrt:lcidtoname_downlevel.obj
 0002:000040e8       ??_C@_15LMKNDMHN@?$AAh?$AAy?$AA?$AA@ 00000001800270e8     libucrt:lcidtoname_downlevel.obj
 0002:000040f0       ??_C@_15IJBHMCFL@?$AAa?$AAz?$AA?$AA@ 00000001800270f0     libucrt:lcidtoname_downlevel.obj
 0002:000040f8       ??_C@_15EKOFJABL@?$AAe?$AAu?$AA?$AA@ 00000001800270f8     libucrt:lcidtoname_downlevel.obj
 0002:00004100       ??_C@_15BGHADCNK@?$AAm?$AAk?$AA?$AA@ 0000000180027100     libucrt:lcidtoname_downlevel.obj
 0002:00004108       ??_C@_15JDNICKHM@?$AAa?$AAf?$AA?$AA@ 0000000180027108     libucrt:lcidtoname_downlevel.obj
 0002:00004110       ??_C@_15KPJEDBKD@?$AAk?$AAa?$AA?$AA@ 0000000180027110     libucrt:lcidtoname_downlevel.obj
 0002:00004118       ??_C@_15PDNFFFEO@?$AAf?$AAo?$AA?$AA@ 0000000180027118     libucrt:lcidtoname_downlevel.obj
 0002:00004120       ??_C@_15OMLEGLOC@?$AAh?$AAi?$AA?$AA@ 0000000180027120     libucrt:lcidtoname_downlevel.obj
 0002:00004128       ??_C@_15IDNNENKK@?$AAm?$AAs?$AA?$AA@ 0000000180027128     libucrt:lcidtoname_downlevel.obj
 0002:00004130       ??_C@_15MACJNBMH@?$AAk?$AAk?$AA?$AA@ 0000000180027130     libucrt:lcidtoname_downlevel.obj
 0002:00004138       ??_C@_15DKDJEOND@?$AAk?$AAy?$AA?$AA@ 0000000180027138     libucrt:lcidtoname_downlevel.obj
 0002:00004140       ??_C@_15DFGDLJBG@?$AAs?$AAw?$AA?$AA@ 0000000180027140     libucrt:lcidtoname_downlevel.obj
 0002:00004148       ??_C@_15BBFAICNG@?$AAu?$AAz?$AA?$AA@ 0000000180027148     libucrt:lcidtoname_downlevel.obj
 0002:00004150       ??_C@_15DKNDCGEA@?$AAt?$AAt?$AA?$AA@ 0000000180027150     libucrt:lcidtoname_downlevel.obj
 0002:00004158       ??_C@_15MGIFMDPL@?$AAp?$AAa?$AA?$AA@ 0000000180027158     libucrt:lcidtoname_downlevel.obj
 0002:00004160       ??_C@_15HCNDBBA@?$AAg?$AAu?$AA?$AA@ 0000000180027160     libucrt:lcidtoname_downlevel.obj
 0002:00004168       ??_C@_15FNBEIBON@?$AAt?$AAa?$AA?$AA@ 0000000180027168     libucrt:lcidtoname_downlevel.obj
 0002:00004170       ??_C@_15NCHGBGLK@?$AAt?$AAe?$AA?$AA@ 0000000180027170     libucrt:lcidtoname_downlevel.obj
 0002:00004178       ??_C@_15PHPHCBPF@?$AAk?$AAn?$AA?$AA@ 0000000180027178     libucrt:lcidtoname_downlevel.obj
 0002:00004180       ??_C@_15DLGBCKMP@?$AAm?$AAr?$AA?$AA@ 0000000180027180     libucrt:lcidtoname_downlevel.obj
 0002:00004188       ??_C@_15EABBLBFF@?$AAs?$AAa?$AA?$AA@ 0000000180027188     libucrt:lcidtoname_downlevel.obj
 0002:00004190       ??_C@_15CBKOMCOI@?$AAm?$AAn?$AA?$AA@ 0000000180027190     libucrt:lcidtoname_downlevel.obj
 0002:00004198       ??_C@_15CKDMCJAF@?$AAg?$AAl?$AA?$AA@ 0000000180027198     libucrt:lcidtoname_downlevel.obj
 0002:000041a0       ??_C@_17CNJFBPG@?$AAk?$AAo?$AAk?$AA?$AA@ 00000001800271a0     libucrt:lcidtoname_downlevel.obj
 0002:000041a8       ??_C@_17FFBJICPL@?$AAs?$AAy?$AAr?$AA?$AA@ 00000001800271a8     libucrt:lcidtoname_downlevel.obj
 0002:000041b0       ??_C@_17KPNDCPAF@?$AAd?$AAi?$AAv?$AA?$AA@ 00000001800271b0     libucrt:lcidtoname_downlevel.obj
 0002:000041b8       ??_C@_1M@OKAHONE@?$AAa?$AAr?$AA?9?$AAS?$AAA?$AA?$AA@ 00000001800271b8     libucrt:lcidtoname_downlevel.obj
 0002:000041c8       ??_C@_1M@FFFIGIGK@?$AAb?$AAg?$AA?9?$AAB?$AAG?$AA?$AA@ 00000001800271c8     libucrt:lcidtoname_downlevel.obj
 0002:000041d8       ??_C@_1M@BJNKEDC@?$AAc?$AAa?$AA?9?$AAE?$AAS?$AA?$AA@ 00000001800271d8     libucrt:lcidtoname_downlevel.obj
 0002:000041e8       ??_C@_1M@IJJHFJHA@?$AAc?$AAs?$AA?9?$AAC?$AAZ?$AA?$AA@ 00000001800271e8     libucrt:lcidtoname_downlevel.obj
 0002:000041f8       ??_C@_1M@CLPEOBGI@?$AAd?$AAa?$AA?9?$AAD?$AAK?$AA?$AA@ 00000001800271f8     libucrt:lcidtoname_downlevel.obj
 0002:00004208       ??_C@_1M@MCMADGCB@?$AAd?$AAe?$AA?9?$AAD?$AAE?$AA?$AA@ 0000000180027208     libucrt:lcidtoname_downlevel.obj
 0002:00004218       ??_C@_1M@OOCKEMAM@?$AAe?$AAl?$AA?9?$AAG?$AAR?$AA?$AA@ 0000000180027218     libucrt:lcidtoname_downlevel.obj
 0002:00004228       ??_C@_1M@DDNJFGID@?$AAf?$AAi?$AA?9?$AAF?$AAI?$AA?$AA@ 0000000180027228     libucrt:lcidtoname_downlevel.obj
 0002:00004238       ??_C@_1M@GLIPPMAC@?$AAf?$AAr?$AA?9?$AAF?$AAR?$AA?$AA@ 0000000180027238     libucrt:lcidtoname_downlevel.obj
 0002:00004248       ??_C@_1M@GFMCHPE@?$AAh?$AAe?$AA?9?$AAI?$AAL?$AA?$AA@ 0000000180027248     libucrt:lcidtoname_downlevel.obj
 0002:00004258       ??_C@_1M@MHLPGNKM@?$AAh?$AAu?$AA?9?$AAH?$AAU?$AA?$AA@ 0000000180027258     libucrt:lcidtoname_downlevel.obj
 0002:00004268       ??_C@_1M@LPDDNNPN@?$AAi?$AAs?$AA?9?$AAI?$AAS?$AA?$AA@ 0000000180027268     libucrt:lcidtoname_downlevel.obj
 0002:00004278       ??_C@_1M@MADIPODN@?$AAi?$AAt?$AA?9?$AAI?$AAT?$AA?$AA@ 0000000180027278     libucrt:lcidtoname_downlevel.obj
 0002:00004288       ??_C@_1M@IHBJJGG@?$AAn?$AAl?$AA?9?$AAN?$AAL?$AA?$AA@ 0000000180027288     libucrt:lcidtoname_downlevel.obj
 0002:00004298       ??_C@_1M@EANAGDL@?$AAn?$AAb?$AA?9?$AAN?$AAO?$AA?$AA@ 0000000180027298     libucrt:lcidtoname_downlevel.obj
 0002:000042a8       ??_C@_1M@NEIEMEGP@?$AAp?$AAl?$AA?9?$AAP?$AAL?$AA?$AA@ 00000001800272a8     libucrt:lcidtoname_downlevel.obj
 0002:000042b8       ??_C@_1M@BOCFIGEP@?$AAp?$AAt?$AA?9?$AAB?$AAR?$AA?$AA@ 00000001800272b8     libucrt:lcidtoname_downlevel.obj
 0002:000042c8       ??_C@_1M@IMPFOPBG@?$AAr?$AAo?$AA?9?$AAR?$AAO?$AA?$AA@ 00000001800272c8     libucrt:lcidtoname_downlevel.obj
 0002:000042d8       ??_C@_1M@IDNNEJMM@?$AAr?$AAu?$AA?9?$AAR?$AAU?$AA?$AA@ 00000001800272d8     libucrt:lcidtoname_downlevel.obj
 0002:000042e8       ??_C@_1M@LILEEOGM@?$AAh?$AAr?$AA?9?$AAH?$AAR?$AA?$AA@ 00000001800272e8     libucrt:lcidtoname_downlevel.obj
 0002:000042f8       ??_C@_1M@FKIFEHPB@?$AAs?$AAk?$AA?9?$AAS?$AAK?$AA?$AA@ 00000001800272f8     libucrt:lcidtoname_downlevel.obj
 0002:00004308       ??_C@_1M@LJMAMNPJ@?$AAs?$AAq?$AA?9?$AAA?$AAL?$AA?$AA@ 0000000180027308     libucrt:lcidtoname_downlevel.obj
 0002:00004318       ??_C@_1M@GIAKDKJK@?$AAs?$AAv?$AA?9?$AAS?$AAE?$AA?$AA@ 0000000180027318     libucrt:lcidtoname_downlevel.obj
 0002:00004328       ??_C@_1M@MKJKIKCL@?$AAt?$AAh?$AA?9?$AAT?$AAH?$AA?$AA@ 0000000180027328     libucrt:lcidtoname_downlevel.obj
 0002:00004338       ??_C@_1M@MFLCCMPB@?$AAt?$AAr?$AA?9?$AAT?$AAR?$AA?$AA@ 0000000180027338     libucrt:lcidtoname_downlevel.obj
 0002:00004348       ??_C@_1M@OIJHDKJN@?$AAu?$AAr?$AA?9?$AAP?$AAK?$AA?$AA@ 0000000180027348     libucrt:lcidtoname_downlevel.obj
 0002:00004358       ??_C@_1M@LHIPCIEK@?$AAi?$AAd?$AA?9?$AAI?$AAD?$AA?$AA@ 0000000180027358     libucrt:lcidtoname_downlevel.obj
 0002:00004368       ??_C@_1M@MFMOBGI@?$AAu?$AAk?$AA?9?$AAU?$AAA?$AA?$AA@ 0000000180027368     libucrt:lcidtoname_downlevel.obj
 0002:00004378       ??_C@_1M@OBGLJIPL@?$AAb?$AAe?$AA?9?$AAB?$AAY?$AA?$AA@ 0000000180027378     libucrt:lcidtoname_downlevel.obj
 0002:00004388       ??_C@_1M@BCFAJEAD@?$AAs?$AAl?$AA?9?$AAS?$AAI?$AA?$AA@ 0000000180027388     libucrt:lcidtoname_downlevel.obj
 0002:00004398       ??_C@_1M@FKFFEDDN@?$AAe?$AAt?$AA?9?$AAE?$AAE?$AA?$AA@ 0000000180027398     libucrt:lcidtoname_downlevel.obj
 0002:000043a8       ??_C@_1M@KGKKAACI@?$AAl?$AAv?$AA?9?$AAL?$AAV?$AA?$AA@ 00000001800273a8     libucrt:lcidtoname_downlevel.obj
 0002:000043b8       ??_C@_1M@IFGBIJO@?$AAl?$AAt?$AA?9?$AAL?$AAT?$AA?$AA@ 00000001800273b8     libucrt:lcidtoname_downlevel.obj
 0002:000043c8       ??_C@_1M@FGEAHEDM@?$AAf?$AAa?$AA?9?$AAI?$AAR?$AA?$AA@ 00000001800273c8     libucrt:lcidtoname_downlevel.obj
 0002:000043d8       ??_C@_1M@KBMAIBFN@?$AAv?$AAi?$AA?9?$AAV?$AAN?$AA?$AA@ 00000001800273d8     libucrt:lcidtoname_downlevel.obj
 0002:000043e8       ??_C@_1M@GPCBKDJK@?$AAh?$AAy?$AA?9?$AAA?$AAM?$AA?$AA@ 00000001800273e8     libucrt:lcidtoname_downlevel.obj
 0002:000043f8       ??_C@_1BG@BECMDDJB@?$AAa?$AAz?$AA?9?$AAA?$AAZ?$AA?9?$AAL?$AAa?$AAt?$AAn?$AA?$AA@ 00000001800273f8     libucrt:lcidtoname_downlevel.obj
 0002:00004410       ??_C@_1M@MAOFCAEA@?$AAe?$AAu?$AA?9?$AAE?$AAS?$AA?$AA@ 0000000180027410     libucrt:lcidtoname_downlevel.obj
 0002:00004420       ??_C@_1M@IGHABKPI@?$AAm?$AAk?$AA?9?$AAM?$AAK?$AA?$AA@ 0000000180027420     libucrt:lcidtoname_downlevel.obj
 0002:00004430       ??_C@_1M@IAIGNEJG@?$AAt?$AAn?$AA?9?$AAZ?$AAA?$AA?$AA@ 0000000180027430     libucrt:lcidtoname_downlevel.obj
 0002:00004440       ??_C@_1M@IIJCOJFA@?$AAx?$AAh?$AA?9?$AAZ?$AAA?$AA?$AA@ 0000000180027440     libucrt:lcidtoname_downlevel.obj
 0002:00004450       ??_C@_1M@LGPJHNJH@?$AAz?$AAu?$AA?9?$AAZ?$AAA?$AA?$AA@ 0000000180027450     libucrt:lcidtoname_downlevel.obj
 0002:00004460       ??_C@_1M@HOKAOIO@?$AAa?$AAf?$AA?9?$AAZ?$AAA?$AA?$AA@ 0000000180027460     libucrt:lcidtoname_downlevel.obj
 0002:00004470       ??_C@_1M@DPCLHLIE@?$AAk?$AAa?$AA?9?$AAG?$AAE?$AA?$AA@ 0000000180027470     libucrt:lcidtoname_downlevel.obj
 0002:00004480       ??_C@_1M@BLKMHJBI@?$AAf?$AAo?$AA?9?$AAF?$AAO?$AA?$AA@ 0000000180027480     libucrt:lcidtoname_downlevel.obj
 0002:00004490       ??_C@_1M@LGGJAPPB@?$AAh?$AAi?$AA?9?$AAI?$AAN?$AA?$AA@ 0000000180027490     libucrt:lcidtoname_downlevel.obj
 0002:000044a0       ??_C@_1M@FIKPIHFE@?$AAm?$AAt?$AA?9?$AAM?$AAT?$AA?$AA@ 00000001800274a0     libucrt:lcidtoname_downlevel.obj
 0002:000044b0       ??_C@_1M@HEGGPBFA@?$AAs?$AAe?$AA?9?$AAN?$AAO?$AA?$AA@ 00000001800274b0     libucrt:lcidtoname_downlevel.obj
 0002:000044c0       ??_C@_1M@EIBJEEPA@?$AAm?$AAs?$AA?9?$AAM?$AAY?$AA?$AA@ 00000001800274c0     libucrt:lcidtoname_downlevel.obj
 0002:000044d0       ??_C@_1M@FHLBGMPP@?$AAk?$AAk?$AA?9?$AAK?$AAZ?$AA?$AA@ 00000001800274d0     libucrt:lcidtoname_downlevel.obj
 0002:000044e0       ??_C@_1M@NGJJLCGI@?$AAk?$AAy?$AA?9?$AAK?$AAG?$AA?$AA@ 00000001800274e0     libucrt:lcidtoname_downlevel.obj
 0002:000044f0       ??_C@_1M@GIENNBFC@?$AAs?$AAw?$AA?9?$AAK?$AAE?$AA?$AA@ 00000001800274f0     libucrt:lcidtoname_downlevel.obj
 0002:00004500       ??_C@_1BG@NDGMJIMJ@?$AAu?$AAz?$AA?9?$AAU?$AAZ?$AA?9?$AAL?$AAa?$AAt?$AAn?$AA?$AA@ 0000000180027500     libucrt:lcidtoname_downlevel.obj
 0002:00004518       ??_C@_1M@IDCCIHBC@?$AAt?$AAt?$AA?9?$AAR?$AAU?$AA?$AA@ 0000000180027518     libucrt:lcidtoname_downlevel.obj
 0002:00004528       ??_C@_1M@LOICPMOJ@?$AAb?$AAn?$AA?9?$AAI?$AAN?$AA?$AA@ 0000000180027528     libucrt:lcidtoname_downlevel.obj
 0002:00004538       ??_C@_1M@KPKKNEAH@?$AAp?$AAa?$AA?9?$AAI?$AAN?$AA?$AA@ 0000000180027538     libucrt:lcidtoname_downlevel.obj
 0002:00004548       ??_C@_1M@PJGPPBOG@?$AAg?$AAu?$AA?9?$AAI?$AAN?$AA?$AA@ 0000000180027548     libucrt:lcidtoname_downlevel.obj
 0002:00004558       ??_C@_1M@KMKMOPHI@?$AAt?$AAa?$AA?9?$AAI?$AAN?$AA?$AA@ 0000000180027558     libucrt:lcidtoname_downlevel.obj
 0002:00004568       ??_C@_1M@KFEHEPAC@?$AAt?$AAe?$AA?9?$AAI?$AAN?$AA?$AA@ 0000000180027568     libucrt:lcidtoname_downlevel.obj
 0002:00004578       ??_C@_1M@CDCLMGHI@?$AAk?$AAn?$AA?9?$AAI?$AAN?$AA?$AA@ 0000000180027578     libucrt:lcidtoname_downlevel.obj
 0002:00004588       ??_C@_1M@MIODLDKF@?$AAm?$AAl?$AA?9?$AAI?$AAN?$AA?$AA@ 0000000180027588     libucrt:lcidtoname_downlevel.obj
 0002:00004598       ??_C@_1M@PBIEACPO@?$AAm?$AAr?$AA?9?$AAI?$AAN?$AA?$AA@ 0000000180027598     libucrt:lcidtoname_downlevel.obj
 0002:000045a8       ??_C@_1M@NIDEAGPH@?$AAs?$AAa?$AA?9?$AAI?$AAN?$AA?$AA@ 00000001800275a8     libucrt:lcidtoname_downlevel.obj
 0002:000045b8       ??_C@_1M@FHIHCBIO@?$AAm?$AAn?$AA?9?$AAM?$AAN?$AA?$AA@ 00000001800275b8     libucrt:lcidtoname_downlevel.obj
 0002:000045c8       ??_C@_1M@JAIJPENP@?$AAc?$AAy?$AA?9?$AAG?$AAB?$AA?$AA@ 00000001800275c8     libucrt:lcidtoname_downlevel.obj
 0002:000045d8       ??_C@_1M@PHGFBEPN@?$AAg?$AAl?$AA?9?$AAE?$AAS?$AA?$AA@ 00000001800275d8     libucrt:lcidtoname_downlevel.obj
 0002:000045e8       ??_C@_1O@KPIPDNCP@?$AAk?$AAo?$AAk?$AA?9?$AAI?$AAN?$AA?$AA@ 00000001800275e8     libucrt:lcidtoname_downlevel.obj
 0002:000045f8       ??_C@_1O@KNHJLDJA@?$AAs?$AAy?$AAr?$AA?9?$AAS?$AAY?$AA?$AA@ 00000001800275f8     libucrt:lcidtoname_downlevel.obj
 0002:00004608       ??_C@_1O@MKEKBLAH@?$AAd?$AAi?$AAv?$AA?9?$AAM?$AAV?$AA?$AA@ 0000000180027608     libucrt:lcidtoname_downlevel.obj
 0002:00004618       ??_C@_1O@OHDCKDDF@?$AAq?$AAu?$AAz?$AA?9?$AAB?$AAO?$AA?$AA@ 0000000180027618     libucrt:lcidtoname_downlevel.obj
 0002:00004628       ??_C@_1M@LEPJNLFD@?$AAn?$AAs?$AA?9?$AAZ?$AAA?$AA?$AA@ 0000000180027628     libucrt:lcidtoname_downlevel.obj
 0002:00004638       ??_C@_1M@OMLEIIJB@?$AAm?$AAi?$AA?9?$AAN?$AAZ?$AA?$AA@ 0000000180027638     libucrt:lcidtoname_downlevel.obj
 0002:00004648       ??_C@_1M@PMPEAILG@?$AAa?$AAr?$AA?9?$AAI?$AAQ?$AA?$AA@ 0000000180027648     libucrt:lcidtoname_downlevel.obj
 0002:00004658       ??_C@_1M@CNKPNOEE@?$AAd?$AAe?$AA?9?$AAC?$AAH?$AA?$AA@ 0000000180027658     libucrt:lcidtoname_downlevel.obj
 0002:00004668       ??_C@_1M@LKMGMLKO@?$AAe?$AAn?$AA?9?$AAG?$AAB?$AA?$AA@ 0000000180027668     libucrt:lcidtoname_downlevel.obj
 0002:00004678       ??_C@_1M@PGKJFFGL@?$AAe?$AAs?$AA?9?$AAM?$AAX?$AA?$AA@ 0000000180027678     libucrt:lcidtoname_downlevel.obj
 0002:00004688       ??_C@_1M@DNNANBDC@?$AAf?$AAr?$AA?9?$AAB?$AAE?$AA?$AA@ 0000000180027688     libucrt:lcidtoname_downlevel.obj
 0002:00004698       ??_C@_1M@HLGMDFHM@?$AAi?$AAt?$AA?9?$AAC?$AAH?$AA?$AA@ 0000000180027698     libucrt:lcidtoname_downlevel.obj
 0002:000046a8       ??_C@_1M@CLLBGJH@?$AAn?$AAl?$AA?9?$AAB?$AAE?$AA?$AA@ 00000001800276a8     libucrt:lcidtoname_downlevel.obj
 0002:000046b8       ??_C@_1M@BODBOGLF@?$AAn?$AAn?$AA?9?$AAN?$AAO?$AA?$AA@ 00000001800276b8     libucrt:lcidtoname_downlevel.obj
 0002:000046c8       ??_C@_1M@HFFAHKAD@?$AAp?$AAt?$AA?9?$AAP?$AAT?$AA?$AA@ 00000001800276c8     libucrt:lcidtoname_downlevel.obj
 0002:000046d8       ??_C@_1BG@LNOAKHIE@?$AAs?$AAr?$AA?9?$AAS?$AAP?$AA?9?$AAL?$AAa?$AAt?$AAn?$AA?$AA@ 00000001800276d8     libucrt:lcidtoname_downlevel.obj
 0002:000046f0       ??_C@_1M@HBMHBGAK@?$AAs?$AAv?$AA?9?$AAF?$AAI?$AA?$AA@ 00000001800276f0     libucrt:lcidtoname_downlevel.obj
 0002:00004700       ??_C@_1BG@DGCJGJBE@?$AAa?$AAz?$AA?9?$AAA?$AAZ?$AA?9?$AAC?$AAy?$AAr?$AAl?$AA?$AA@ 0000000180027700     libucrt:lcidtoname_downlevel.obj
 0002:00004718       ??_C@_1M@KEJDAAHB@?$AAs?$AAe?$AA?9?$AAS?$AAE?$AA?$AA@ 0000000180027718     libucrt:lcidtoname_downlevel.obj
 0002:00004728       ??_C@_1M@HEIBJJAD@?$AAm?$AAs?$AA?9?$AAB?$AAN?$AA?$AA@ 0000000180027728     libucrt:lcidtoname_downlevel.obj
 0002:00004738       ??_C@_1BG@PBGJMCEM@?$AAu?$AAz?$AA?9?$AAU?$AAZ?$AA?9?$AAC?$AAy?$AAr?$AAl?$AA?$AA@ 0000000180027738     libucrt:lcidtoname_downlevel.obj
 0002:00004750       ??_C@_1O@LAOBCMDF@?$AAq?$AAu?$AAz?$AA?9?$AAE?$AAC?$AA?$AA@ 0000000180027750     libucrt:lcidtoname_downlevel.obj
 0002:00004760       ??_C@_1M@POEEMAIO@?$AAa?$AAr?$AA?9?$AAE?$AAG?$AA?$AA@ 0000000180027760     libucrt:lcidtoname_downlevel.obj
 0002:00004770       ??_C@_1M@EFAKDEDL@?$AAz?$AAh?$AA?9?$AAH?$AAK?$AA?$AA@ 0000000180027770     libucrt:lcidtoname_downlevel.obj
 0002:00004780       ??_C@_1M@HKKIJHGI@?$AAd?$AAe?$AA?9?$AAA?$AAT?$AA?$AA@ 0000000180027780     libucrt:lcidtoname_downlevel.obj
 0002:00004790       ??_C@_1M@KBFBEHJF@?$AAe?$AAn?$AA?9?$AAA?$AAU?$AA?$AA@ 0000000180027790     libucrt:lcidtoname_downlevel.obj
 0002:000047a0       ??_C@_1M@MNPLFAAH@?$AAe?$AAs?$AA?9?$AAE?$AAS?$AA?$AA@ 00000001800277a0     libucrt:lcidtoname_downlevel.obj
 0002:000047b0       ??_C@_1M@HJOOJFMA@?$AAf?$AAr?$AA?9?$AAC?$AAA?$AA?$AA@ 00000001800277b0     libucrt:lcidtoname_downlevel.obj
 0002:000047c0       ??_C@_1BG@JPOFPNAB@?$AAs?$AAr?$AA?9?$AAS?$AAP?$AA?9?$AAC?$AAy?$AAr?$AAl?$AA?$AA@ 00000001800277c0     libucrt:lcidtoname_downlevel.obj
 0002:000047d8       ??_C@_1M@LNFOCMOB@?$AAs?$AAe?$AA?9?$AAF?$AAI?$AA?$AA@ 00000001800277d8     libucrt:lcidtoname_downlevel.obj
 0002:000047e8       ??_C@_1O@MGJBOAMB@?$AAq?$AAu?$AAz?$AA?9?$AAP?$AAE?$AA?$AA@ 00000001800277e8     libucrt:lcidtoname_downlevel.obj
 0002:000047f8       ??_C@_1M@GJINLBOK@?$AAa?$AAr?$AA?9?$AAL?$AAY?$AA?$AA@ 00000001800277f8     libucrt:lcidtoname_downlevel.obj
 0002:00004808       ??_C@_1M@GGMNHJNL@?$AAz?$AAh?$AA?9?$AAS?$AAG?$AA?$AA@ 0000000180027808     libucrt:lcidtoname_downlevel.obj
 0002:00004818       ??_C@_1M@HOIKODND@?$AAd?$AAe?$AA?9?$AAL?$AAU?$AA?$AA@ 0000000180027818     libucrt:lcidtoname_downlevel.obj
 0002:00004828       ??_C@_1M@DDOCCGFG@?$AAe?$AAn?$AA?9?$AAC?$AAA?$AA?$AA@ 0000000180027828     libucrt:lcidtoname_downlevel.obj
 0002:00004838       ??_C@_1M@BNOEMJLF@?$AAe?$AAs?$AA?9?$AAG?$AAT?$AA?$AA@ 0000000180027838     libucrt:lcidtoname_downlevel.obj
 0002:00004848       ??_C@_1M@EOGNKEK@?$AAf?$AAr?$AA?9?$AAC?$AAH?$AA?$AA@ 0000000180027848     libucrt:lcidtoname_downlevel.obj
 0002:00004858       ??_C@_1M@FLIDJFHL@?$AAh?$AAr?$AA?9?$AAB?$AAA?$AA?$AA@ 0000000180027858     libucrt:lcidtoname_downlevel.obj
 0002:00004868       ??_C@_1O@FMCELNAJ@?$AAs?$AAm?$AAj?$AA?9?$AAN?$AAO?$AA?$AA@ 0000000180027868     libucrt:lcidtoname_downlevel.obj
 0002:00004878       ??_C@_1M@JHGLJMGJ@?$AAa?$AAr?$AA?9?$AAD?$AAZ?$AA?$AA@ 0000000180027878     libucrt:lcidtoname_downlevel.obj
 0002:00004888       ??_C@_1M@JKKFDCNP@?$AAz?$AAh?$AA?9?$AAM?$AAO?$AA?$AA@ 0000000180027888     libucrt:lcidtoname_downlevel.obj
 0002:00004898       ??_C@_1M@GEEFALPE@?$AAd?$AAe?$AA?9?$AAL?$AAI?$AA?$AA@ 0000000180027898     libucrt:lcidtoname_downlevel.obj
 0002:000048a8       ??_C@_1M@IGEOFBG@?$AAe?$AAn?$AA?9?$AAN?$AAZ?$AA?$AA@ 00000001800278a8     libucrt:lcidtoname_downlevel.obj
 0002:000048b8       ??_C@_1M@KDBONEHP@?$AAe?$AAs?$AA?9?$AAC?$AAR?$AA?$AA@ 00000001800278b8     libucrt:lcidtoname_downlevel.obj
 0002:000048c8       ??_C@_1M@FHMDOHNN@?$AAf?$AAr?$AA?9?$AAL?$AAU?$AA?$AA@ 00000001800278c8     libucrt:lcidtoname_downlevel.obj
 0002:000048d8       ??_C@_1BG@NFKKMAFG@?$AAb?$AAs?$AA?9?$AAB?$AAA?$AA?9?$AAL?$AAa?$AAt?$AAn?$AA?$AA@ 00000001800278d8     libucrt:lcidtoname_downlevel.obj
 0002:000048f0       ??_C@_1O@IMNBEMCI@?$AAs?$AAm?$AAj?$AA?9?$AAS?$AAE?$AA?$AA@ 00000001800278f0     libucrt:lcidtoname_downlevel.obj
 0002:00004900       ??_C@_1M@DHHMBNDP@?$AAa?$AAr?$AA?9?$AAM?$AAA?$AA?$AA@ 0000000180027900     libucrt:lcidtoname_downlevel.obj
 0002:00004910       ??_C@_1M@BNBLJCGH@?$AAe?$AAn?$AA?9?$AAI?$AAE?$AA?$AA@ 0000000180027910     libucrt:lcidtoname_downlevel.obj
 0002:00004920       ??_C@_1M@GEPAFMDL@?$AAe?$AAs?$AA?9?$AAP?$AAA?$AA?$AA@ 0000000180027920     libucrt:lcidtoname_downlevel.obj
 0002:00004930       ??_C@_1M@OJONDMDL@?$AAf?$AAr?$AA?9?$AAM?$AAC?$AA?$AA@ 0000000180027930     libucrt:lcidtoname_downlevel.obj
 0002:00004940       ??_C@_1BG@OBCNFJB@?$AAs?$AAr?$AA?9?$AAB?$AAA?$AA?9?$AAL?$AAa?$AAt?$AAn?$AA?$AA@ 0000000180027940     libucrt:lcidtoname_downlevel.obj
 0002:00004958       ??_C@_1O@KEMEEGPO@?$AAs?$AAm?$AAa?$AA?9?$AAN?$AAO?$AA?$AA@ 0000000180027958     libucrt:lcidtoname_downlevel.obj
 0002:00004968       ??_C@_1M@ELMGFODK@?$AAa?$AAr?$AA?9?$AAT?$AAN?$AA?$AA@ 0000000180027968     libucrt:lcidtoname_downlevel.obj
 0002:00004978       ??_C@_1M@BHDLHFAF@?$AAe?$AAn?$AA?9?$AAZ?$AAA?$AA?$AA@ 0000000180027978     libucrt:lcidtoname_downlevel.obj
 0002:00004988       ??_C@_1M@BMGIGLIF@?$AAe?$AAs?$AA?9?$AAD?$AAO?$AA?$AA@ 0000000180027988     libucrt:lcidtoname_downlevel.obj
 0002:00004998       ??_C@_1BG@CMBHIPBE@?$AAs?$AAr?$AA?9?$AAB?$AAA?$AA?9?$AAC?$AAy?$AAr?$AAl?$AA?$AA@ 0000000180027998     libucrt:lcidtoname_downlevel.obj
 0002:000049b0       ??_C@_1O@HEDBLHNP@?$AAs?$AAm?$AAa?$AA?9?$AAS?$AAE?$AA?$AA@ 00000001800279b0     libucrt:lcidtoname_downlevel.obj
 0002:000049c0       ??_C@_1M@DAGCADIM@?$AAa?$AAr?$AA?9?$AAO?$AAM?$AA?$AA@ 00000001800279c0     libucrt:lcidtoname_downlevel.obj
 0002:000049d0       ??_C@_1M@FODLMICG@?$AAe?$AAn?$AA?9?$AAJ?$AAM?$AA?$AA@ 00000001800279d0     libucrt:lcidtoname_downlevel.obj
 0002:000049e0       ??_C@_1M@DNMLCIHB@?$AAe?$AAs?$AA?9?$AAV?$AAE?$AA?$AA@ 00000001800279e0     libucrt:lcidtoname_downlevel.obj
 0002:000049f0       ??_C@_1O@EOKHMKJK@?$AAs?$AAm?$AAs?$AA?9?$AAF?$AAI?$AA?$AA@ 00000001800279f0     libucrt:lcidtoname_downlevel.obj
 0002:00004a00       ??_C@_1M@CAFJMKOF@?$AAa?$AAr?$AA?9?$AAY?$AAE?$AA?$AA@ 0000000180027a00     libucrt:lcidtoname_downlevel.obj
 0002:00004a10       ??_C@_1M@CBFHIJLI@?$AAe?$AAn?$AA?9?$AAC?$AAB?$AA?$AA@ 0000000180027a10     libucrt:lcidtoname_downlevel.obj
 0002:00004a20       ??_C@_1M@BGNFLDN@?$AAe?$AAs?$AA?9?$AAC?$AAO?$AA?$AA@ 0000000180027a20     libucrt:lcidtoname_downlevel.obj
 0002:00004a30       ??_C@_1O@JMPHMAMC@?$AAs?$AAm?$AAn?$AA?9?$AAF?$AAI?$AA?$AA@ 0000000180027a30     libucrt:lcidtoname_downlevel.obj
 0002:00004a40       ??_C@_1M@JLANABKE@?$AAa?$AAr?$AA?9?$AAS?$AAY?$AA?$AA@ 0000000180027a40     libucrt:lcidtoname_downlevel.obj
 0002:00004a50       ??_C@_1M@HPKGCFGN@?$AAe?$AAn?$AA?9?$AAB?$AAZ?$AA?$AA@ 0000000180027a50     libucrt:lcidtoname_downlevel.obj
 0002:00004a60       ??_C@_1M@OLJCMLGM@?$AAe?$AAs?$AA?9?$AAP?$AAE?$AA?$AA@ 0000000180027a60     libucrt:lcidtoname_downlevel.obj
 0002:00004a70       ??_C@_1M@MKKGFKLE@?$AAa?$AAr?$AA?9?$AAJ?$AAO?$AA?$AA@ 0000000180027a70     libucrt:lcidtoname_downlevel.obj
 0002:00004a80       ??_C@_1M@EKPGLDNI@?$AAe?$AAn?$AA?9?$AAT?$AAT?$AA?$AA@ 0000000180027a80     libucrt:lcidtoname_downlevel.obj
 0002:00004a90       ??_C@_1M@OONGHFHE@?$AAe?$AAs?$AA?9?$AAA?$AAR?$AA?$AA@ 0000000180027a90     libucrt:lcidtoname_downlevel.obj
 0002:00004aa0       ??_C@_1M@OOJFGBHE@?$AAa?$AAr?$AA?9?$AAL?$AAB?$AA?$AA@ 0000000180027aa0     libucrt:lcidtoname_downlevel.obj
 0002:00004ab0       ??_C@_1M@GCEJHNEG@?$AAe?$AAn?$AA?9?$AAZ?$AAW?$AA?$AA@ 0000000180027ab0     libucrt:lcidtoname_downlevel.obj
 0002:00004ac0       ??_C@_1M@JNOCAHJI@?$AAe?$AAs?$AA?9?$AAE?$AAC?$AA?$AA@ 0000000180027ac0     libucrt:lcidtoname_downlevel.obj
 0002:00004ad0       ??_C@_1M@JEFHPGGB@?$AAa?$AAr?$AA?9?$AAK?$AAW?$AA?$AA@ 0000000180027ad0     libucrt:lcidtoname_downlevel.obj
 0002:00004ae0       ??_C@_1M@MLKIBJOJ@?$AAe?$AAn?$AA?9?$AAP?$AAH?$AA?$AA@ 0000000180027ae0     libucrt:lcidtoname_downlevel.obj
 0002:00004af0       ??_C@_1M@BDNIPEND@?$AAe?$AAs?$AA?9?$AAC?$AAL?$AA?$AA@ 0000000180027af0     libucrt:lcidtoname_downlevel.obj
 0002:00004b00       ??_C@_1M@MPNMEKBD@?$AAa?$AAr?$AA?9?$AAA?$AAE?$AA?$AA@ 0000000180027b00     libucrt:lcidtoname_downlevel.obj
 0002:00004b10       ??_C@_1M@KBJALCPI@?$AAe?$AAs?$AA?9?$AAU?$AAY?$AA?$AA@ 0000000180027b10     libucrt:lcidtoname_downlevel.obj
 0002:00004b20       ??_C@_1M@LLCCOAGA@?$AAa?$AAr?$AA?9?$AAB?$AAH?$AA?$AA@ 0000000180027b20     libucrt:lcidtoname_downlevel.obj
 0002:00004b30       ??_C@_1M@PBFNCDEL@?$AAe?$AAs?$AA?9?$AAP?$AAY?$AA?$AA@ 0000000180027b30     libucrt:lcidtoname_downlevel.obj
 0002:00004b40       ??_C@_1M@EDGINPNP@?$AAa?$AAr?$AA?9?$AAQ?$AAA?$AA?$AA@ 0000000180027b40     libucrt:lcidtoname_downlevel.obj
 0002:00004b50       ??_C@_1M@MKDBIIJI@?$AAe?$AAs?$AA?9?$AAB?$AAO?$AA?$AA@ 0000000180027b50     libucrt:lcidtoname_downlevel.obj
 0002:00004b60       ??_C@_1M@CPKKEBLD@?$AAe?$AAs?$AA?9?$AAS?$AAV?$AA?$AA@ 0000000180027b60     libucrt:lcidtoname_downlevel.obj
 0002:00004b70       ??_C@_1M@NDBGMMJL@?$AAe?$AAs?$AA?9?$AAH?$AAN?$AA?$AA@ 0000000180027b70     libucrt:lcidtoname_downlevel.obj
 0002:00004b80       ??_C@_1M@JIJIBHDP@?$AAe?$AAs?$AA?9?$AAN?$AAI?$AA?$AA@ 0000000180027b80     libucrt:lcidtoname_downlevel.obj
 0002:00004b90       ??_C@_1M@CGFMKEEK@?$AAe?$AAs?$AA?9?$AAP?$AAR?$AA?$AA@ 0000000180027b90     libucrt:lcidtoname_downlevel.obj
 0002:00004ba0       ??_C@_1O@ICJHKIIK@?$AAz?$AAh?$AA?9?$AAC?$AAH?$AAT?$AA?$AA@ 0000000180027ba0     libucrt:lcidtoname_downlevel.obj
 0002:00004bb0       ??_C@_15CLNEJCE@?$AAs?$AAr?$AA?$AA@ 0000000180027bb0     libucrt:lcidtoname_downlevel.obj
 0002:00005a00       ??_C@_1M@KAHEKEIG@?$AAa?$AAf?$AA?9?$AAz?$AAa?$AA?$AA@ 0000000180028a00     libucrt:lcidtoname_downlevel.obj
 0002:00005a10       ??_C@_1M@GIECOABL@?$AAa?$AAr?$AA?9?$AAa?$AAe?$AA?$AA@ 0000000180028a10     libucrt:lcidtoname_downlevel.obj
 0002:00005a20       ??_C@_1M@BMLMEKGI@?$AAa?$AAr?$AA?9?$AAb?$AAh?$AA?$AA@ 0000000180028a20     libucrt:lcidtoname_downlevel.obj
 0002:00005a30       ??_C@_1M@DAPFDGGB@?$AAa?$AAr?$AA?9?$AAd?$AAz?$AA?$AA@ 0000000180028a30     libucrt:lcidtoname_downlevel.obj
 0002:00005a40       ??_C@_1M@FJNKGKIG@?$AAa?$AAr?$AA?9?$AAe?$AAg?$AA?$AA@ 0000000180028a40     libucrt:lcidtoname_downlevel.obj
 0002:00005a50       ??_C@_1M@FLGKKCLO@?$AAa?$AAr?$AA?9?$AAi?$AAq?$AA?$AA@ 0000000180028a50     libucrt:lcidtoname_downlevel.obj
 0002:00005a60       ??_C@_1M@GNDIPALM@?$AAa?$AAr?$AA?9?$AAj?$AAo?$AA?$AA@ 0000000180028a60     libucrt:lcidtoname_downlevel.obj
 0002:00005a70       ??_C@_1M@DDMJFMGJ@?$AAa?$AAr?$AA?9?$AAk?$AAw?$AA?$AA@ 0000000180028a70     libucrt:lcidtoname_downlevel.obj
 0002:00005a80       ??_C@_1M@EJALMLHM@?$AAa?$AAr?$AA?9?$AAl?$AAb?$AA?$AA@ 0000000180028a80     libucrt:lcidtoname_downlevel.obj
 0002:00005a90       ??_C@_1M@MOBDBLOC@?$AAa?$AAr?$AA?9?$AAl?$AAy?$AA?$AA@ 0000000180028a90     libucrt:lcidtoname_downlevel.obj
 0002:00005aa0       ??_C@_1M@JAOCLHDH@?$AAa?$AAr?$AA?9?$AAm?$AAa?$AA?$AA@ 0000000180028aa0     libucrt:lcidtoname_downlevel.obj
 0002:00005ab0       ??_C@_1M@JHPMKJIE@?$AAa?$AAr?$AA?9?$AAo?$AAm?$AA?$AA@ 0000000180028ab0     libucrt:lcidtoname_downlevel.obj
 0002:00005ac0       ??_C@_1M@OEPGHFNH@?$AAa?$AAr?$AA?9?$AAq?$AAa?$AA?$AA@ 0000000180028ac0     libucrt:lcidtoname_downlevel.obj
 0002:00005ad0       ??_C@_1M@KJDONENM@?$AAa?$AAr?$AA?9?$AAs?$AAa?$AA?$AA@ 0000000180028ad0     libucrt:lcidtoname_downlevel.obj
 0002:00005ae0       ??_C@_1M@DMJDKLKM@?$AAa?$AAr?$AA?9?$AAs?$AAy?$AA?$AA@ 0000000180028ae0     libucrt:lcidtoname_downlevel.obj
 0002:00005af0       ??_C@_1M@OMFIPEDC@?$AAa?$AAr?$AA?9?$AAt?$AAn?$AA?$AA@ 0000000180028af0     libucrt:lcidtoname_downlevel.obj
 0002:00005b00       ??_C@_1M@IHMHGAON@?$AAa?$AAr?$AA?9?$AAy?$AAe?$AA?$AA@ 0000000180028b00     libucrt:lcidtoname_downlevel.obj
 0002:00005b10       ??_C@_1BG@KDCPGJGB@?$AAa?$AAz?$AA?9?$AAa?$AAz?$AA?9?$AAc?$AAy?$AAr?$AAl?$AA?$AA@ 0000000180028b10     libucrt:lcidtoname_downlevel.obj
 0002:00005b28       ??_C@_1BG@IBCKDDOE@?$AAa?$AAz?$AA?9?$AAa?$AAz?$AA?9?$AAl?$AAa?$AAt?$AAn?$AA?$AA@ 0000000180028b28     libucrt:lcidtoname_downlevel.obj
 0002:00005b40       ??_C@_1M@EGPFDCPD@?$AAb?$AAe?$AA?9?$AAb?$AAy?$AA?$AA@ 0000000180028b40     libucrt:lcidtoname_downlevel.obj
 0002:00005b50       ??_C@_1M@PCMGMCGC@?$AAb?$AAg?$AA?9?$AAb?$AAg?$AA?$AA@ 0000000180028b50     libucrt:lcidtoname_downlevel.obj
 0002:00005b60       ??_C@_1M@BJBMFGOB@?$AAb?$AAn?$AA?9?$AAi?$AAn?$AA?$AA@ 0000000180028b60     libucrt:lcidtoname_downlevel.obj
 0002:00005b70       ??_C@_1BG@EAKMMACD@?$AAb?$AAs?$AA?9?$AAb?$AAa?$AA?9?$AAl?$AAa?$AAt?$AAn?$AA?$AA@ 0000000180028b70     libucrt:lcidtoname_downlevel.obj
 0002:00005b88       ??_C@_1M@KGADAODK@?$AAc?$AAa?$AA?9?$AAe?$AAs?$AA?$AA@ 0000000180028b88     libucrt:lcidtoname_downlevel.obj
 0002:00005b98       ??_C@_1M@COAJPDHI@?$AAc?$AAs?$AA?9?$AAc?$AAz?$AA?$AA@ 0000000180028b98     libucrt:lcidtoname_downlevel.obj
 0002:00005ba8       ??_C@_1M@DHBHFONH@?$AAc?$AAy?$AA?9?$AAg?$AAb?$AA?$AA@ 0000000180028ba8     libucrt:lcidtoname_downlevel.obj
 0002:00005bb8       ??_C@_1M@IMGKELGA@?$AAd?$AAa?$AA?9?$AAd?$AAk?$AA?$AA@ 0000000180028bb8     libucrt:lcidtoname_downlevel.obj
 0002:00005bc8       ??_C@_1M@NNDGDNGA@?$AAd?$AAe?$AA?9?$AAa?$AAt?$AA?$AA@ 0000000180028bc8     libucrt:lcidtoname_downlevel.obj
 0002:00005bd8       ??_C@_1M@IKDBHEEM@?$AAd?$AAe?$AA?9?$AAc?$AAh?$AA?$AA@ 0000000180028bd8     libucrt:lcidtoname_downlevel.obj
 0002:00005be8       ??_C@_1M@GFFOJMCJ@?$AAd?$AAe?$AA?9?$AAd?$AAe?$AA?$AA@ 0000000180028be8     libucrt:lcidtoname_downlevel.obj
 0002:00005bf8       ??_C@_1M@MDNLKBPM@?$AAd?$AAe?$AA?9?$AAl?$AAi?$AA?$AA@ 0000000180028bf8     libucrt:lcidtoname_downlevel.obj
 0002:00005c08       ??_C@_1M@NJBEEJNL@?$AAd?$AAe?$AA?9?$AAl?$AAu?$AA?$AA@ 0000000180028c08     libucrt:lcidtoname_downlevel.obj
 0002:00005c18       ??_C@_1O@GNNELBAP@?$AAd?$AAi?$AAv?$AA?9?$AAm?$AAv?$AA?$AA@ 0000000180028c18     libucrt:lcidtoname_downlevel.obj
 0002:00005c28       ??_C@_1M@EJLEOGAE@?$AAe?$AAl?$AA?9?$AAg?$AAr?$AA?$AA@ 0000000180028c28     libucrt:lcidtoname_downlevel.obj
 0002:00005c38       ??_C@_1M@GMPONJN@?$AAe?$AAn?$AA?9?$AAa?$AAu?$AA?$AA@ 0000000180028c38     libucrt:lcidtoname_downlevel.obj
 0002:00005c48       ??_C@_1M@NIDIIPGF@?$AAe?$AAn?$AA?9?$AAb?$AAz?$AA?$AA@ 0000000180028c48     libucrt:lcidtoname_downlevel.obj
 0002:00005c58       ??_C@_1M@JEHMIMFO@?$AAe?$AAn?$AA?9?$AAc?$AAa?$AA?$AA@ 0000000180028c58     libucrt:lcidtoname_downlevel.obj
 0002:00005c68       ??_C@_1M@IGMJCDLA@?$AAe?$AAn?$AA?9?$AAc?$AAb?$AA?$AA@ 0000000180028c68     libucrt:lcidtoname_downlevel.obj
 0002:00005c78       ??_C@_1M@BNFIGBKG@?$AAe?$AAn?$AA?9?$AAg?$AAb?$AA?$AA@ 0000000180028c78     libucrt:lcidtoname_downlevel.obj
 0002:00005c88       ??_C@_1M@LKIFDIGP@?$AAe?$AAn?$AA?9?$AAi?$AAe?$AA?$AA@ 0000000180028c88     libucrt:lcidtoname_downlevel.obj
 0002:00005c98       ??_C@_1M@PJKFGCCO@?$AAe?$AAn?$AA?9?$AAj?$AAm?$AA?$AA@ 0000000180028c98     libucrt:lcidtoname_downlevel.obj
 0002:00005ca8       ??_C@_1M@KPPKEPBO@?$AAe?$AAn?$AA?9?$AAn?$AAz?$AA?$AA@ 0000000180028ca8     libucrt:lcidtoname_downlevel.obj
 0002:00005cb8       ??_C@_1M@GMDGLDOB@?$AAe?$AAn?$AA?9?$AAp?$AAh?$AA?$AA@ 0000000180028cb8     libucrt:lcidtoname_downlevel.obj
 0002:00005cc8       ??_C@_1M@ONGIBJNA@?$AAe?$AAn?$AA?9?$AAt?$AAt?$AA?$AA@ 0000000180028cc8     libucrt:lcidtoname_downlevel.obj
 0002:00005cd8       ??_C@_1M@LLODPCMM@?$AAe?$AAn?$AA?9?$AAu?$AAs?$AA?$AA@ 0000000180028cd8     libucrt:lcidtoname_downlevel.obj
 0002:00005ce8       ??_C@_1M@LAKFNPAN@?$AAe?$AAn?$AA?9?$AAz?$AAa?$AA?$AA@ 0000000180028ce8     libucrt:lcidtoname_downlevel.obj
 0002:00005cf8       ??_C@_1M@MFNHNHEO@?$AAe?$AAn?$AA?9?$AAz?$AAw?$AA?$AA@ 0000000180028cf8     libucrt:lcidtoname_downlevel.obj
 0002:00005d08       ??_C@_1M@EJEINPHM@?$AAe?$AAs?$AA?9?$AAa?$AAr?$AA?$AA@ 0000000180028d08     libucrt:lcidtoname_downlevel.obj
 0002:00005d18       ??_C@_1M@GNKPCCJA@?$AAe?$AAs?$AA?9?$AAb?$AAo?$AA?$AA@ 0000000180028d18     libucrt:lcidtoname_downlevel.obj
 0002:00005d28       ??_C@_1M@LEEGFONL@?$AAe?$AAs?$AA?9?$AAc?$AAl?$AA?$AA@ 0000000180028d28     libucrt:lcidtoname_downlevel.obj
 0002:00005d38       ??_C@_1M@KGPDPBDF@?$AAe?$AAs?$AA?9?$AAc?$AAo?$AA?$AA@ 0000000180028d38     libucrt:lcidtoname_downlevel.obj
 0002:00005d48       ??_C@_1M@EIAHOHH@?$AAe?$AAs?$AA?9?$AAc?$AAr?$AA?$AA@ 0000000180028d48     libucrt:lcidtoname_downlevel.obj
 0002:00005d58       ??_C@_1M@LLPGMBIN@?$AAe?$AAs?$AA?9?$AAd?$AAo?$AA?$AA@ 0000000180028d58     libucrt:lcidtoname_downlevel.obj
 0002:00005d68       ??_C@_1M@DKHMKNJA@?$AAe?$AAs?$AA?9?$AAe?$AAc?$AA?$AA@ 0000000180028d68     libucrt:lcidtoname_downlevel.obj
 0002:00005d78       ??_C@_1M@GKGFPKAP@?$AAe?$AAs?$AA?9?$AAe?$AAs?$AA?$AA@ 0000000180028d78     libucrt:lcidtoname_downlevel.obj
 0002:00005d88       ??_C@_1M@LKHKGDLN@?$AAe?$AAs?$AA?9?$AAg?$AAt?$AA?$AA@ 0000000180028d88     libucrt:lcidtoname_downlevel.obj
 0002:00005d98       ??_C@_1M@HEIIGGJD@?$AAe?$AAs?$AA?9?$AAh?$AAn?$AA?$AA@ 0000000180028d98     libucrt:lcidtoname_downlevel.obj
 0002:00005da8       ??_C@_1M@FBDHPPGD@?$AAe?$AAs?$AA?9?$AAm?$AAx?$AA?$AA@ 0000000180028da8     libucrt:lcidtoname_downlevel.obj
 0002:00005db8       ??_C@_1M@DPAGLNDH@?$AAe?$AAs?$AA?9?$AAn?$AAi?$AA?$AA@ 0000000180028db8     libucrt:lcidtoname_downlevel.obj
 0002:00005dc8       ??_C@_1M@MDGOPGDD@?$AAe?$AAs?$AA?9?$AAp?$AAa?$AA?$AA@ 0000000180028dc8     libucrt:lcidtoname_downlevel.obj
 0002:00005dd8       ??_C@_1M@EMAMGBGE@?$AAe?$AAs?$AA?9?$AAp?$AAe?$AA?$AA@ 0000000180028dd8     libucrt:lcidtoname_downlevel.obj
 0002:00005de8       ??_C@_1M@IBMCAOEC@?$AAe?$AAs?$AA?9?$AAp?$AAr?$AA?$AA@ 0000000180028de8     libucrt:lcidtoname_downlevel.obj
 0002:00005df8       ??_C@_1M@FGMDIJED@?$AAe?$AAs?$AA?9?$AAp?$AAy?$AA?$AA@ 0000000180028df8     libucrt:lcidtoname_downlevel.obj
 0002:00005e08       ??_C@_1M@IIDEOLLL@?$AAe?$AAs?$AA?9?$AAs?$AAv?$AA?$AA@ 0000000180028e08     libucrt:lcidtoname_downlevel.obj
 0002:00005e18       ??_C@_1M@GAOBIPA@?$AAe?$AAs?$AA?9?$AAu?$AAy?$AA?$AA@ 0000000180028e18     libucrt:lcidtoname_downlevel.obj
 0002:00005e28       ??_C@_1M@JKFFICHJ@?$AAe?$AAs?$AA?9?$AAv?$AAe?$AA?$AA@ 0000000180028e28     libucrt:lcidtoname_downlevel.obj
 0002:00005e38       ??_C@_1M@PNMLOJDF@?$AAe?$AAt?$AA?9?$AAe?$AAe?$AA?$AA@ 0000000180028e38     libucrt:lcidtoname_downlevel.obj
 0002:00005e48       ??_C@_1M@GHHLIKEI@?$AAe?$AAu?$AA?9?$AAe?$AAs?$AA?$AA@ 0000000180028e48     libucrt:lcidtoname_downlevel.obj
 0002:00005e58       ??_C@_1M@PBNONODE@?$AAf?$AAa?$AA?9?$AAi?$AAr?$AA?$AA@ 0000000180028e58     libucrt:lcidtoname_downlevel.obj
 0002:00005e68       ??_C@_1M@JEEHPMIL@?$AAf?$AAi?$AA?9?$AAf?$AAi?$AA?$AA@ 0000000180028e68     libucrt:lcidtoname_downlevel.obj
 0002:00005e78       ??_C@_1M@LMDCNDBA@?$AAf?$AAo?$AA?9?$AAf?$AAo?$AA?$AA@ 0000000180028e78     libucrt:lcidtoname_downlevel.obj
 0002:00005e88       ??_C@_1M@JKEOHLDK@?$AAf?$AAr?$AA?9?$AAb?$AAe?$AA?$AA@ 0000000180028e88     libucrt:lcidtoname_downlevel.obj
 0002:00005e98       ??_C@_1M@NOHADPMI@?$AAf?$AAr?$AA?9?$AAc?$AAa?$AA?$AA@ 0000000180028e98     libucrt:lcidtoname_downlevel.obj
 0002:00005ea8       ??_C@_1M@KDHIHAEC@?$AAf?$AAr?$AA?9?$AAc?$AAh?$AA?$AA@ 0000000180028ea8     libucrt:lcidtoname_downlevel.obj
 0002:00005eb8       ??_C@_1M@MMBBFGAK@?$AAf?$AAr?$AA?9?$AAf?$AAr?$AA?$AA@ 0000000180028eb8     libucrt:lcidtoname_downlevel.obj
 0002:00005ec8       ??_C@_1M@PAFNENNF@?$AAf?$AAr?$AA?9?$AAl?$AAu?$AA?$AA@ 0000000180028ec8     libucrt:lcidtoname_downlevel.obj
 0002:00005ed8       ??_C@_1M@EOHDJGDD@?$AAf?$AAr?$AA?9?$AAm?$AAc?$AA?$AA@ 0000000180028ed8     libucrt:lcidtoname_downlevel.obj
 0002:00005ee8       ??_C@_1M@FAPLLOPF@?$AAg?$AAl?$AA?9?$AAe?$AAs?$AA?$AA@ 0000000180028ee8     libucrt:lcidtoname_downlevel.obj
 0002:00005ef8       ??_C@_1M@FOPBFLOO@?$AAg?$AAu?$AA?9?$AAi?$AAn?$AA?$AA@ 0000000180028ef8     libucrt:lcidtoname_downlevel.obj
 0002:00005f08       ??_C@_1M@KBMCINPM@?$AAh?$AAe?$AA?9?$AAi?$AAl?$AA?$AA@ 0000000180028f08     libucrt:lcidtoname_downlevel.obj
 0002:00005f18       ??_C@_1M@BBPHKFPJ@?$AAh?$AAi?$AA?9?$AAi?$AAn?$AA?$AA@ 0000000180028f18     libucrt:lcidtoname_downlevel.obj
 0002:00005f28       ??_C@_1M@PMBNDPHD@?$AAh?$AAr?$AA?9?$AAb?$AAa?$AA?$AA@ 0000000180028f28     libucrt:lcidtoname_downlevel.obj
 0002:00005f38       ??_C@_1M@BPCKOEGE@?$AAh?$AAr?$AA?9?$AAh?$AAr?$AA?$AA@ 0000000180028f38     libucrt:lcidtoname_downlevel.obj
 0002:00005f48       ??_C@_1M@GACBMHKE@?$AAh?$AAu?$AA?9?$AAh?$AAu?$AA?$AA@ 0000000180028f48     libucrt:lcidtoname_downlevel.obj
 0002:00005f58       ??_C@_1M@MILPAJJC@?$AAh?$AAy?$AA?9?$AAa?$AAm?$AA?$AA@ 0000000180028f58     libucrt:lcidtoname_downlevel.obj
 0002:00005f68       ??_C@_1M@BABBICEC@?$AAi?$AAd?$AA?9?$AAi?$AAd?$AA?$AA@ 0000000180028f68     libucrt:lcidtoname_downlevel.obj
 0002:00005f78       ??_C@_1M@BIKNHHPF@?$AAi?$AAs?$AA?9?$AAi?$AAs?$AA?$AA@ 0000000180028f78     libucrt:lcidtoname_downlevel.obj
 0002:00005f88       ??_C@_1M@NMPCJPHE@?$AAi?$AAt?$AA?9?$AAc?$AAh?$AA?$AA@ 0000000180028f88     libucrt:lcidtoname_downlevel.obj
 0002:00005f98       ??_C@_1M@GHKGFEDF@?$AAi?$AAt?$AA?9?$AAi?$AAt?$AA?$AA@ 0000000180028f98     libucrt:lcidtoname_downlevel.obj
 0002:00005fa8       ??_C@_1M@NIEJCJJA@?$AAj?$AAa?$AA?9?$AAj?$AAp?$AA?$AA@ 0000000180028fa8     libucrt:lcidtoname_downlevel.obj
 0002:00005fb8       ??_C@_1M@JILFNBIM@?$AAk?$AAa?$AA?9?$AAg?$AAe?$AA?$AA@ 0000000180028fb8     libucrt:lcidtoname_downlevel.obj
 0002:00005fc8       ??_C@_1M@PACPMGPH@?$AAk?$AAk?$AA?9?$AAk?$AAz?$AA?$AA@ 0000000180028fc8     libucrt:lcidtoname_downlevel.obj
 0002:00005fd8       ??_C@_1M@IELFGMHA@?$AAk?$AAn?$AA?9?$AAi?$AAn?$AA?$AA@ 0000000180028fd8     libucrt:lcidtoname_downlevel.obj
 0002:00005fe8       ??_C@_1O@IBBJHCH@?$AAk?$AAo?$AAk?$AA?9?$AAi?$AAn?$AA?$AA@ 0000000180028fe8     libucrt:lcidtoname_downlevel.obj
 0002:00005ff8       ??_C@_1M@DMHAEOGC@?$AAk?$AAo?$AA?9?$AAk?$AAr?$AA?$AA@ 0000000180028ff8     libucrt:lcidtoname_downlevel.obj
 0002:00006008       ??_C@_1M@HBAHBIGA@?$AAk?$AAy?$AA?9?$AAk?$AAg?$AA?$AA@ 0000000180029008     libucrt:lcidtoname_downlevel.obj
 0002:00006018       ??_C@_1M@KPMILCJG@?$AAl?$AAt?$AA?9?$AAl?$AAt?$AA?$AA@ 0000000180029018     libucrt:lcidtoname_downlevel.obj
 0002:00006028       ??_C@_1M@BDEKKCA@?$AAl?$AAv?$AA?9?$AAl?$AAv?$AA?$AA@ 0000000180029028     libucrt:lcidtoname_downlevel.obj
 0002:00006038       ??_C@_1M@ELCKCCJJ@?$AAm?$AAi?$AA?9?$AAn?$AAz?$AA?$AA@ 0000000180029038     libucrt:lcidtoname_downlevel.obj
 0002:00006048       ??_C@_1M@CBOOLAPA@?$AAm?$AAk?$AA?9?$AAm?$AAk?$AA?$AA@ 0000000180029048     libucrt:lcidtoname_downlevel.obj
 0002:00006058       ??_C@_1M@GPHNBJKN@?$AAm?$AAl?$AA?9?$AAi?$AAn?$AA?$AA@ 0000000180029058     libucrt:lcidtoname_downlevel.obj
 0002:00006068       ??_C@_1M@PABJILIG@?$AAm?$AAn?$AA?9?$AAm?$AAn?$AA?$AA@ 0000000180029068     libucrt:lcidtoname_downlevel.obj
 0002:00006078       ??_C@_1M@FGBKKIPG@?$AAm?$AAr?$AA?9?$AAi?$AAn?$AA?$AA@ 0000000180029078     libucrt:lcidtoname_downlevel.obj
 0002:00006088       ??_C@_1M@NDBPDDAL@?$AAm?$AAs?$AA?9?$AAb?$AAn?$AA?$AA@ 0000000180029088     libucrt:lcidtoname_downlevel.obj
 0002:00006098       ??_C@_1M@OPIHOOPI@?$AAm?$AAs?$AA?9?$AAm?$AAy?$AA?$AA@ 0000000180029098     libucrt:lcidtoname_downlevel.obj
 0002:000060a8       ??_C@_1M@PPDBCNFM@?$AAm?$AAt?$AA?9?$AAm?$AAt?$AA?$AA@ 00000001800290a8     libucrt:lcidtoname_downlevel.obj
 0002:000060b8       ??_C@_1M@KDJDKMDD@?$AAn?$AAb?$AA?9?$AAn?$AAo?$AA?$AA@ 00000001800290b8     libucrt:lcidtoname_downlevel.obj
 0002:000060c8       ??_C@_1M@KFCFLMJP@?$AAn?$AAl?$AA?9?$AAb?$AAe?$AA?$AA@ 00000001800290c8     libucrt:lcidtoname_downlevel.obj
 0002:000060d8       ??_C@_1M@KPOPDDGO@?$AAn?$AAl?$AA?9?$AAn?$AAl?$AA?$AA@ 00000001800290d8     libucrt:lcidtoname_downlevel.obj
 0002:000060e8       ??_C@_1M@LJKPEMLN@?$AAn?$AAn?$AA?9?$AAn?$AAo?$AA?$AA@ 00000001800290e8     libucrt:lcidtoname_downlevel.obj
 0002:000060f8       ??_C@_1M@BDGHHBFL@?$AAn?$AAs?$AA?9?$AAz?$AAa?$AA?$AA@ 00000001800290f8     libucrt:lcidtoname_downlevel.obj
 0002:00006108       ??_C@_1M@IDEHOAP@?$AAp?$AAa?$AA?9?$AAi?$AAn?$AA?$AA@ 0000000180029108     libucrt:lcidtoname_downlevel.obj
 0002:00006118       ??_C@_1M@HDBKGOGH@?$AAp?$AAl?$AA?9?$AAp?$AAl?$AA?$AA@ 0000000180029118     libucrt:lcidtoname_downlevel.obj
 0002:00006128       ??_C@_1M@LJLLCMEH@?$AAp?$AAt?$AA?9?$AAb?$AAr?$AA?$AA@ 0000000180029128     libucrt:lcidtoname_downlevel.obj
 0002:00006138       ??_C@_1M@NCMONAAL@?$AAp?$AAt?$AA?9?$AAp?$AAt?$AA?$AA@ 0000000180029138     libucrt:lcidtoname_downlevel.obj
 0002:00006148       ??_C@_1O@EAKMAJDN@?$AAq?$AAu?$AAz?$AA?9?$AAb?$AAo?$AA?$AA@ 0000000180029148     libucrt:lcidtoname_downlevel.obj
 0002:00006158       ??_C@_1O@BHHPIGDN@?$AAq?$AAu?$AAz?$AA?9?$AAe?$AAc?$AA?$AA@ 0000000180029158     libucrt:lcidtoname_downlevel.obj
 0002:00006168       ??_C@_1O@GBAPEKMJ@?$AAq?$AAu?$AAz?$AA?9?$AAp?$AAe?$AA?$AA@ 0000000180029168     libucrt:lcidtoname_downlevel.obj
 0002:00006178       ??_C@_1M@CLGLEFBO@?$AAr?$AAo?$AA?9?$AAr?$AAo?$AA?$AA@ 0000000180029178     libucrt:lcidtoname_downlevel.obj
 0002:00006188       ??_C@_1M@CEEDODME@?$AAr?$AAu?$AA?9?$AAr?$AAu?$AA?$AA@ 0000000180029188     libucrt:lcidtoname_downlevel.obj
 0002:00006198       ??_C@_1M@HPKKKMPP@?$AAs?$AAa?$AA?9?$AAi?$AAn?$AA?$AA@ 0000000180029198     libucrt:lcidtoname_downlevel.obj
 0002:000061a8       ??_C@_1M@BKMAIGOJ@?$AAs?$AAe?$AA?9?$AAf?$AAi?$AA?$AA@ 00000001800291a8     libucrt:lcidtoname_downlevel.obj
 0002:000061b8       ??_C@_1M@NDPIFLFI@?$AAs?$AAe?$AA?9?$AAn?$AAo?$AA?$AA@ 00000001800291b8     libucrt:lcidtoname_downlevel.obj
 0002:000061c8       ??_C@_1M@DANKKHJ@?$AAs?$AAe?$AA?9?$AAs?$AAe?$AA?$AA@ 00000001800291c8     libucrt:lcidtoname_downlevel.obj
 0002:000061d8       ??_C@_1M@PNBLONPJ@?$AAs?$AAk?$AA?9?$AAs?$AAk?$AA?$AA@ 00000001800291d8     libucrt:lcidtoname_downlevel.obj
 0002:000061e8       ??_C@_1M@LFMODOAL@?$AAs?$AAl?$AA?9?$AAs?$AAi?$AA?$AA@ 00000001800291e8     libucrt:lcidtoname_downlevel.obj
 0002:000061f8       ??_C@_1O@DFKOMPG@?$AAs?$AAm?$AAa?$AA?9?$AAn?$AAo?$AA?$AA@ 00000001800291f8     libucrt:lcidtoname_downlevel.obj
 0002:00006208       ??_C@_1O@NDKPBNNH@?$AAs?$AAm?$AAa?$AA?9?$AAs?$AAe?$AA?$AA@ 0000000180029208     libucrt:lcidtoname_downlevel.obj
 0002:00006218       ??_C@_1O@PLLKBHAB@?$AAs?$AAm?$AAj?$AA?9?$AAn?$AAo?$AA?$AA@ 0000000180029218     libucrt:lcidtoname_downlevel.obj
 0002:00006228       ??_C@_1O@CLEPOGCA@?$AAs?$AAm?$AAj?$AA?9?$AAs?$AAe?$AA?$AA@ 0000000180029228     libucrt:lcidtoname_downlevel.obj
 0002:00006238       ??_C@_1O@DLGJGKMK@?$AAs?$AAm?$AAn?$AA?9?$AAf?$AAi?$AA?$AA@ 0000000180029238     libucrt:lcidtoname_downlevel.obj
 0002:00006248       ??_C@_1O@OJDJGAJC@?$AAs?$AAm?$AAs?$AA?9?$AAf?$AAi?$AA?$AA@ 0000000180029248     libucrt:lcidtoname_downlevel.obj
 0002:00006258       ??_C@_1M@BOFOGHPB@?$AAs?$AAq?$AA?9?$AAa?$AAl?$AA?$AA@ 0000000180029258     libucrt:lcidtoname_downlevel.obj
 0002:00006268       ??_C@_1BG@LJBBIPGB@?$AAs?$AAr?$AA?9?$AAb?$AAa?$AA?9?$AAc?$AAy?$AAr?$AAl?$AA?$AA@ 0000000180029268     libucrt:lcidtoname_downlevel.obj
 0002:00006280       ??_C@_1BG@JLBENFOE@?$AAs?$AAr?$AA?9?$AAb?$AAa?$AA?9?$AAl?$AAa?$AAt?$AAn?$AA?$AA@ 0000000180029280     libucrt:lcidtoname_downlevel.obj
 0002:00006298       ??_C@_1BG@KODPNHE@?$AAs?$AAr?$AA?9?$AAs?$AAp?$AA?9?$AAc?$AAy?$AAr?$AAl?$AA?$AA@ 0000000180029298     libucrt:lcidtoname_downlevel.obj
 0002:000062b0       ??_C@_1BG@CIOGKHPB@?$AAs?$AAr?$AA?9?$AAs?$AAp?$AA?9?$AAl?$AAa?$AAt?$AAn?$AA?$AA@ 00000001800292b0     libucrt:lcidtoname_downlevel.obj
 0002:000062c8       ??_C@_1M@NGFJLMAC@?$AAs?$AAv?$AA?9?$AAf?$AAi?$AA?$AA@ 00000001800292c8     libucrt:lcidtoname_downlevel.obj
 0002:000062d8       ??_C@_1M@MPJEJAJC@?$AAs?$AAv?$AA?9?$AAs?$AAe?$AA?$AA@ 00000001800292d8     libucrt:lcidtoname_downlevel.obj
 0002:000062e8       ??_C@_1M@MPNDHLFK@?$AAs?$AAw?$AA?9?$AAk?$AAe?$AA?$AA@ 00000001800292e8     libucrt:lcidtoname_downlevel.obj
 0002:000062f8       ??_C@_1O@KOHBJJI@?$AAs?$AAy?$AAr?$AA?9?$AAs?$AAy?$AA?$AA@ 00000001800292f8     libucrt:lcidtoname_downlevel.obj
 0002:00006308       ??_C@_1M@LDCEFHA@?$AAt?$AAa?$AA?9?$AAi?$AAn?$AA?$AA@ 0000000180029308     libucrt:lcidtoname_downlevel.obj
 0002:00006318       ??_C@_1M@CNJOFAK@?$AAt?$AAe?$AA?9?$AAi?$AAn?$AA?$AA@ 0000000180029318     libucrt:lcidtoname_downlevel.obj
 0002:00006328       ??_C@_1M@GNAECACD@?$AAt?$AAh?$AA?9?$AAt?$AAh?$AA?$AA@ 0000000180029328     libucrt:lcidtoname_downlevel.obj
 0002:00006338       ??_C@_1M@CHBIHOJO@?$AAt?$AAn?$AA?9?$AAz?$AAa?$AA?$AA@ 0000000180029338     libucrt:lcidtoname_downlevel.obj
 0002:00006348       ??_C@_1M@GCCMIGPJ@?$AAt?$AAr?$AA?9?$AAt?$AAr?$AA?$AA@ 0000000180029348     libucrt:lcidtoname_downlevel.obj
 0002:00006358       ??_C@_1M@CELMCNBK@?$AAt?$AAt?$AA?9?$AAr?$AAu?$AA?$AA@ 0000000180029358     libucrt:lcidtoname_downlevel.obj
 0002:00006368       ??_C@_1M@KLMCELGA@?$AAu?$AAk?$AA?9?$AAu?$AAa?$AA?$AA@ 0000000180029368     libucrt:lcidtoname_downlevel.obj
 0002:00006378       ??_C@_1M@EPAJJAJF@?$AAu?$AAr?$AA?9?$AAp?$AAk?$AA?$AA@ 0000000180029378     libucrt:lcidtoname_downlevel.obj
 0002:00006388       ??_C@_1BG@GEGPMCDJ@?$AAu?$AAz?$AA?9?$AAu?$AAz?$AA?9?$AAc?$AAy?$AAr?$AAl?$AA?$AA@ 0000000180029388     libucrt:lcidtoname_downlevel.obj
 0002:000063a0       ??_C@_1BG@EGGKJILM@?$AAu?$AAz?$AA?9?$AAu?$AAz?$AA?9?$AAl?$AAa?$AAt?$AAn?$AA?$AA@ 00000001800293a0     libucrt:lcidtoname_downlevel.obj
 0002:000063b8       ??_C@_1M@GFOCLFF@?$AAv?$AAi?$AA?9?$AAv?$AAn?$AA?$AA@ 00000001800293b8     libucrt:lcidtoname_downlevel.obj
 0002:000063c8       ??_C@_1M@CPAMEDFI@?$AAx?$AAh?$AA?9?$AAz?$AAa?$AA?$AA@ 00000001800293c8     libucrt:lcidtoname_downlevel.obj
 0002:000063d8       ??_C@_1O@EBKIFIGN@?$AAz?$AAh?$AA?9?$AAc?$AAh?$AAs?$AA?$AA@ 00000001800293d8     libucrt:lcidtoname_downlevel.obj
 0002:000063e8       ??_C@_1O@NMHPGANE@?$AAz?$AAh?$AA?9?$AAc?$AAh?$AAt?$AA?$AA@ 00000001800293e8     libucrt:lcidtoname_downlevel.obj
 0002:000063f8       ??_C@_1M@LPINJOMC@?$AAz?$AAh?$AA?9?$AAc?$AAn?$AA?$AA@ 00000001800293f8     libucrt:lcidtoname_downlevel.obj
 0002:00006408       ??_C@_1M@OCJEJODD@?$AAz?$AAh?$AA?9?$AAh?$AAk?$AA?$AA@ 0000000180029408     libucrt:lcidtoname_downlevel.obj
 0002:00006418       ??_C@_1M@DNDLJINH@?$AAz?$AAh?$AA?9?$AAm?$AAo?$AA?$AA@ 0000000180029418     libucrt:lcidtoname_downlevel.obj
 0002:00006428       ??_C@_1M@MBFDNDND@?$AAz?$AAh?$AA?9?$AAs?$AAg?$AA?$AA@ 0000000180029428     libucrt:lcidtoname_downlevel.obj
 0002:00006438       ??_C@_1M@IMEPLEPE@?$AAz?$AAh?$AA?9?$AAt?$AAw?$AA?$AA@ 0000000180029438     libucrt:lcidtoname_downlevel.obj
 0002:00006448       ??_C@_1M@BBGHNHJP@?$AAz?$AAu?$AA?9?$AAz?$AAa?$AA?$AA@ 0000000180029448     libucrt:lcidtoname_downlevel.obj
 0002:00006460       ?large_power_data@?1??multiply_by_power_of_ten@__crt_strtox@@YA_NAEAUbig_integer@2@I@Z@4QBIB 0000000180029460     libucrt:cfout.obj
 0002:00006d70       ?large_power_indices@?1??multiply_by_power_of_ten@__crt_strtox@@YA_NAEAUbig_integer@2@I@Z@4QBUunpack_index@?1??12@YA_N0I@Z@B 0000000180029d70     libucrt:cfout.obj
 0002:00006e08       ?small_powers_of_ten@?6??multiply_by_power_of_ten@__crt_strtox@@YA_NAEAUbig_integer@2@I@Z@4QBIB 0000000180029e08     libucrt:cfout.obj
 0002:00006e2c       ??_C@_01GBGANLPD@0?$AA@    0000000180029e2c     libucrt:cfout.obj
 0002:00006e30       ??_C@_05DNEBIAHO@1?$CDINF?$AA@ 0000000180029e30     libucrt:cfout.obj
 0002:00006e38       ??_C@_06IMKFLFPG@1?$CDQNAN?$AA@ 0000000180029e38     libucrt:cfout.obj
 0002:00006e40       ??_C@_06PGGFOGJG@1?$CDSNAN?$AA@ 0000000180029e40     libucrt:cfout.obj
 0002:00006e48       ??_C@_05PHHOCPM@1?$CDIND?$AA@ 0000000180029e48     libucrt:cfout.obj
 0002:00006e50       ??_C@_1BA@BALFACEM@?$AAC?$AAO?$AAN?$AAO?$AAU?$AAT?$AA$?$AA?$AA@ 0000000180029e50     libucrt:initcon.obj
 0002:000070b0       __log10_256_lead           000000018002a0b0     libucrt:log10_256_lead_tail_table.obj
 0002:000078c0       __log10_256_tail           000000018002a8c0     libucrt:log10_256_lead_tail_table.obj
 0002:000080d0       __log_F_inv_qword          000000018002b0d0     libucrt:log_f_inv_qword_table.obj
 0002:000088e0       ??_C@_05HGHHAHAP@log10?$AA@ 000000018002b8e0     libucrt:log_special.obj
 0002:00008900       ??_C@_1BK@DBDEIDLH@?$AAK?$AAE?$AAR?$AAN?$AAE?$AAL?$AA3?$AA2?$AA?4?$AAD?$AAL?$AAL?$AA?$AA@ 000000018002b900     DelayImp:delayhlp.obj
 0002:00008920       ??_C@_0BI@OMNLIJDB@AcquireSRWLockExclusive?$AA@ 000000018002b920     DelayImp:delayhlp.obj
 0002:00008938       ??_C@_0BI@HMIEPCNJ@ReleaseSRWLockExclusive?$AA@ 000000018002b938     DelayImp:delayhlp.obj
 0002:00008950       _load_config_used          000000018002b950     LIBCMT:loadcfg.obj
 0002:000089e8       ??_C@_0CK@JCPCLECK@external?5memory?5allocation?5limit@ 000000018002b9e8     WebWorkerThreads.obj
 0002:00008a14       ??_C@_02GMHACPFF@?$CFu?$AA@ 000000018002ba14     WebWorkerThreads.obj
 0002:00008a20       ??_C@_1HI@EMMNAGMK@?$AAC?$AA?3?$AA?2?$AAU?$AAs?$AAe?$AAr?$AAs?$AA?2?$AAs?$AAa?$AA?2?$AA?4?$AAn?$AAo?$AAd?$AAe?$AA?9?$AAg?$AAy?$AAp?$AA?2?$AA4?$AA?4?$AA4?$AA?4?$AA2?$AA?2?$AAi?$AAn?$AAc?$AAl@ 000000018002ba20     WebWorkerThreads.obj
 0002:00008a98       ??_C@_1DG@OKCGPKIB@?$AAp?$AAe?$AAr?$AAs?$AAi?$AAs?$AAt?$AAe?$AAn?$AAt?$AA?$CI?$AA?$CJ?$AA?4?$AAI?$AAs?$AAN?$AAe?$AAa?$AAr?$AAD?$AAe?$AAa?$AAt?$AAh?$AA?$CI?$AA?$CJ?$AA?$AA@ 000000018002ba98     WebWorkerThreads.obj
 0002:00008ad0       ??_C@_1DA@FBGAEOIO@?$AA?$CB?$AAp?$AAe?$AAr?$AAs?$AAi?$AAs?$AAt?$AAe?$AAn?$AAt?$AA?$CI?$AA?$CJ?$AA?4?$AAI?$AAs?$AAE?$AAm?$AAp?$AAt?$AAy?$AA?$CI?$AA?$CJ?$AA?$AA@ 000000018002bad0     WebWorkerThreads.obj
 0002:00008b00       ??_C@_1CO@JCKLEFMA@?$AA?$CB?$AAp?$AAe?$AAr?$AAs?$AAi?$AAs?$AAt?$AAe?$AAn?$AAt?$AA?$CI?$AA?$CJ?$AA?4?$AAI?$AAs?$AAW?$AAe?$AAa?$AAk?$AA?$CI?$AA?$CJ?$AA?$AA@ 000000018002bb00     WebWorkerThreads.obj
 0002:00008b30       ??_C@_1BE@GMLLOIPJ@?$AAr?$AAe?$AAf?$AAs?$AA_?$AA?5?$AA?$DO?$AA?5?$AA0?$AA?$AA@ 000000018002bb30     WebWorkerThreads.obj
 0002:00008b48       ??_C@_1CC@GBFLAAPF@?$AAw?$AAr?$AAa?$AAp?$AA?9?$AA?$DO?$AAr?$AAe?$AAf?$AAs?$AA_?$AA?5?$AA?$DN?$AA?$DN?$AA?5?$AA0?$AA?$AA@ 000000018002bb48     WebWorkerThreads.obj
 0002:00008b70       ??_C@_1DI@ELDBKNAK@?$AAw?$AAr?$AAa?$AAp?$AA?9?$AA?$DO?$AAh?$AAa?$AAn?$AAd?$AAl?$AAe?$AA_?$AA?4?$AAI?$AAs?$AAN?$AAe?$AAa?$AAr?$AAD?$AAe?$AAa?$AAt?$AAh?$AA?$CI?$AA?$CJ?$AA?$AA@ 000000018002bb70     WebWorkerThreads.obj
 0002:00008bb0       ??_C@_1IM@GACIBGHJ@?$AAd?$AAa?$AAt?$AAa?$AA?4?$AAG?$AAe?$AAt?$AAV?$AAa?$AAl?$AAu?$AAe?$AA?$CI?$AA?$CJ?$AA?5?$AA?$DN?$AA?$DN?$AA?5?$AAv?$AA8?$AA?3?$AA?3?$AAL?$AAo?$AAc?$AAa?$AAl?$AA?$DM?$AAv?$AA8?$AA?3@ 000000018002bbb0     WebWorkerThreads.obj
 0002:00008c40       ??_C@_1MA@LMLLKOGI@?$AAC?$AA?3?$AA?2?$AAU?$AAs?$AAe?$AAr?$AAs?$AA?2?$AAs?$AAa?$AA?2?$AAD?$AAo?$AAw?$AAn?$AAl?$AAo?$AAa?$AAd?$AAs?$AA?2?$AAF?$AAa?$AAr?$AAu?$AAq?$AAM?$AAa?$AAm?$AAu?$AA?2@ 000000018002bc40     WebWorkerThreads.obj
 0002:00008d00       ??_C@_1FM@LOELJOFK@?$AAs?$AAi?$AAz?$AAe?$AA?5?$AA?$DM?$AA?$DN?$AA?5?$AAi?$AAm?$AAp?$AA?3?$AA?3?$AAk?$AAM?$AAa?$AAx?$AAL?$AAe?$AAn?$AAg?$AAt?$AAh?$AA?5?$AA?$CG?$AA?$CG?$AA?5?$AA?$CC?$AAt?$AAo?$AAo?$AA?5@ 000000018002bd00     WebWorkerThreads.obj
 0002:00008d60       ??_C@_0CD@KLMCKJGL@key?5?$CFs?5must?5not?5contain?5null?5byt@ 000000018002bd60     WebWorkerThreads.obj
 0002:00008d88       ??_C@_0BP@CAGHNLOH@key?5?$CFs?5must?5not?5start?5with?5?8$?8?$AA@ 000000018002bd88     WebWorkerThreads.obj
 0002:00008da8       ??_C@_0BM@LKINBHCB@key?5?$CFs?5must?5not?5contain?5?8?4?8?$AA@ 000000018002bda8     WebWorkerThreads.obj
 0002:00008dc8       ??_C@_0CE@GIGLFLEI@Missing?5end?5of?5document?5marker?5?8@ 000000018002bdc8     WebWorkerThreads.obj
 0002:00008df0       ??_C@_0CH@NJGEHNPF@Child?5document?5exceeds?5parent?8s?5@ 000000018002bdf0     WebWorkerThreads.obj
 0002:00008e18       ??_C@_0BG@FPIHBCPI@Invalid?5key?5for?5array?$AA@ 000000018002be18     WebWorkerThreads.obj
 0002:00008e30       ??_C@_0CI@OKMCLBNL@Bad?5BSON?3?5Document?5is?5less?5than?5@ 000000018002be30     WebWorkerThreads.obj
 0002:00008e58       ??_C@_0CD@MMHCGCFM@Bad?5BSON?5Document?3?5illegal?5CStri@ 000000018002be58     WebWorkerThreads.obj
 0002:00008e80       ??_C@_0EB@BJOKDBFK@Bad?5BSON?5Document?3?5Serialize?5con@ 000000018002be80     WebWorkerThreads.obj
 0002:00008ec8       ??_C@_0CO@JEFHBMDG@Bad?5BSON?3?5Array?5Document?5is?5less@ 000000018002bec8     WebWorkerThreads.obj
 0002:00008ef8       ??_C@_0DO@HADGHAOK@Bad?5BSON?5Array?3?5Serialize?5consum@ 000000018002bef8     WebWorkerThreads.obj
 0002:00008f38       ??_C@_0BI@GMAEEKGD@Unhandled?5BSON?5Type?3?5?$CFd?$AA@ 000000018002bf38     WebWorkerThreads.obj
 0002:00008f50       ??_C@_09BNDOHJJA@_bsontype?$AA@ 000000018002bf50     WebWorkerThreads.obj
 0002:00008f5c       ??_C@_04GKMHEKLF@low_?$AA@ 000000018002bf5c     WebWorkerThreads.obj
 0002:00008f64       ??_C@_05ODKONCOO@high_?$AA@ 000000018002bf64     WebWorkerThreads.obj
 0002:00008f6c       ??_C@_02EGCJHIOB@id?$AA@   000000018002bf6c     WebWorkerThreads.obj
 0002:00008f70       ??_C@_08OAGMDKAF@position?$AA@ 000000018002bf70     WebWorkerThreads.obj
 0002:00008f80       ??_C@_08IDIHDCPA@sub_type?$AA@ 000000018002bf80     WebWorkerThreads.obj
 0002:00008f8c       ??_C@_06HOHPNJLC@buffer?$AA@ 000000018002bf8c     WebWorkerThreads.obj
 0002:00008f94       ??_C@_05MFEJDJP@value?$AA@ 000000018002bf94     WebWorkerThreads.obj
 0002:00008f9c       ??_C@_04LBBBCMNL@$ref?$AA@ 000000018002bf9c     WebWorkerThreads.obj
 0002:00008fa4       ??_C@_03LHHMEGIG@$id?$AA@  000000018002bfa4     WebWorkerThreads.obj
 0002:00008fa8       ??_C@_03OJPOHCFD@$db?$AA@  000000018002bfa8     WebWorkerThreads.obj
 0002:00008fb0       ??_C@_09KPMGAFNI@namespace?$AA@ 000000018002bfb0     WebWorkerThreads.obj
 0002:00008fbc       ??_C@_02BIKLEMDE@db?$AA@   000000018002bfbc     WebWorkerThreads.obj
 0002:00008fc0       ??_C@_03PLGJJJLK@oid?$AA@  000000018002bfc0     WebWorkerThreads.obj
 0002:00008fc4       ??_C@_04NDFOBODE@code?$AA@ 000000018002bfc4     WebWorkerThreads.obj
 0002:00008fcc       ??_C@_05DCCHDMEJ@scope?$AA@ 000000018002bfcc     WebWorkerThreads.obj
 0002:00008fd4       ??_C@_06GNKBGKCF@toBSON?$AA@ 000000018002bfd4     WebWorkerThreads.obj
 0002:00008fdc       ??_C@_04KPGOEBLF@Long?$AA@ 000000018002bfdc     WebWorkerThreads.obj
 0002:00008fe8       ??_C@_08CMHNALBL@ObjectID?$AA@ 000000018002bfe8     WebWorkerThreads.obj
 0002:00008ff4       ??_C@_06JCOMDNII@Binary?$AA@ 000000018002bff4     WebWorkerThreads.obj
 0002:00008ffc       ??_C@_04BCJPDBDA@Code?$AA@ 000000018002bffc     WebWorkerThreads.obj
 0002:00009004       ??_C@_05OEHIBPMM@DBRef?$AA@ 000000018002c004     WebWorkerThreads.obj
 0002:0000900c       ??_C@_06CGMNKLGA@Symbol?$AA@ 000000018002c00c     WebWorkerThreads.obj
 0002:00009014       ??_C@_06NCCPDBPF@Double?$AA@ 000000018002c014     WebWorkerThreads.obj
 0002:00009020       ??_C@_09KDGENIOP@Timestamp?$AA@ 000000018002c020     WebWorkerThreads.obj
 0002:0000902c       ??_C@_06LCECLHMO@MinKey?$AA@ 000000018002c02c     WebWorkerThreads.obj
 0002:00009034       ??_C@_06LBLBFHIB@MaxKey?$AA@ 000000018002c034     WebWorkerThreads.obj
 0002:00009040       ??_C@_0BJ@BPGENBPL@toBSON?5is?5not?5a?5function?$AA@ 000000018002c040     WebWorkerThreads.obj
 0002:00009060       ??_C@_0CJ@IOIJGPAE@toBSON?5function?5did?5not?5return?5a@ 000000018002c060     WebWorkerThreads.obj
 0002:0000908c       ??_C@_03OFAPEBGM@?$CFs?6?$AA@ 000000018002c08c     WebWorkerThreads.obj
 0002:00009090       ??_C@_0L@DFPOBGBF@?$CFs?3?$CFi?3?5?$CFs?6?$AA@ 000000018002c090     WebWorkerThreads.obj
 0002:0000909c       ??_C@_02JDPG@rb?$AA@       000000018002c09c     WebWorkerThreads.obj
 0002:000090a0       ??_C@_0CE@COPHJGPI@Error?3?5readfile?5open?5failed?4?5?$CFd?5@ 000000018002c0a0     WebWorkerThreads.obj
 0002:000090c8       ??_C@_0CE@GMCMIFJP@Error?3?5readfile?5read?5failed?4?5?$CFd?5@ 000000018002c0c8     WebWorkerThreads.obj
 0002:000090f0       ??_C@_0O@KAMAIBLE@?$CFs?$FLFunction?$FN?6?$AA@ 000000018002c0f0     WebWorkerThreads.obj
 0002:00009100       ??_C@_0M@BFMCBAGI@?$CFs?$HLObject?$HN?6?$AA@ 000000018002c100     WebWorkerThreads.obj
 0002:0000910c       ??_C@_06LOHDKCDH@?$CFs?$CFs?3?5?$AA@ 000000018002c10c     WebWorkerThreads.obj
 0002:00009114       ??_C@_05JMJKDBEJ@?$CFs?$CFs?6?$AA@ 000000018002c114     WebWorkerThreads.obj
 0002:00009120       ??_C@_0N@BGEIFAPI@?$CFs?$HL?1Object?$HN?6?$AA@ 000000018002c120     WebWorkerThreads.obj
 0002:00009130       ??_C@_0L@HKAOMHIP@?$CFs?$FLArray?$FN?6?$AA@ 000000018002c130     WebWorkerThreads.obj
 0002:0000913c       ??_C@_06HDLNMNBB@?$CFs?$CFd?3?5?$AA@ 000000018002c13c     WebWorkerThreads.obj
 0002:00009144       ??_C@_01EEMJAFIK@?6?$AA@   000000018002c144     WebWorkerThreads.obj
 0002:00009148       ??_C@_0M@ILAANKHO@?$CFs?$FL?1Array?$FN?6?$AA@ 000000018002c148     WebWorkerThreads.obj
 0002:00009160       ??_C@_0DAJ@IPIOFNOC@?$CI?6function?5DispatchEvents?$CIthread@ 000000018002c160     WebWorkerThreads.obj
 0002:00009470       ??_C@_0BMG@CCKBPCII@?6var?5onmessage?0this$?$DNthis?$DLfuncti@ 000000018002c470     WebWorkerThreads.obj
 0002:00009640       ??_C@_0JJG@EAHGLIFD@?$CI?6function?5createPool?$CIn?$CJ?$HLvar?5T?0p@ 000000018002c640     WebWorkerThreads.obj
 0002:00009fe0       ??_C@_0DGK@HBGLCPBA@?$CI?6function?5Worker?$CI?$CJ?$HLvar?5Threads?$DL@ 000000018002cfe0     WebWorkerThreads.obj
 0002:0000a350       ??_C@_0BIJ@PKCHNBCC@?$CI?6function?5ThreadNextTick?$CI?$CJ?$HLfunc@ 000000018002d350     WebWorkerThreads.obj
 0002:0000a4e0       ??_C@_0N@MAJKHLHO@readFileSync?$AA@ 000000018002d4e0     WebWorkerThreads.obj
 0002:0000a4f0       ??_C@_0L@NCAPKJIF@native_fs_?$AA@ 000000018002d4f0     WebWorkerThreads.obj
 0002:0000a4fc       ??_C@_03MGHMBJCF@log?$AA@  000000018002d4fc     WebWorkerThreads.obj
 0002:0000a500       ??_C@_05KKCIMGE@error?$AA@ 000000018002d500     WebWorkerThreads.obj
 0002:0000a508       ??_C@_07PMJAFAE@console?$AA@ 000000018002d508     WebWorkerThreads.obj
 0002:0000a510       ??_C@_04PJDNGLKJ@self?$AA@ 000000018002d510     WebWorkerThreads.obj
 0002:0000a518       ??_C@_06FJKEMHGD@global?$AA@ 000000018002d518     WebWorkerThreads.obj
 0002:0000a520       ??_C@_04MLAEFCDK@puts?$AA@ 000000018002d520     WebWorkerThreads.obj
 0002:0000a528       ??_C@_05IJDJACGD@print?$AA@ 000000018002d528     WebWorkerThreads.obj
 0002:0000a530       ??_C@_0M@FNCHPFPH@postMessage?$AA@ 000000018002d530     WebWorkerThreads.obj
 0002:0000a540       ??_C@_0M@CNNLKLKH@__postError?$AA@ 000000018002d540     WebWorkerThreads.obj
 0002:0000a54c       ??_C@_06FJHNOCKE@thread?$AA@ 000000018002d54c     WebWorkerThreads.obj
 0002:0000a554       ??_C@_04KNBGJDFM@emit?$AA@ 000000018002d554     WebWorkerThreads.obj
 0002:0000a55c       ??_C@_04DNLLFIPD@_ntq?$AA@ 000000018002d55c     WebWorkerThreads.obj
 0002:0000a568       ??_C@_0DH@KDHGCJFF@thread?4destroy?$CI?$CJ?3?5the?5receiver?5m@ 000000018002d568     WebWorkerThreads.obj
 0002:0000a5a0       ??_C@_0DE@DKLHOMNI@thread?4eval?$CIprogram?5?$FL?0callback?$FN?$CJ@ 000000018002d5a0     WebWorkerThreads.obj
 0002:0000a5d8       ??_C@_0DE@CAKPDCFJ@thread?4eval?$CI?$CJ?3?5the?5receiver?5must@ 000000018002d5d8     WebWorkerThreads.obj
 0002:0000a610       ??_C@_0BL@EHFKNDLL@Error?5opening?5the?5file?5?$CFs?6?$AA@ 000000018002d610     WebWorkerThreads.obj
 0002:0000a630       ??_C@_0BL@JEMOPMFD@Error?5reading?5the?5file?5?$CFs?6?$AA@ 000000018002d630     WebWorkerThreads.obj
 0002:0000a650       ??_C@_0DF@FAKBEAEI@thread?4load?$CIfilename?5?$FL?0callback?$FN@ 000000018002d650     WebWorkerThreads.obj
 0002:0000a688       ??_C@_0DE@PJEMAONF@thread?4load?$CI?$CJ?3?5the?5receiver?5must@ 000000018002d688     WebWorkerThreads.obj
 0002:0000a6c0       ??_C@_0DE@FEFGNDIP@thread?4emit?$CI?$CJ?3?5the?5receiver?5must@ 000000018002d6c0     WebWorkerThreads.obj
 0002:0000a6f8       ??_C@_07ONPBMBOP@message?$AA@ 000000018002d6f8     WebWorkerThreads.obj
 0002:0000a700       ??_C@_0CE@GDGBOKLD@create?$CI?$CJ?3?5error?5in?5pthread_creat@ 000000018002d700     WebWorkerThreads.obj
 0002:0000a724       ??_C@_06HBNONAG@create?$AA@ 000000018002d724     WebWorkerThreads.obj
 0002:0000a730       ??_C@_0L@DEMMGFLI@createPool?$AA@ 000000018002d730     WebWorkerThreads.obj
 0002:0000a73c       ??_C@_06EBGDJLCF@Worker?$AA@ 000000018002d73c     WebWorkerThreads.obj
 0002:0000a744       ??_C@_04KGAGIKCD@eval?$AA@ 000000018002d744     WebWorkerThreads.obj
 0002:0000a74c       ??_C@_04EONOHKEP@load?$AA@ 000000018002d74c     WebWorkerThreads.obj
 0002:0000a758       ??_C@_0P@IGCBMMDB@emitSerialized?$AA@ 000000018002d758     WebWorkerThreads.obj
 0002:0000a768       ??_C@_07OKFGPCEA@destroy?$AA@ 000000018002d768     WebWorkerThreads.obj
 0002:0000a770       ??_C@_0BL@PBKGPJGG@?4?4?2src?2WebWorkerThreads?4cc?$AA@ 000000018002d770     WebWorkerThreads.obj
 0002:0000a790       ??_C@_0BB@HKDEBMMD@WebWorkerThreads?$AA@ 000000018002d790     WebWorkerThreads.obj
 0002:0000a7a8       ??_7ObjectWrap@node@@6B@   000000018002d7a8     WebWorkerThreads.obj
 0002:0000a7c0       ??_7ExternalStringResourceBase@String@v8@@6B@ 000000018002d7c0     WebWorkerThreads.obj
 0002:0000a7d0       ??_7BSON@@6B@              000000018002d7d0     WebWorkerThreads.obj
 0002:0000a7e8       ??_7ArrayBufferAllocator@@6B@ 000000018002d7e8     WebWorkerThreads.obj
 0002:0000a808       ??_7ExternalOneByteStringResourceImpl@v8@@6B@ 000000018002d808     WebWorkerThreads.obj
 0002:0000a828       ??_7ExternalStringResource@String@v8@@6B@ 000000018002d828     WebWorkerThreads.obj
 0002:0000a828       ??_7ExternalOneByteStringResource@String@v8@@6B@ 000000018002d828     WebWorkerThreads.obj
 0002:0000a870       ??_7ExternalSourceStream@ScriptCompiler@v8@@6B@ 000000018002d870     WebWorkerThreads.obj
 0002:0000a890       ??_7Allocator@ArrayBuffer@v8@@6B@ 000000018002d890     WebWorkerThreads.obj
 0002:0000a8b0       ??_7Extension@v8@@6B@      000000018002d8b0     WebWorkerThreads.obj
 0002:0000a8c0       ??_7ExternalResourceVisitor@v8@@6B@ 000000018002d8c0     WebWorkerThreads.obj
 0002:0000a8c0       ??_7PersistentHandleVisitor@v8@@6B@ 000000018002d8c0     WebWorkerThreads.obj
 0002:0000a8d0       ??_C@_08HCOMDCCD@iojs?4exe?$AA@ 000000018002d8d0     win_delay_load_hook.obj
 0002:0000a8e0       ??_C@_08JDDNMFDB@node?4exe?$AA@ 000000018002d8e0     win_delay_load_hook.obj
 0002:0000a8f0       __real@3ff0000000000000    000000018002d8f0     WebWorkerThreads.obj
 0002:0000a8f8       __real@409f400000000000    000000018002d8f8     WebWorkerThreads.obj
 0002:0000a958       ??_R4type_info@@6B@        000000018002d958     LIBCMT:std_type_info_static.obj
 0002:0000a980       ??_R3type_info@@8          000000018002d980     LIBCMT:std_type_info_static.obj
 0002:0000a998       ??_R2type_info@@8          000000018002d998     LIBCMT:std_type_info_static.obj
 0002:0000a9a8       ??_R1A@?0A@EA@type_info@@8 000000018002d9a8     LIBCMT:std_type_info_static.obj
 0002:0000a9d0       ??_R4exception@std@@6B@    000000018002d9d0     LIBCMT:throw_bad_alloc.obj
 0002:0000a9f8       ??_R3exception@std@@8      000000018002d9f8     LIBCMT:throw_bad_alloc.obj
 0002:0000aa10       ??_R2exception@std@@8      000000018002da10     LIBCMT:throw_bad_alloc.obj
 0002:0000aa20       ??_R1A@?0A@EA@exception@std@@8 000000018002da20     LIBCMT:throw_bad_alloc.obj
 0002:0000aa48       ??_R4bad_alloc@std@@6B@    000000018002da48     LIBCMT:throw_bad_alloc.obj
 0002:0000aa70       ??_R3bad_alloc@std@@8      000000018002da70     LIBCMT:throw_bad_alloc.obj
 0002:0000aa88       ??_R2bad_alloc@std@@8      000000018002da88     LIBCMT:throw_bad_alloc.obj
 0002:0000aaa0       ??_R1A@?0A@EA@bad_alloc@std@@8 000000018002daa0     LIBCMT:throw_bad_alloc.obj
 0002:0000aac8       ??_R4bad_array_new_length@std@@6B@ 000000018002dac8     LIBCMT:throw_bad_alloc.obj
 0002:0000aaf0       ??_R3bad_array_new_length@std@@8 000000018002daf0     LIBCMT:throw_bad_alloc.obj
 0002:0000ab08       ??_R2bad_array_new_length@std@@8 000000018002db08     LIBCMT:throw_bad_alloc.obj
 0002:0000ab28       ??_R1A@?0A@EA@bad_array_new_length@std@@8 000000018002db28     LIBCMT:throw_bad_alloc.obj
 0002:0000ab50       ?_TraceLoggingMetadata@?1??_TlgWrite@__vcrt_trace_logging_provider@@YAJPEBU_TlgProvider_t@2@PEFBXPEBU_GUID@@2IPEAU_EVENT_DATA_DESCRIPTOR@@@Z@4U_TraceLoggingMetadata_t@2@B 000000018002db50     libvcruntime:telemetry.obj
 0002:0000ac03       ?_TraceLoggingMetadataEnd@?1??_TlgWrite@__vcrt_trace_logging_provider@@YAJPEBU_TlgProvider_t@2@PEFBXPEBU_GUID@@2IPEAU_EVENT_DATA_DESCRIPTOR@@@Z@4EB 000000018002dc03     libvcruntime:telemetry.obj
 0002:0000b0a0       __rtc_iaa                  000000018002e0a0     LIBCMT:_initsect_.obj
 0002:0000b0a8       __rtc_izz                  000000018002e0a8     LIBCMT:_initsect_.obj
 0002:0000b0b0       __rtc_taa                  000000018002e0b0     LIBCMT:_initsect_.obj
 0002:0000b0b8       __rtc_tzz                  000000018002e0b8     LIBCMT:_initsect_.obj
 0002:0000c960       _TI2?AVbad_alloc@std@@     000000018002f960     LIBCMT:throw_bad_alloc.obj
 0002:0000c980       _CTA2?AVbad_alloc@std@@    000000018002f980     LIBCMT:throw_bad_alloc.obj
 0002:0000c998       _CT??_R0?AVbad_alloc@std@@@8??0bad_alloc@std@@QEAA@AEBV01@@Z24 000000018002f998     LIBCMT:throw_bad_alloc.obj
 0002:0000c9c0       _CT??_R0?AVexception@std@@@8??0exception@std@@QEAA@AEBV01@@Z24 000000018002f9c0     LIBCMT:throw_bad_alloc.obj
 0002:0000c9e8       _TI3?AVbad_array_new_length@std@@ 000000018002f9e8     LIBCMT:throw_bad_alloc.obj
 0002:0000ca08       _CTA3?AVbad_array_new_length@std@@ 000000018002fa08     LIBCMT:throw_bad_alloc.obj
 0002:0000ca28       _CT??_R0?AVbad_array_new_length@std@@@8??0bad_array_new_length@std@@QEAA@AEBV01@@Z24 000000018002fa28     LIBCMT:throw_bad_alloc.obj
 0002:0000ca50       _CTA2PEAD                  000000018002fa50     WebWorkerThreads.obj
 0002:0000ca68       _CT??_R0PEAD@88            000000018002fa68     WebWorkerThreads.obj
 0002:0000ca90       _TI2PEAD                   000000018002fa90     WebWorkerThreads.obj
 0002:0000cab0       _CT??_R0PEAX@88            000000018002fab0     WebWorkerThreads.obj
 0002:0000cad4       __DELAY_IMPORT_DESCRIPTOR_node_exe 000000018002fad4     node:node.exe
 0002:0000caf4       __NULL_DELAY_IMPORT_DESCRIPTOR 000000018002faf4     node:node.exe
 0002:0000cff0       \177node_NULL_THUNK_DATA_DLN 000000018002fff0     node:node.exe
 0002:0000f400       \177node_NULL_THUNK_DATA_DLB 0000000180032400     node:node.exe
 0002:00013f74       __IMPORT_DESCRIPTOR_KERNEL32 0000000180036f74     kernel32:KERNEL32.dll
 0002:00013f88       __IMPORT_DESCRIPTOR_ADVAPI32 0000000180036f88     advapi32:ADVAPI32.dll
 0002:00013f9c       __NULL_IMPORT_DESCRIPTOR   0000000180036f9c     kernel32:KERNEL32.dll
 0003:00000000       __scrt_native_dllmain_reason 0000000180038000     LIBCMT:utility.obj
 0003:00000008       __security_cookie          0000000180038008     LIBCMT:gs_cookie.obj
 0003:00000010       __security_cookie_complement 0000000180038010     LIBCMT:gs_cookie.obj
 0003:00000018       __isa_available            0000000180038018     LIBCMT:_cpu_disp_.obj
 0003:0000001c       __isa_enabled              000000018003801c     LIBCMT:_cpu_disp_.obj
 0003:00000020       __memcpy_nt_iters          0000000180038020     LIBCMT:_cpu_disp_.obj
 0003:00000090       _iob                       0000000180038090     libucrt:_file.obj
 0003:000001a0       __abort_behavior           00000001800381a0     libucrt:abort.obj
 0003:000001b0       _lookuptrailbytes          00000001800381b0     libucrt:read.obj
 0003:000002b0       __badioinfo                00000001800382b0     libucrt:ioinit.obj
 0003:00000300       __acrt_initial_locale_data 0000000180038300     libucrt:nlsdata.obj
 0003:00000458       __acrt_initial_locale_pointers 0000000180038458     libucrt:nlsdata.obj
 0003:00000468       __acrt_wide_c_locale_string 0000000180038468     libucrt:nlsdata.obj
 0003:00000470       __acrt_initial_multibyte_data 0000000180038470     libucrt:mbctype.obj
 0003:00000698       __acrt_current_multibyte_data 0000000180038698     libucrt:mbctype.obj
 0003:000007a0       _mbctype                   00000001800387a0     libucrt:mbctype.obj
 0003:000008b0       _mbcasemap                 00000001800388b0     libucrt:mbctype.obj
 0003:000009b0       _pwctype                   00000001800389b0     libucrt:ctype.obj
 0003:000009c0       __globallocalestatus       00000001800389c0     libucrt:glstatus.obj
 0003:000009d0       __acrt_lconv_c             00000001800389d0     libucrt:localeconv.obj
 0003:00000a68       __acrt_lconv_static_decimal 0000000180038a68     libucrt:localeconv.obj
 0003:00000a6c       __acrt_lconv_static_W_decimal 0000000180038a6c     libucrt:localeconv.obj
 0003:00000a70       __dcrt_lowio_console_output_handle 0000000180038a70     libucrt:initcon.obj
 0003:00000aa0       _fltused                   0000000180038aa0     LIBCMT:fltused.obj
 0003:00000b00       __pfnDliNotifyHook2        0000000180038b00     win_delay_load_hook.obj
 0003:00000b08       ??_R0?AVtype_info@@@8      0000000180038b08     LIBCMT:std_type_info_static.obj
 0003:00000b28       ??_R0?AVbad_alloc@std@@@8  0000000180038b28     LIBCMT:throw_bad_alloc.obj
 0003:00000b50       ??_R0?AVexception@std@@@8  0000000180038b50     LIBCMT:throw_bad_alloc.obj
 0003:00000b78       ??_R0?AVbad_array_new_length@std@@@8 0000000180038b78     LIBCMT:throw_bad_alloc.obj
 0003:00000ba8       ??_R0PEAD@8                0000000180038ba8     WebWorkerThreads.obj
 0003:00000bc0       ??_R0PEAX@8                0000000180038bc0     WebWorkerThreads.obj
 0003:00000bd8       __imp_uv_cond_signal       0000000180038bd8     node:node.exe
 0003:00000be0       __imp_uv_unref             0000000180038be0     node:node.exe
 0003:00000be8       __imp_uv_mutex_unlock      0000000180038be8     node:node.exe
 0003:00000bf0       __imp_?Enter@Context@v8@@QEAAXXZ 0000000180038bf0     node:node.exe
 0003:00000bf8       __imp_?New@Context@v8@@SA?AV?$Local@VContext@v8@@@2@PEAVIsolate@2@PEAVExtensionConfiguration@2@V?$Local@VObjectTemplate@v8@@@2@V?$Local@VValue@v8@@@2@@Z 0000000180038bf8     node:node.exe
 0003:00000c00       __imp_?Global@Context@v8@@QEAA?AV?$Local@VObject@v8@@@2@XZ 0000000180038c00     node:node.exe
 0003:00000c08       __imp_?Value@External@v8@@QEBAPEAXXZ 0000000180038c08     node:node.exe
 0003:00000c10       __imp_?New@External@v8@@SA?AV?$Local@VExternal@v8@@@2@PEAVIsolate@2@PEAX@Z 0000000180038c10     node:node.exe
 0003:00000c18       __imp_?NewFromUnsigned@Integer@v8@@SA?AV?$Local@VInteger@v8@@@2@PEAVIsolate@2@I@Z 0000000180038c18     node:node.exe
 0003:00000c20       __imp_?New@Integer@v8@@SA?AV?$Local@VInteger@v8@@@2@PEAVIsolate@2@H@Z 0000000180038c20     node:node.exe
 0003:00000c28       __imp_?CollectAllGarbage@Isolate@v8@@AEAAXPEBD@Z 0000000180038c28     node:node.exe
 0003:00000c30       __imp_?VisitHandlesForPartialDependence@Isolate@v8@@QEAAXPEAVPersistentHandleVisitor@2@@Z 0000000180038c30     node:node.exe
 0003:00000c38       __imp_?VisitHandlesWithClassIds@Isolate@v8@@QEAAXPEAVPersistentHandleVisitor@2@@Z 0000000180038c38     node:node.exe
 0003:00000c40       __imp_?VisitExternalResources@Isolate@v8@@QEAAXPEAVExternalResourceVisitor@2@@Z 0000000180038c40     node:node.exe
 0003:00000c48       __imp_?RemoveMemoryAllocationCallback@Isolate@v8@@QEAAXP6AXW4ObjectSpace@2@W4AllocationAction@2@H@Z@Z 0000000180038c48     node:node.exe
 0003:00000c50       __imp_?AddMemoryAllocationCallback@Isolate@v8@@QEAAXP6AXW4ObjectSpace@2@W4AllocationAction@2@H@Z01@Z 0000000180038c50     node:node.exe
 0003:00000c58       __imp_?SetCaptureStackTraceForUncaughtExceptions@Isolate@v8@@QEAAX_NHW4StackTraceOptions@StackTrace@2@@Z 0000000180038c58     node:node.exe
 0003:00000c60       __imp_?SetFailedAccessCheckCallbackFunction@Isolate@v8@@QEAAXP6AXV?$Local@VObject@v8@@@2@W4AccessType@2@V?$Local@VValue@v8@@@2@@Z@Z 0000000180038c60     node:node.exe
 0003:00000c68       __imp_?RemoveMessageListeners@Isolate@v8@@QEAAXP6AXV?$Local@VMessage@v8@@@2@V?$Local@VValue@v8@@@2@@Z@Z 0000000180038c68     node:node.exe
 0003:00000c70       __imp_?AddMessageListener@Isolate@v8@@QEAA_NP6AXV?$Local@VMessage@v8@@@2@V?$Local@VValue@v8@@@2@@Z1@Z 0000000180038c70     node:node.exe
 0003:00000c78       __imp_?IsDead@Isolate@v8@@QEAA_NXZ 0000000180038c78     node:node.exe
 0003:00000c80       __imp_?SetAllowCodeGenerationFromStringsCallback@Isolate@v8@@QEAAXP6A_NV?$Local@VContext@v8@@@2@@Z@Z 0000000180038c80     node:node.exe
 0003:00000c88       __imp_?SetFatalErrorHandler@Isolate@v8@@QEAAXP6AXPEBD0@Z@Z 0000000180038c88     node:node.exe
 0003:00000c90       __imp_?IdleNotificationDeadline@Isolate@v8@@QEAA_NN@Z 0000000180038c90     node:node.exe
 0003:00000c98       __imp_?CancelTerminateExecution@Isolate@v8@@QEAAXXZ 0000000180038c98     node:node.exe
 0003:00000ca0       __imp_?IsExecutionTerminating@Isolate@v8@@QEAA_NXZ 0000000180038ca0     node:node.exe
 0003:00000ca8       __imp_?TerminateExecution@Isolate@v8@@QEAAXXZ 0000000180038ca8     node:node.exe
 0003:00000cb0       __imp_?RemoveGCEpilogueCallback@Isolate@v8@@QEAAXP6AXPEAV12@W4GCType@2@W4GCCallbackFlags@2@@Z@Z 0000000180038cb0     node:node.exe
 0003:00000cb8       __imp_?RemoveGCPrologueCallback@Isolate@v8@@QEAAXP6AXPEAV12@W4GCType@2@W4GCCallbackFlags@2@@Z@Z 0000000180038cb8     node:node.exe
 0003:00000cc0       __imp_?ThrowException@Isolate@v8@@QEAA?AV?$Local@VValue@v8@@@2@V32@@Z 0000000180038cc0     node:node.exe
 0003:00000cc8       __imp_?GetCurrentContext@Isolate@v8@@QEAA?AV?$Local@VContext@v8@@@2@XZ 0000000180038cc8     node:node.exe
 0003:00000cd0       __imp_?Dispose@Isolate@v8@@QEAAXXZ 0000000180038cd0     node:node.exe
 0003:00000cd8       __imp_?Exit@Isolate@v8@@QEAAXXZ 0000000180038cd8     node:node.exe
 0003:00000ce0       __imp_?Enter@Isolate@v8@@QEAAXXZ 0000000180038ce0     node:node.exe
 0003:00000ce8       __imp_?GetCurrent@Isolate@v8@@SAPEAV12@XZ 0000000180038ce8     node:node.exe
 0003:00000cf0       __imp_?New@Isolate@v8@@SAPEAV12@AEBUCreateParams@12@@Z 0000000180038cf0     node:node.exe
 0003:00000cf8       __imp_?ResetToBookmark@ExternalSourceStream@ScriptCompiler@v8@@UEAAXXZ 0000000180038cf8     node:node.exe
 0003:00000d00       __imp_?SetBookmark@ExternalSourceStream@ScriptCompiler@v8@@UEAA_NXZ 0000000180038d00     node:node.exe
 0003:00000d08       __imp_??1CachedData@ScriptCompiler@v8@@QEAA@XZ 0000000180038d08     node:node.exe
 0003:00000d10       __imp_?Compile@ScriptCompiler@v8@@SA?AV?$MaybeLocal@VScript@v8@@@2@V?$Local@VContext@v8@@@2@PEAVSource@12@W4CompileOptions@12@@Z 0000000180038d10     node:node.exe
 0003:00000d18       __imp_?GetFlags@RegExp@v8@@QEBA?AW4Flags@12@XZ 0000000180038d18     node:node.exe
 0003:00000d20       __imp_?GetSource@RegExp@v8@@QEBA?AV?$Local@VString@v8@@@2@XZ 0000000180038d20     node:node.exe
 0003:00000d28       __imp_?New@RegExp@v8@@SA?AV?$Local@VRegExp@v8@@@2@V?$Local@VString@v8@@@2@W4Flags@12@@Z 0000000180038d28     node:node.exe
 0003:00000d30       __imp_?CreateHandle@HandleScope@v8@@KAPEAPEAVObject@internal@2@PEAVIsolate@42@PEAV342@@Z 0000000180038d30     node:node.exe
 0003:00000d38       __imp_?CreateHandle@HandleScope@v8@@CAPEAPEAVObject@internal@2@PEAVHeapObject@42@PEAV342@@Z 0000000180038d38     node:node.exe
 0003:00000d40       __imp_??1HandleScope@v8@@QEAA@XZ 0000000180038d40     node:node.exe
 0003:00000d48       __imp_??0HandleScope@v8@@QEAA@PEAVIsolate@1@@Z 0000000180038d48     node:node.exe
 0003:00000d50       __imp_?Set@Template@v8@@QEAAXV?$Local@VName@v8@@@2@V?$Local@VData@v8@@@2@W4PropertyAttribute@2@@Z 0000000180038d50     node:node.exe
 0003:00000d58       __imp_?Error@Exception@v8@@SA?AV?$Local@VValue@v8@@@2@V?$Local@VString@v8@@@2@@Z 0000000180038d58     node:node.exe
 0003:00000d60       __imp_?TypeError@Exception@v8@@SA?AV?$Local@VValue@v8@@@2@V?$Local@VString@v8@@@2@@Z 0000000180038d60     node:node.exe
 0003:00000d68       __imp_?Initialize@Locker@v8@@AEAAXPEAVIsolate@2@@Z 0000000180038d68     node:node.exe
 0003:00000d70       __imp_?IsActive@Locker@v8@@SA_NXZ 0000000180038d70     node:node.exe
 0003:00000d78       __imp_??1Locker@v8@@QEAA@XZ 0000000180038d78     node:node.exe
 0003:00000d80       __imp_?New@Array@v8@@SA?AV?$Local@VArray@v8@@@2@PEAVIsolate@2@H@Z 0000000180038d80     node:node.exe
 0003:00000d88       __imp_?Length@Array@v8@@QEBAIXZ 0000000180038d88     node:node.exe
 0003:00000d90       __imp_?GetId@UnboundScript@v8@@QEAAHXZ 0000000180038d90     node:node.exe
 0003:00000d98       __imp_?Initialize@Unlocker@v8@@AEAAXPEAVIsolate@2@@Z 0000000180038d98     node:node.exe
 0003:00000da0       __imp_?New@Date@v8@@SA?AV?$MaybeLocal@VValue@v8@@@2@V?$Local@VContext@v8@@@2@N@Z 0000000180038da0     node:node.exe
 0003:00000da8       __imp_?InstanceTemplate@FunctionTemplate@v8@@QEAA?AV?$Local@VObjectTemplate@v8@@@2@XZ 0000000180038da8     node:node.exe
 0003:00000db0       __imp_?GetFunction@FunctionTemplate@v8@@QEAA?AV?$Local@VFunction@v8@@@2@XZ 0000000180038db0     node:node.exe
 0003:00000db8       __imp_?New@FunctionTemplate@v8@@SA?AV?$Local@VFunctionTemplate@v8@@@2@PEAVIsolate@2@P6AXAEBV?$FunctionCallbackInfo@VValue@v8@@@2@@ZV?$Local@VValue@v8@@@2@V?$Local@VSignature@v8@@@2@H@Z 0000000180038db8     node:node.exe
 0003:00000dc0       __imp_?ToLocalEmpty@V8@v8@@CAXXZ 0000000180038dc0     node:node.exe
 0003:00000dc8       __imp_?ClearWeak@V8@v8@@CAPEAXPEAPEAVObject@internal@2@@Z 0000000180038dc8     node:node.exe
 0003:00000dd0       __imp_?MakeWeak@V8@v8@@CAXPEAPEAVObject@internal@2@PEAXP6AXAEBV?$WeakCallbackData@VValue@v8@@X@2@@Z@Z 0000000180038dd0     node:node.exe
 0003:00000dd8       __imp_?DisposeGlobal@V8@v8@@CAXPEAPEAVObject@internal@2@@Z 0000000180038dd8     node:node.exe
 0003:00000de0       __imp_?GlobalizeReference@V8@v8@@CAPEAPEAVObject@internal@2@PEAVIsolate@42@PEAPEAV342@@Z 0000000180038de0     node:node.exe
 0003:00000de8       __imp_?StrictEquals@Value@v8@@QEBA_NV?$Local@VValue@v8@@@2@@Z 0000000180038de8     node:node.exe
 0003:00000df0       __imp_?Int32Value@Value@v8@@QEBAHXZ 0000000180038df0     node:node.exe
 0003:00000df8       __imp_?Uint32Value@Value@v8@@QEBAIXZ 0000000180038df8     node:node.exe
 0003:00000e00       __imp_?IntegerValue@Value@v8@@QEBA_JXZ 0000000180038e00     node:node.exe
 0003:00000e08       __imp_?NumberValue@Value@v8@@QEBANXZ 0000000180038e08     node:node.exe
 0003:00000e10       __imp_?BooleanValue@Value@v8@@QEBA_NXZ 0000000180038e10     node:node.exe
 0003:00000e18       __imp_?ToInt32@Value@v8@@QEBA?AV?$MaybeLocal@VInt32@v8@@@2@V?$Local@VContext@v8@@@2@@Z 0000000180038e18     node:node.exe
 0003:00000e20       __imp_?ToUint32@Value@v8@@QEBA?AV?$MaybeLocal@VUint32@v8@@@2@V?$Local@VContext@v8@@@2@@Z 0000000180038e20     node:node.exe
 0003:00000e28       __imp_?ToInteger@Value@v8@@QEBA?AV?$MaybeLocal@VInteger@v8@@@2@V?$Local@VContext@v8@@@2@@Z 0000000180038e28     node:node.exe
 0003:00000e30       __imp_?ToObject@Value@v8@@QEBA?AV?$MaybeLocal@VObject@v8@@@2@V?$Local@VContext@v8@@@2@@Z 0000000180038e30     node:node.exe
 0003:00000e38       __imp_?ToDetailString@Value@v8@@QEBA?AV?$MaybeLocal@VString@v8@@@2@V?$Local@VContext@v8@@@2@@Z 0000000180038e38     node:node.exe
 0003:00000e40       __imp_?ToString@Value@v8@@QEBA?AV?$MaybeLocal@VString@v8@@@2@V?$Local@VContext@v8@@@2@@Z 0000000180038e40     node:node.exe
 0003:00000e48       __imp_?ToNumber@Value@v8@@QEBA?AV?$MaybeLocal@VNumber@v8@@@2@V?$Local@VContext@v8@@@2@@Z 0000000180038e48     node:node.exe
 0003:00000e50       __imp_?ToBoolean@Value@v8@@QEBA?AV?$MaybeLocal@VBoolean@v8@@@2@V?$Local@VContext@v8@@@2@@Z 0000000180038e50     node:node.exe
 0003:00000e58       __imp_?IsRegExp@Value@v8@@QEBA_NXZ 0000000180038e58     node:node.exe
 0003:00000e60       __imp_?IsDate@Value@v8@@QEBA_NXZ 0000000180038e60     node:node.exe
 0003:00000e68       __imp_?IsNumber@Value@v8@@QEBA_NXZ 0000000180038e68     node:node.exe
 0003:00000e70       __imp_?IsBoolean@Value@v8@@QEBA_NXZ 0000000180038e70     node:node.exe
 0003:00000e78       __imp_?IsObject@Value@v8@@QEBA_NXZ 0000000180038e78     node:node.exe
 0003:00000e80       __imp_?IsArray@Value@v8@@QEBA_NXZ 0000000180038e80     node:node.exe
 0003:00000e88       __imp_?IsFunction@Value@v8@@QEBA_NXZ 0000000180038e88     node:node.exe
 0003:00000e90       __imp_?GetEndColumn@Message@v8@@QEBAHXZ 0000000180038e90     node:node.exe
 0003:00000e98       __imp_?GetStartColumn@Message@v8@@QEBAHXZ 0000000180038e98     node:node.exe
 0003:00000ea0       __imp_?GetLineNumber@Message@v8@@QEBAHXZ 0000000180038ea0     node:node.exe
 0003:00000ea8       __imp_?GetScriptResourceName@Message@v8@@QEBA?AV?$Local@VValue@v8@@@2@XZ 0000000180038ea8     node:node.exe
 0003:00000eb0       __imp_?GetSourceLine@Message@v8@@QEBA?AV?$Local@VString@v8@@@2@XZ 0000000180038eb0     node:node.exe
 0003:00000eb8       __imp_?Reset@TryCatch@v8@@QEAAXXZ 0000000180038eb8     node:node.exe
 0003:00000ec0       __imp_?Message@TryCatch@v8@@QEBA?AV?$Local@VMessage@v8@@@2@XZ 0000000180038ec0     node:node.exe
 0003:00000ec8       __imp_?StackTrace@TryCatch@v8@@QEBA?AV?$Local@VValue@v8@@@2@XZ 0000000180038ec8     node:node.exe
 0003:00000ed0       __imp_?Exception@TryCatch@v8@@QEBA?AV?$Local@VValue@v8@@@2@XZ 0000000180038ed0     node:node.exe
 0003:00000ed8       __imp_?HasCaught@TryCatch@v8@@QEBA_NXZ 0000000180038ed8     node:node.exe
 0003:00000ee0       __imp_??1TryCatch@v8@@QEAA@XZ 0000000180038ee0     node:node.exe
 0003:00000ee8       __imp_??0TryCatch@v8@@QEAA@XZ 0000000180038ee8     node:node.exe
 0003:00000ef0       __imp_?Escape@EscapableHandleScope@v8@@AEAAPEAPEAVObject@internal@2@PEAPEAV342@@Z 0000000180038ef0     node:node.exe
 0003:00000ef8       __imp_??0EscapableHandleScope@v8@@QEAA@PEAVIsolate@1@@Z 0000000180038ef8     node:node.exe
 0003:00000f00       __imp_?GetUnboundScript@Script@v8@@QEAA?AV?$Local@VUnboundScript@v8@@@2@XZ 0000000180038f00     node:node.exe
 0003:00000f08       __imp_?Run@Script@v8@@QEAA?AV?$Local@VValue@v8@@@2@XZ 0000000180038f08     node:node.exe
 0003:00000f10       __imp_?Run@Script@v8@@QEAA?AV?$MaybeLocal@VValue@v8@@@2@V?$Local@VContext@v8@@@2@@Z 0000000180038f10     node:node.exe
 0003:00000f18       __imp_?Compile@Script@v8@@SA?AV?$Local@VScript@v8@@@2@V?$Local@VString@v8@@@2@PEAVScriptOrigin@2@@Z 0000000180038f18     node:node.exe
 0003:00000f20       __imp_??1Utf8Value@String@v8@@QEAA@XZ 0000000180038f20     node:node.exe
 0003:00000f28       __imp_??0Utf8Value@String@v8@@QEAA@V?$Local@VValue@v8@@@2@@Z 0000000180038f28     node:node.exe
 0003:00000f30       __imp_?NewFromTwoByte@String@v8@@SA?AV?$MaybeLocal@VString@v8@@@2@PEAVIsolate@2@PEBGW4NewStringType@2@H@Z 0000000180038f30     node:node.exe
 0003:00000f38       __imp_?NewFromUtf8@String@v8@@SA?AV?$MaybeLocal@VString@v8@@@2@PEAVIsolate@2@PEBDW4NewStringType@2@H@Z 0000000180038f38     node:node.exe
 0003:00000f40       __imp_?WriteUtf8@String@v8@@QEBAHPEADHPEAHH@Z 0000000180038f40     node:node.exe
 0003:00000f48       __imp_?Write@String@v8@@QEBAHPEAGHHH@Z 0000000180038f48     node:node.exe
 0003:00000f50       __imp_?Utf8Length@String@v8@@QEBAHXZ 0000000180038f50     node:node.exe
 0003:00000f58       __imp_??0ResourceConstraints@v8@@QEAA@XZ 0000000180038f58     node:node.exe
 0003:00000f60       __imp_?New@Number@v8@@SA?AV?$Local@VNumber@v8@@@2@PEAVIsolate@2@N@Z 0000000180038f60     node:node.exe
 0003:00000f68       __imp_?SlowGetAlignedPointerFromInternalField@Object@v8@@AEAAPEAXH@Z 0000000180038f68     node:node.exe
 0003:00000f70       __imp_?SlowGetInternalField@Object@v8@@AEAA?AV?$Local@VValue@v8@@@2@H@Z 0000000180038f70     node:node.exe
 0003:00000f78       __imp_?New@Object@v8@@SA?AV?$Local@VObject@v8@@@2@PEAVIsolate@2@@Z 0000000180038f78     node:node.exe
 0003:00000f80       __imp_?CallAsFunction@Object@v8@@QEAA?AV?$Local@VValue@v8@@@2@V32@HQEAV32@@Z 0000000180038f80     node:node.exe
 0003:00000f88       __imp_?SetAlignedPointerInInternalField@Object@v8@@QEAAXHPEAX@Z 0000000180038f88     node:node.exe
 0003:00000f90       __imp_?SetInternalField@Object@v8@@QEAAXHV?$Local@VValue@v8@@@2@@Z 0000000180038f90     node:node.exe
 0003:00000f98       __imp_?InternalFieldCount@Object@v8@@QEAAHXZ 0000000180038f98     node:node.exe
 0003:00000fa0       __imp_?GetConstructorName@Object@v8@@QEAA?AV?$Local@VString@v8@@@2@XZ 0000000180038fa0     node:node.exe
 0003:00000fa8       __imp_?GetOwnPropertyNames@Object@v8@@QEAA?AV?$Local@VArray@v8@@@2@XZ 0000000180038fa8     node:node.exe
 0003:00000fb0       __imp_?GetPropertyNames@Object@v8@@QEAA?AV?$Local@VArray@v8@@@2@XZ 0000000180038fb0     node:node.exe
 0003:00000fb8       __imp_?Has@Object@v8@@QEAA_NV?$Local@VValue@v8@@@2@@Z 0000000180038fb8     node:node.exe
 0003:00000fc0       __imp_?Get@Object@v8@@QEAA?AV?$Local@VValue@v8@@@2@V32@@Z 0000000180038fc0     node:node.exe
 0003:00000fc8       __imp_?Get@Object@v8@@QEAA?AV?$Local@VValue@v8@@@2@I@Z 0000000180038fc8     node:node.exe
 0003:00000fd0       __imp_?ForceSet@Object@v8@@QEAA_NV?$Local@VValue@v8@@@2@0W4PropertyAttribute@2@@Z 0000000180038fd0     node:node.exe
 0003:00000fd8       __imp_?Set@Object@v8@@QEAA_NV?$Local@VValue@v8@@@2@0@Z 0000000180038fd8     node:node.exe
 0003:00000fe0       __imp_?Set@Object@v8@@QEAA_NIV?$Local@VValue@v8@@@2@@Z 0000000180038fe0     node:node.exe
 0003:00000fe8       __imp_?Call@Function@v8@@QEAA?AV?$Local@VValue@v8@@@2@V32@HQEAV32@@Z 0000000180038fe8     node:node.exe
 0003:00000ff0       __imp_?NewInstance@Function@v8@@QEBA?AV?$Local@VObject@v8@@@2@HQEAV?$Local@VValue@v8@@@2@@Z 0000000180038ff0     node:node.exe
 0003:00000ff8       __imp_?NewInstance@Function@v8@@QEBA?AV?$MaybeLocal@VObject@v8@@@2@V?$Local@VContext@v8@@@2@HQEAV?$Local@VValue@v8@@@2@@Z 0000000180038ff8     node:node.exe
 0003:00001000       __imp_?NewInstance@Function@v8@@QEBA?AV?$Local@VObject@v8@@@2@XZ 0000000180039000     node:node.exe
 0003:00001008       __imp_?SetInternalFieldCount@ObjectTemplate@v8@@QEAAXH@Z 0000000180039008     node:node.exe
 0003:00001010       __imp_?SetHandler@ObjectTemplate@v8@@QEAAXAEBUIndexedPropertyHandlerConfiguration@2@@Z 0000000180039010     node:node.exe
 0003:00001018       __imp_?NewInstance@ObjectTemplate@v8@@QEAA?AV?$Local@VObject@v8@@@2@XZ 0000000180039018     node:node.exe
 0003:00001020       __imp_?NewInstance@ObjectTemplate@v8@@QEAA?AV?$MaybeLocal@VObject@v8@@@2@V?$Local@VContext@v8@@@2@@Z 0000000180039020     node:node.exe
 0003:00001028       __imp_?New@ObjectTemplate@v8@@SA?AV?$Local@VObjectTemplate@v8@@@2@PEAVIsolate@2@V?$Local@VFunctionTemplate@v8@@@2@@Z 0000000180039028     node:node.exe
 0003:00001030       __imp_?New@ObjectTemplate@v8@@SA?AV?$Local@VObjectTemplate@v8@@@2@XZ 0000000180039030     node:node.exe
 0003:00001038       __imp_uv_cond_init         0000000180039038     node:node.exe
 0003:00001040       __imp_uv_mutex_lock        0000000180039040     node:node.exe
 0003:00001048       __imp_?FatalException@node@@YAXPEAVIsolate@v8@@AEBVTryCatch@3@@Z 0000000180039048     node:node.exe
 0003:00001050       __imp_node_module_register 0000000180039050     node:node.exe
 0003:00001058       __imp_?HasInstance@Buffer@node@@YA_NV?$Local@VValue@v8@@@v8@@@Z 0000000180039058     node:node.exe
 0003:00001060       __imp_?New@Buffer@node@@YA?AV?$MaybeLocal@VObject@v8@@@v8@@PEAVIsolate@4@PEAD_K@Z 0000000180039060     node:node.exe
 0003:00001068       __imp_?Data@Buffer@node@@YAPEADV?$Local@VObject@v8@@@v8@@@Z 0000000180039068     node:node.exe
 0003:00001070       __imp_?Length@Buffer@node@@YA_KV?$Local@VObject@v8@@@v8@@@Z 0000000180039070     node:node.exe
 0003:00001078       __imp_uv_thread_create     0000000180039078     node:node.exe
 0003:00001080       __imp_uv_cond_wait         0000000180039080     node:node.exe
 0003:00001088       __imp_uv_ref               0000000180039088     node:node.exe
 0003:00001090       __imp_uv_mutex_init        0000000180039090     node:node.exe
 0003:00001098       __imp_uv_async_send        0000000180039098     node:node.exe
 0003:000010a0       __imp_uv_async_init        00000001800390a0     node:node.exe
 0003:000010a8       __imp_uv_default_loop      00000001800390a8     node:node.exe
 0003:000010b0       \177node_NULL_THUNK_DATA_DLA 00000001800390b0     node:node.exe
 0003:000010c0       __hmod__node_exe           00000001800390c0     node:node.exe
 0003:000010c8       __scrt_current_native_startup_state 00000001800390c8     LIBCMT:utility.obj
 0003:000010d0       __scrt_native_startup_lock 00000001800390d0     LIBCMT:utility.obj
 0003:00001680       __favor                    0000000180039680     LIBCMT:_cpu_disp_.obj
 0003:00001684       __scrt_debugger_hook_flag  0000000180039684     LIBCMT:utility_desktop.obj
 0003:00001690       ?__type_info_root_node@@3U__type_info_node@@A 0000000180039690     LIBCMT:tncleanup.obj
 0003:000016a0       ?_OptionsStorage@?1??__local_stdio_scanf_options@@9@4_KA 00000001800396a0     LIBCMT:default_local_stdio_options.obj
 0003:000016a8       __pPurecall                00000001800396a8     libvcruntime:purevirt_data.obj
 0003:000017c8       ?pArgList@UnDecorator@@0PEAVReplicator@@EA 00000001800397c8     libvcruntime:undname.obj
 0003:000017d0       ?pZNameList@UnDecorator@@0PEAVReplicator@@EA 00000001800397d0     libvcruntime:undname.obj
 0003:000017d8       ?pTemplateArgList@UnDecorator@@0PEAVReplicator@@EA 00000001800397d8     libvcruntime:undname.obj
 0003:000017e0       ?gName@UnDecorator@@0PEBDEB 00000001800397e0     libvcruntime:undname.obj
 0003:000017e8       ?name@UnDecorator@@0PEBDEB 00000001800397e8     libvcruntime:undname.obj
 0003:000017f0       ?outputString@UnDecorator@@0PEADEA 00000001800397f0     libvcruntime:undname.obj
 0003:000017f8       ?maxStringLength@UnDecorator@@0HA 00000001800397f8     libvcruntime:undname.obj
 0003:000017fc       ?disableFlags@UnDecorator@@0KA 00000001800397fc     libvcruntime:undname.obj
 0003:00001800       ?fExplicitTemplateParams@UnDecorator@@0_NA 0000000180039800     libvcruntime:undname.obj
 0003:00001801       ?fGetTemplateArgumentList@UnDecorator@@0_NA 0000000180039801     libvcruntime:undname.obj
 0003:00001808       ?m_pGetParameter@UnDecorator@@0P6APEADJ@ZEA 0000000180039808     libvcruntime:undname.obj
 0003:00001838       _nstream                   0000000180039838     libucrt:_file.obj
 0003:00001840       __piob                     0000000180039840     libucrt:_file.obj
 0003:00001848       _cflush                    0000000180039848     libucrt:_file.obj
 0003:00001870       _environ_table             0000000180039870     libucrt:environment_initialization.obj
 0003:00001878       _wenviron_table            0000000180039878     libucrt:environment_initialization.obj
 0003:00001880       __dcrt_initial_wide_environment 0000000180039880     libucrt:environment_initialization.obj
 0003:00001888       __dcrt_initial_narrow_environment 0000000180039888     libucrt:environment_initialization.obj
 0003:00001890       __acrt_atexit_table        0000000180039890     libucrt:onexit.obj
 0003:000018a8       __acrt_at_quick_exit_table 00000001800398a8     libucrt:onexit.obj
 0003:000018d0       __pioinfo                  00000001800398d0     libucrt:ioinit.obj
 0003:00001cd0       _nhandle                   0000000180039cd0     libucrt:ioinit.obj
 0003:000020a8       __acrt_stdout_buffer       000000018003a0a8     libucrt:_sftbuf.obj
 0003:000020b0       __acrt_stderr_buffer       000000018003a0b0     libucrt:_sftbuf.obj
 0003:000020b8       __acrt_locale_changed_data 000000018003a0b8     libucrt:wsetlocale.obj
 0003:000020c0       __acrt_current_locale_data 000000018003a0c0     libucrt:nlsdata.obj
 0003:000020f0       __mbcodepage               000000018003a0f0     libucrt:mbctype.obj
 0003:000020f4       __ismbcodepage             000000018003a0f4     libucrt:mbctype.obj
 0003:000020f8       __mbulinfo                 000000018003a0f8     libucrt:mbctype.obj
 0003:00002108       __mblocalename             000000018003a108     libucrt:mbctype.obj
 0003:00002118       __acrt_heap                000000018003a118     libucrt:heap_handle.obj
 0003:00002120       __argv                     000000018003a120     libucrt:argv_data.obj
 0003:00002128       __wargv                    000000018003a128     libucrt:argv_data.obj
 0003:00002130       _acmdln                    000000018003a130     libucrt:argv_data.obj
 0003:00002138       _wcmdln                    000000018003a138     libucrt:argv_data.obj
 0003:0000214c       _commode                   000000018003a14c     libucrt:ncommode.obj
 0003:00002150       __acrt_lconv_static_null   000000018003a150     libucrt:localeconv.obj
 0003:00002154       __acrt_lconv_static_W_null 000000018003a154     libucrt:localeconv.obj
 0003:00002158       _umaskval                  000000018003a158     libucrt:umask.obj
 0003:0000215c       _fmode                     000000018003a15c     libucrt:txtmode.obj
 0003:00002160       __fma3_is_available        000000018003a160     libucrt:fma3_available.obj
 0003:00002164       __use_fma3_lib             000000018003a164     libucrt:fma3_available.obj
 0003:00002168       ?DloadKernel32@@3PEAUHINSTANCE__@@EA 000000018003a168     DelayImp:delayhlp.obj
 0003:00002170       ?DloadAcquireSRWLockExclusive@@3P6AXPEA_K@ZEA 000000018003a170     DelayImp:delayhlp.obj
 0003:00002178       ?DloadReleaseSRWLockExclusive@@3P6AXPEA_K@ZEA 000000018003a178     DelayImp:delayhlp.obj
 0003:00002180       ?DloadSrwLock@@3_KA        000000018003a180     DelayImp:delayhlp.obj
 0003:00002188       ?DloadSectionLockCount@@3KA 000000018003a188     DelayImp:delayhlp.obj
 0003:0000218c       ?DloadSectionOldProtection@@3KA 000000018003a18c     DelayImp:delayhlp.obj
 0003:00002190       ?DloadSectionCommitPermanent@@3KA 000000018003a190     DelayImp:delayhlp.obj
 0003:00002198       __pfnDliFailureHook2       000000018003a198     DelayImp:delayhk1.obj
 0003:000021c8       ?constructor_template@BSON@@2V?$Persistent@VFunctionTemplate@v8@@V?$NonCopyablePersistentTraits@VFunctionTemplate@v8@@@2@@Nan@@A 000000018003a1c8     WebWorkerThreads.obj
 0003:000021e0       ?_OptionsStorage@?1??__local_stdio_printf_options@@9@4_KA 000000018003a1e0     WebWorkerThreads.obj
 0003:000021e8       __dyn_tls_init_callback    000000018003a1e8     <common>
 0003:000021f0       __scrt_ucrt_dll_is_in_use  000000018003a1f0     <common>
 0003:000021f8       _pDestructExceptionObject  000000018003a1f8     <common>

 entry point at        0001:0000b958

 Static symbols

 0000:fffc0000       .debug$S                   0000000180000000     node:node.exe
 0000:fffc0000       .debug$S                   0000000180000000     node:node.exe
 0000:fffc0000       .debug$S                   0000000180000000     node:node.exe
 0000:fffc0000       .debug$S                   0000000180000000     node:node.exe
 0000:fffc0000       .debug$S                   0000000180000000     node:node.exe
 0000:fffc0000       .debug$S                   0000000180000000     node:node.exe
 0000:fffc0000       .debug$S                   0000000180000000     node:node.exe
 0000:fffc0000       .debug$S                   0000000180000000     node:node.exe
 0000:fffc0000       .debug$S                   0000000180000000     node:node.exe
 0000:fffc0000       .debug$S                   0000000180000000     node:node.exe
 0000:fffc0000       .debug$S                   0000000180000000     node:node.exe
 0000:fffc0000       .debug$S                   0000000180000000     node:node.exe
 0000:fffc0000       .debug$S                   0000000180000000     node:node.exe
 0000:fffc0000       .debug$S                   0000000180000000     node:node.exe
 0000:fffc0000       .debug$S                   0000000180000000     node:node.exe
 0000:fffc0000       .debug$S                   0000000180000000     node:node.exe
 0000:fffc0000       .debug$S                   0000000180000000     node:node.exe
 0000:fffc0000       .debug$S                   0000000180000000     node:node.exe
 0000:fffc0000       .debug$S                   0000000180000000     node:node.exe
 0000:fffc0000       .debug$S                   0000000180000000     node:node.exe
 0000:fffc0000       .debug$S                   0000000180000000     node:node.exe
 0000:fffc0000       .debug$S                   0000000180000000     node:node.exe
 0000:fffc0000       .debug$S                   0000000180000000     node:node.exe
 0000:fffc0000       .debug$S                   0000000180000000     node:node.exe
 0000:fffc0000       .debug$S                   0000000180000000     node:node.exe
 0000:fffc0000       .debug$S                   0000000180000000     node:node.exe
 0000:fffc0000       .debug$S                   0000000180000000     node:node.exe
 0000:fffc0000       .debug$S                   0000000180000000     node:node.exe
 0000:fffc0000       .debug$S                   0000000180000000     node:node.exe
 0000:fffc0000       .debug$S                   0000000180000000     node:node.exe
 0000:fffc0000       .debug$S                   0000000180000000     node:node.exe
 0000:fffc0000       .debug$S                   0000000180000000     node:node.exe
 0000:fffc0000       .debug$S                   0000000180000000     node:node.exe
 0000:fffc0000       .debug$S                   0000000180000000     node:node.exe
 0000:fffc0000       .debug$S                   0000000180000000     node:node.exe
 0000:fffc0000       .debug$S                   0000000180000000     node:node.exe
 0000:fffc0000       .debug$S                   0000000180000000     node:node.exe
 0000:fffc0000       .debug$S                   0000000180000000     node:node.exe
 0000:fffc0000       .debug$S                   0000000180000000     node:node.exe
 0000:fffc0000       .debug$S                   0000000180000000     node:node.exe
 0000:fffc0000       .debug$S                   0000000180000000     node:node.exe
 0000:fffc0000       .debug$S                   0000000180000000     node:node.exe
 0000:fffc0000       .debug$S                   0000000180000000     node:node.exe
 0000:fffc0000       .debug$S                   0000000180000000     node:node.exe
 0000:fffc0000       .debug$S                   0000000180000000     node:node.exe
 0000:fffc0000       .debug$S                   0000000180000000     node:node.exe
 0000:fffc0000       .debug$S                   0000000180000000     node:node.exe
 0000:fffc0000       .debug$S                   0000000180000000     node:node.exe
 0000:fffc0000       .debug$S                   0000000180000000     node:node.exe
 0000:fffc0000       .debug$S                   0000000180000000     advapi32:ADVAPI32.dll
 0000:fffc0000       .debug$S                   0000000180000000     node:node.exe
 0000:fffc0000       .debug$S                   0000000180000000     kernel32:KERNEL32.dll
 0000:fffc0000       .debug$S                   0000000180000000     kernel32:KERNEL32.dll
 0000:fffc0000       .debug$S                   0000000180000000     kernel32:KERNEL32.dll
 0000:fffc0000       .debug$S                   0000000180000000     kernel32:KERNEL32.dll
 0000:fffc0000       .debug$S                   0000000180000000     kernel32:KERNEL32.dll
 0000:fffc0000       .debug$S                   0000000180000000     kernel32:KERNEL32.dll
 0000:fffc0000       .debug$S                   0000000180000000     kernel32:KERNEL32.dll
 0000:fffc0000       .debug$S                   0000000180000000     kernel32:KERNEL32.dll
 0000:fffc0000       .debug$S                   0000000180000000     kernel32:KERNEL32.dll
 0000:fffc0000       .debug$S                   0000000180000000     kernel32:KERNEL32.dll
 0000:fffc0000       .debug$S                   0000000180000000     kernel32:KERNEL32.dll
 0000:fffc0000       .debug$S                   0000000180000000     kernel32:KERNEL32.dll
 0000:fffc0000       .debug$S                   0000000180000000     kernel32:KERNEL32.dll
 0000:fffc0000       .debug$S                   0000000180000000     kernel32:KERNEL32.dll
 0000:fffc0000       .debug$S                   0000000180000000     kernel32:KERNEL32.dll
 0000:fffc0000       .debug$S                   0000000180000000     kernel32:KERNEL32.dll
 0000:fffc0000       .debug$S                   0000000180000000     kernel32:KERNEL32.dll
 0000:fffc0000       .debug$S                   0000000180000000     kernel32:KERNEL32.dll
 0000:fffc0000       .debug$S                   0000000180000000     kernel32:KERNEL32.dll
 0000:fffc0000       .debug$S                   0000000180000000     kernel32:KERNEL32.dll
 0000:fffc0000       .debug$S                   0000000180000000     kernel32:KERNEL32.dll
 0000:fffc0000       .debug$S                   0000000180000000     kernel32:KERNEL32.dll
 0000:fffc0000       .debug$S                   0000000180000000     kernel32:KERNEL32.dll
 0000:fffc0000       .debug$S                   0000000180000000     kernel32:KERNEL32.dll
 0000:fffc0000       .debug$S                   0000000180000000     kernel32:KERNEL32.dll
 0000:fffc0000       .debug$S                   0000000180000000     kernel32:KERNEL32.dll
 0000:fffc0000       .debug$S                   0000000180000000     kernel32:KERNEL32.dll
 0000:fffc0000       .debug$S                   0000000180000000     kernel32:KERNEL32.dll
 0000:fffc0000       .debug$S                   0000000180000000     kernel32:KERNEL32.dll
 0000:fffc0000       .debug$S                   0000000180000000     kernel32:KERNEL32.dll
 0000:fffc0000       .debug$S                   0000000180000000     kernel32:KERNEL32.dll
 0000:fffc0000       .debug$S                   0000000180000000     kernel32:KERNEL32.dll
 0000:fffc0000       .debug$S                   0000000180000000     kernel32:KERNEL32.dll
 0000:fffc0000       .debug$S                   0000000180000000     kernel32:KERNEL32.dll
 0000:fffc0000       .debug$S                   0000000180000000     kernel32:KERNEL32.dll
 0000:fffc0000       .debug$S                   0000000180000000     kernel32:KERNEL32.dll
 0000:fffc0000       .debug$S                   0000000180000000     kernel32:KERNEL32.dll
 0000:fffc0000       .debug$S                   0000000180000000     kernel32:KERNEL32.dll
 0000:fffc0000       .debug$S                   0000000180000000     kernel32:KERNEL32.dll
 0000:fffc0000       .debug$S                   0000000180000000     kernel32:KERNEL32.dll
 0000:fffc0000       .debug$S                   0000000180000000     kernel32:KERNEL32.dll
 0000:fffc0000       .debug$S                   0000000180000000     kernel32:KERNEL32.dll
 0000:fffc0000       .debug$S                   0000000180000000     kernel32:KERNEL32.dll
 0000:fffc0000       .debug$S                   0000000180000000     kernel32:KERNEL32.dll
 0000:fffc0000       .debug$S                   0000000180000000     kernel32:KERNEL32.dll
 0000:fffc0000       .debug$S                   0000000180000000     kernel32:KERNEL32.dll
 0000:fffc0000       .debug$S                   0000000180000000     kernel32:KERNEL32.dll
 0000:fffc0000       .debug$S                   0000000180000000     kernel32:KERNEL32.dll
 0000:fffc0000       .debug$S                   0000000180000000     kernel32:KERNEL32.dll
 0000:fffc0000       .debug$S                   0000000180000000     kernel32:KERNEL32.dll
 0000:fffc0000       .debug$S                   0000000180000000     kernel32:KERNEL32.dll
 0000:fffc0000       .debug$S                   0000000180000000     kernel32:KERNEL32.dll
 0000:fffc0000       .debug$S                   0000000180000000     kernel32:KERNEL32.dll
 0000:fffc0000       .debug$S                   0000000180000000     kernel32:KERNEL32.dll
 0000:fffc0000       .debug$S                   0000000180000000     kernel32:KERNEL32.dll
 0000:fffc0000       .debug$S                   0000000180000000     kernel32:KERNEL32.dll
 0000:fffc0000       .debug$S                   0000000180000000     kernel32:KERNEL32.dll
 0000:fffc0000       .debug$S                   0000000180000000     kernel32:KERNEL32.dll
 0000:fffc0000       .debug$S                   0000000180000000     kernel32:KERNEL32.dll
 0000:fffc0000       .debug$S                   0000000180000000     kernel32:KERNEL32.dll
 0000:fffc0000       .debug$S                   0000000180000000     kernel32:KERNEL32.dll
 0000:fffc0000       .debug$S                   0000000180000000     kernel32:KERNEL32.dll
 0000:fffc0000       .debug$S                   0000000180000000     kernel32:KERNEL32.dll
 0000:fffc0000       .debug$S                   0000000180000000     kernel32:KERNEL32.dll
 0000:fffc0000       .debug$S                   0000000180000000     kernel32:KERNEL32.dll
 0000:fffc0000       .debug$S                   0000000180000000     kernel32:KERNEL32.dll
 0000:fffc0000       .debug$S                   0000000180000000     kernel32:KERNEL32.dll
 0000:fffc0000       .debug$S                   0000000180000000     kernel32:KERNEL32.dll
 0000:fffc0000       .debug$S                   0000000180000000     kernel32:KERNEL32.dll
 0000:fffc0000       .debug$S                   0000000180000000     kernel32:KERNEL32.dll
 0000:fffc0000       .debug$S                   0000000180000000     kernel32:KERNEL32.dll
 0000:fffc0000       .debug$S                   0000000180000000     kernel32:KERNEL32.dll
 0000:fffc0000       .debug$S                   0000000180000000     kernel32:KERNEL32.dll
 0000:fffc0000       .debug$S                   0000000180000000     kernel32:KERNEL32.dll
 0000:fffc0000       .debug$S                   0000000180000000     kernel32:KERNEL32.dll
 0000:fffc0000       .debug$S                   0000000180000000     kernel32:KERNEL32.dll
 0000:fffc0000       .debug$S                   0000000180000000     kernel32:KERNEL32.dll
 0000:fffc0000       .debug$S                   0000000180000000     kernel32:KERNEL32.dll
 0000:fffc0000       .debug$S                   0000000180000000     kernel32:KERNEL32.dll
 0000:fffc0000       .debug$S                   0000000180000000     kernel32:KERNEL32.dll
 0000:fffc0000       .debug$S                   0000000180000000     kernel32:KERNEL32.dll
 0000:fffc0000       .debug$S                   0000000180000000     kernel32:KERNEL32.dll
 0000:fffc0000       .debug$S                   0000000180000000     kernel32:KERNEL32.dll
 0000:fffc0000       .debug$S                   0000000180000000     kernel32:KERNEL32.dll
 0000:fffc0000       .debug$S                   0000000180000000     kernel32:KERNEL32.dll
 0000:fffc0000       .debug$S                   0000000180000000     kernel32:KERNEL32.dll
 0000:fffc0000       .debug$S                   0000000180000000     kernel32:KERNEL32.dll
 0000:fffc0000       .debug$S                   0000000180000000     kernel32:KERNEL32.dll
 0000:fffc0000       .debug$S                   0000000180000000     kernel32:KERNEL32.dll
 0000:fffc0000       .debug$S                   0000000180000000     kernel32:KERNEL32.dll
 0000:fffc0000       .debug$S                   0000000180000000     node:node.exe
 0000:fffc0000       .debug$S                   0000000180000000     node:node.exe
 0000:fffc0000       .debug$S                   0000000180000000     node:node.exe
 0000:fffc0000       .debug$S                   0000000180000000     node:node.exe
 0000:fffc0000       .debug$S                   0000000180000000     node:node.exe
 0000:fffc0000       .debug$S                   0000000180000000     node:node.exe
 0000:fffc0000       .debug$S                   0000000180000000     node:node.exe
 0000:fffc0000       .debug$S                   0000000180000000     node:node.exe
 0000:fffc0000       .debug$S                   0000000180000000     node:node.exe
 0000:fffc0000       .debug$S                   0000000180000000     node:node.exe
 0000:fffc0000       .debug$S                   0000000180000000     node:node.exe
 0000:fffc0000       .debug$S                   0000000180000000     node:node.exe
 0000:fffc0000       .debug$S                   0000000180000000     node:node.exe
 0000:fffc0000       .debug$S                   0000000180000000     node:node.exe
 0000:fffc0000       .debug$S                   0000000180000000     node:node.exe
 0000:fffc0000       .debug$S                   0000000180000000     node:node.exe
 0000:fffc0000       .debug$S                   0000000180000000     node:node.exe
 0000:fffc0000       .debug$S                   0000000180000000     node:node.exe
 0000:fffc0000       .debug$S                   0000000180000000     node:node.exe
 0000:fffc0000       .debug$S                   0000000180000000     node:node.exe
 0000:fffc0000       .debug$S                   0000000180000000     node:node.exe
 0000:fffc0000       .debug$S                   0000000180000000     node:node.exe
 0000:fffc0000       .debug$S                   0000000180000000     node:node.exe
 0000:fffc0000       .debug$S                   0000000180000000     node:node.exe
 0000:fffc0000       .debug$S                   0000000180000000     node:node.exe
 0000:fffc0000       .debug$S                   0000000180000000     node:node.exe
 0000:fffc0000       .debug$S                   0000000180000000     node:node.exe
 0000:fffc0000       .debug$S                   0000000180000000     node:node.exe
 0000:fffc0000       .debug$S                   0000000180000000     node:node.exe
 0000:fffc0000       .debug$S                   0000000180000000     node:node.exe
 0000:fffc0000       .debug$S                   0000000180000000     node:node.exe
 0000:fffc0000       .debug$S                   0000000180000000     node:node.exe
 0000:fffc0000       .debug$S                   0000000180000000     node:node.exe
 0000:fffc0000       .debug$S                   0000000180000000     node:node.exe
 0000:fffc0000       .debug$S                   0000000180000000     node:node.exe
 0000:fffc0000       .debug$S                   0000000180000000     node:node.exe
 0000:fffc0000       .debug$S                   0000000180000000     node:node.exe
 0000:fffc0000       .debug$S                   0000000180000000     node:node.exe
 0000:fffc0000       .debug$S                   0000000180000000     node:node.exe
 0000:fffc0000       .debug$S                   0000000180000000     node:node.exe
 0000:fffc0000       .debug$S                   0000000180000000     node:node.exe
 0000:fffc0000       .debug$S                   0000000180000000     node:node.exe
 0000:fffc0000       .debug$S                   0000000180000000     node:node.exe
 0000:fffc0000       .debug$S                   0000000180000000     node:node.exe
 0000:fffc0000       .debug$S                   0000000180000000     node:node.exe
 0000:fffc0000       .debug$S                   0000000180000000     node:node.exe
 0000:fffc0000       .debug$S                   0000000180000000     node:node.exe
 0000:fffc0000       .debug$S                   0000000180000000     node:node.exe
 0000:fffc0000       .debug$S                   0000000180000000     node:node.exe
 0000:fffc0000       .debug$S                   0000000180000000     node:node.exe
 0000:fffc0000       .debug$S                   0000000180000000     node:node.exe
 0000:fffc0000       .debug$S                   0000000180000000     node:node.exe
 0000:fffc0000       .debug$S                   0000000180000000     node:node.exe
 0000:fffc0000       .debug$S                   0000000180000000     node:node.exe
 0000:fffc0000       .debug$S                   0000000180000000     node:node.exe
 0000:fffc0000       .debug$S                   0000000180000000     node:node.exe
 0000:fffc0000       .debug$S                   0000000180000000     node:node.exe
 0000:fffc0000       .debug$S                   0000000180000000     node:node.exe
 0000:fffc0000       .debug$S                   0000000180000000     node:node.exe
 0000:fffc0000       .debug$S                   0000000180000000     node:node.exe
 0000:fffc0000       .debug$S                   0000000180000000     node:node.exe
 0000:fffc0000       .debug$S                   0000000180000000     node:node.exe
 0000:fffc0000       .debug$S                   0000000180000000     node:node.exe
 0000:fffc0000       .debug$S                   0000000180000000     node:node.exe
 0000:fffc0000       .debug$S                   0000000180000000     node:node.exe
 0000:fffc0000       .debug$S                   0000000180000000     node:node.exe
 0000:fffc0000       .debug$S                   0000000180000000     node:node.exe
 0000:fffc0000       .debug$S                   0000000180000000     node:node.exe
 0000:fffc0000       .debug$S                   0000000180000000     node:node.exe
 0000:fffc0000       .debug$S                   0000000180000000     node:node.exe
 0000:fffc0000       .debug$S                   0000000180000000     node:node.exe
 0000:fffc0000       .debug$S                   0000000180000000     node:node.exe
 0000:fffc0000       .debug$S                   0000000180000000     node:node.exe
 0000:fffc0000       .debug$S                   0000000180000000     node:node.exe
 0000:fffc0000       .debug$S                   0000000180000000     node:node.exe
 0000:fffc0000       .debug$S                   0000000180000000     node:node.exe
 0000:fffc0000       .debug$S                   0000000180000000     node:node.exe
 0000:fffc0000       .debug$S                   0000000180000000     node:node.exe
 0000:fffc0000       .debug$S                   0000000180000000     node:node.exe
 0000:fffc0000       .debug$S                   0000000180000000     node:node.exe
 0000:fffc0000       .debug$S                   0000000180000000     node:node.exe
 0000:fffc0000       .debug$S                   0000000180000000     node:node.exe
 0000:fffc0000       .debug$S                   0000000180000000     node:node.exe
 0000:fffc0000       .debug$S                   0000000180000000     node:node.exe
 0000:fffc0000       .debug$S                   0000000180000000     node:node.exe
 0000:fffc0000       .debug$S                   0000000180000000     node:node.exe
 0000:fffc0000       .debug$S                   0000000180000000     node:node.exe
 0000:fffc0000       .debug$S                   0000000180000000     node:node.exe
 0000:fffc0000       .debug$S                   0000000180000000     node:node.exe
 0000:fffc0000       .debug$S                   0000000180000000     node:node.exe
 0000:fffc0000       .debug$S                   0000000180000000     node:node.exe
 0000:fffc0000       .debug$S                   0000000180000000     node:node.exe
 0000:fffc0000       .debug$S                   0000000180000000     node:node.exe
 0000:fffc0000       .debug$S                   0000000180000000     node:node.exe
 0000:fffc0000       .debug$S                   0000000180000000     node:node.exe
 0000:fffc0000       .debug$S                   0000000180000000     node:node.exe
 0000:fffc0000       .debug$S                   0000000180000000     node:node.exe
 0000:fffc0000       .debug$S                   0000000180000000     node:node.exe
 0000:fffc0000       .debug$S                   0000000180000000     node:node.exe
 0000:fffc0000       .debug$S                   0000000180000000     node:node.exe
 0000:fffc0000       .debug$S                   0000000180000000     node:node.exe
 0000:fffc0000       .debug$S                   0000000180000000     node:node.exe
 0000:fffc0000       .debug$S                   0000000180000000     node:node.exe
 0000:fffc0000       .debug$S                   0000000180000000     node:node.exe
 0000:fffc0000       .debug$S                   0000000180000000     node:node.exe
 0000:fffc0000       .debug$S                   0000000180000000     node:node.exe
 0000:fffc0000       .debug$S                   0000000180000000     node:node.exe
 0000:fffc0000       .debug$S                   0000000180000000     node:node.exe
 0000:fffc0000       .debug$S                   0000000180000000     node:node.exe
 0000:fffc0000       .debug$S                   0000000180000000     node:node.exe
 0000:fffc0000       .debug$S                   0000000180000000     node:node.exe
 0000:fffc0000       .debug$S                   0000000180000000     node:node.exe
 0000:fffc0000       .debug$S                   0000000180000000     node:node.exe
 0000:fffc0000       .debug$S                   0000000180000000     node:node.exe
 0000:fffc0000       .debug$S                   0000000180000000     node:node.exe
 0000:fffc0000       .debug$S                   0000000180000000     node:node.exe
 0000:fffc0000       .debug$S                   0000000180000000     node:node.exe
 0000:fffc0000       .debug$S                   0000000180000000     node:node.exe
 0000:fffc0000       .debug$S                   0000000180000000     WebWorkerThreads.exp
 0001:000001e0       ??__E?constructor_template@BSON@@2V?$Persistent@VFunctionTemplate@v8@@V?$NonCopyablePersistentTraits@VFunctionTemplate@v8@@@2@@Nan@@A@@YAXXZ 00000001800011e0 f   WebWorkerThreads.obj
 0001:00000200       ??__Eid_symbol@@YAXXZ      0000000180001200 f   WebWorkerThreads.obj
 0001:00000220       ??__EthreadTemplate@@YAXXZ 0000000180001220 f   WebWorkerThreads.obj
 0001:00001800       ?FunctionCallbackWrapper@imp@Nan@@YAXAEBV?$FunctionCallbackInfo@VValue@v8@@@v8@@@Z 0000000180002800 f   WebWorkerThreads.obj
 0001:00001a40       ?queue_pull@@YAPEAUtypeQueueItem@@PEAUtypeQueue@@@Z 0000000180002a40 f   WebWorkerThreads.obj
 0001:00001aa0       ?nuItem@@YAPEAUtypeQueueItem@@HPEAX@Z 0000000180002aa0 f   WebWorkerThreads.obj
 0001:00001b40       ?destroyItem@@YAXPEAUtypeQueueItem@@@Z 0000000180002b40 f   WebWorkerThreads.obj
 0001:00002ca8       $LN602                     0000000180003ca8     WebWorkerThreads.obj
 0001:00002cf8       $LN601                     0000000180003cf8     WebWorkerThreads.obj
 0001:00003d00       ?ReportException@@YAXPEAVTryCatch@v8@@@Z 0000000180004d00 f   WebWorkerThreads.obj
 0001:000041f0       ?console_common_1@@YAXAEBV?$Local@VValue@v8@@@v8@@PEAU_iobuf@@H@Z 00000001800051f0 f   WebWorkerThreads.obj
 0001:000047b0       ?nuJobQueueItem@@YAPEAUtypeQueueItem@@XZ 00000001800057b0 f   WebWorkerThreads.obj
 0001:00004840       ?pushToInQueue@@YAXPEAUtypeQueueItem@@PEAUtypeThread@@@Z 0000000180005840 f   WebWorkerThreads.obj
 0001:00004ab0       ?aThread@@YAXPEAX@Z        0000000180005ab0 f   WebWorkerThreads.obj
 0001:00004bc0       ?eventLoop@@YAXPEAUtypeThread@@@Z 0000000180005bc0 f   WebWorkerThreads.obj
 0001:00005fa0       ?destroyaThread@@YAXPEAUtypeThread@@@Z 0000000180006fa0 f   WebWorkerThreads.obj
 0001:00006060       ?Callback@@YAXPEAUuv_async_s@@H@Z 0000000180007060 f   WebWorkerThreads.obj
 0001:00006c00       ?readFile@@YAPEADV?$Local@VString@v8@@@v8@@@Z 0000000180007c00 f   WebWorkerThreads.obj
 0001:00008910       _register_WebWorkerThreads 0000000180009910 f   WebWorkerThreads.obj
 0001:0000a960       load_exe_hook              000000018000b960 f   win_delay_load_hook.obj
 0001:0000b180       $$000000                   000000018000c180     LIBCMT:_amdsecgs_.obj
 0001:0000b5fc       ?dllmain_crt_dispatch@@YAHQEAUHINSTANCE__@@KQEAX@Z 000000018000c5fc f   LIBCMT:dll_dllmain.obj
 0001:0000b64c       ?dllmain_crt_process_attach@@YAHQEAUHINSTANCE__@@QEAX@Z 000000018000c64c f   LIBCMT:dll_dllmain.obj
 0001:0000b778       ?dllmain_crt_process_detach@@YAH_N@Z 000000018000c778 f   LIBCMT:dll_dllmain.obj
 0001:0000b7fc       ?dllmain_dispatch@@YAHQEAUHINSTANCE__@@KQEAX@Z 000000018000c7fc f   LIBCMT:dll_dllmain.obj
 0001:0000b904       ?dllmain_raw@@YAHQEAUHINSTANCE__@@KQEAX@Z 000000018000c904 f   LIBCMT:dll_dllmain.obj
 0001:0000baa0       capture_previous_context   000000018000caa0 f   LIBCMT:gs_report.obj
 0001:0000c4d4       _TlgDefineProvider_annotation__Tlg_Microsoft_CRTProviderProv 000000018000d4d4 f   libvcruntime:telemetry.obj
 0001:0000c8d0       $$000000                   000000018000d8d0     libvcruntime:memset.obj
 0001:0000c9bc       MsetTab                    000000018000d9bc     libvcruntime:memset.obj
 0001:0000cccc       ?try_get_function@@YAPEAXW4function_id@?A0x61ce2399@@QEBDQEBW4module_id@2@2@Z 000000018000dccc f   libvcruntime:winapi_downlevel.obj
 0001:0000d2e0       $$000000                   000000018000e2e0     libvcruntime:_jmpuwind_.obj
 0001:0000d354       ??$common_ftell@J@@YAJV__crt_stdio_stream@@@Z 000000018000e354 f   libucrt:ftell.obj
 0001:0000d3c0       ??$common_ftell_nolock@_J@@YA_JV__crt_stdio_stream@@@Z 000000018000e3c0 f   libucrt:ftell.obj
 0001:0000d538       ?common_ftell_read_mode_nolock@@YA_JV__crt_stdio_stream@@_J1@Z 000000018000e538 f   libucrt:ftell.obj
 0001:0000d6b0       ?common_ftell_translated_utf8_nolock@@YA_JV__crt_stdio_stream@@_J@Z 000000018000e6b0 f   libucrt:ftell.obj
 0001:0000d86c       ??$common_fsopen@D@@YAPEAU_iobuf@@QEBD0H@Z 000000018000e86c f   libucrt:fopen.obj
 0001:0000dbc0       common_flush_all           000000018000ebc0 f   libucrt:fflush.obj
 0001:0000ddd8       ?common_fseek@@YAHV__crt_stdio_stream@@_JH@Z 000000018000edd8 f   libucrt:fseek.obj
 0001:0000de44       ?common_fseek_binary_mode_read_only_fast_track_nolock@@YA_NV__crt_stdio_stream@@_JH@Z 000000018000ee44 f   libucrt:fseek.obj
 0001:0000df54       ?common_fseek_nolock@@YAHV__crt_stdio_stream@@_JH@Z 000000018000ef54 f   libucrt:fseek.obj
 0001:0000e698       ??R<lambda_0a64b6a4deda75c01876f29c44fc5eb3>@@QEBAHXZ 000000018000f698 f   libucrt:output.obj
 0001:0000e788       ??R<lambda_dd75445284c072d0bd3768540cc698fa>@@QEBAHXZ 000000018000f788 f   libucrt:output.obj
 0001:000120c8       ??R<lambda_9a20e10065b92b5193c3597a66cba9d4>@@QEBAHXZ 00000001800130c8 f   libucrt:fputs.obj
 0001:00012584       ??$common_assert_to_message_box@_W@@YAXQEB_W0IQEAX@Z 0000000180013584 f   libucrt:assert.obj
 0001:00012648       ??$common_assert_to_message_box_build_string@_W@@YAXQEA_W_KQEB_W2IQEAX@Z 0000000180013648 f   libucrt:assert.obj
 0001:00012e1c       ??$common_assert_to_stderr@_W@@YAXQEB_W0I@Z 0000000180013e1c f   libucrt:assert.obj
 0001:00012f8c       ?get_assert_format@@YAPEB_W_W@Z 0000000180013f8c f   libucrt:assert.obj
 0001:000134b4       ?atexit_exception_filter@@YAHK@Z 00000001800144b4 f   libucrt:exit.obj
 0001:000134c0       ?common_exit@@YAXHW4_crt_exit_cleanup_mode@@W4_crt_exit_return_mode@@@Z 00000001800144c0 f   libucrt:exit.obj
 0001:0001362c       ?exit_or_terminate_process@@YAXI@Z 000000018001462c f   libucrt:exit.obj
 0001:00013678       ?try_cor_exit_process@@YAXI@Z 0000000180014678 f   libucrt:exit.obj
 0001:00013710       ??$common_initialize_environment_nolock@D@@YAHXZ 0000000180014710 f   libucrt:environment_initialization.obj
 0001:0001377c       ??$create_environment@D@@YAQEAPEADQEAD@Z 000000018001477c f   libucrt:environment_initialization.obj
 0001:00013878       ??$free_environment@_W@@YAXQEAPEA_W@Z 0000000180014878 f   libucrt:environment_initialization.obj
 0001:00013878       ??$free_environment@D@@YAXQEAPEAD@Z 0000000180014878 f   libucrt:environment_initialization.obj
 0001:000138bc       ??$uninitialize_environment_internal@D@@YAXAEAPEAPEAD@Z 00000001800148bc f   libucrt:environment_initialization.obj
 0001:000138d8       ??$uninitialize_environment_internal@_W@@YAXAEAPEAPEA_W@Z 00000001800148d8 f   libucrt:environment_initialization.obj
 0001:00013b10       ??R<lambda_4e60a939b0d047cfe11ddc22648dfba9>@@QEBAHXZ 0000000180014b10 f   libucrt:onexit.obj
 0001:00013dc0       initialize_global_variables 0000000180014dc0 f   libucrt:initialization.obj
 0001:00013dd4       initialize_c               0000000180014dd4 f   libucrt:initialization.obj
 0001:00013df8       uninitialize_environment   0000000180014df8 f   libucrt:initialization.obj
 0001:00013e08       report_memory_leaks        0000000180014e08 f   libucrt:initialization.obj
 0001:00013e08       uninitialize_c             0000000180014e08 f   libucrt:initialization.obj
 0001:00013e08       initialize_environment     0000000180014e08 f   libucrt:initialization.obj
 0001:00013e08       initialize_global_state_isolation 0000000180014e08 f   libucrt:initialization.obj
 0001:00013e08       uninitialize_global_state_isolation 0000000180014e08 f   libucrt:initialization.obj
 0001:00013e0c       initialize_pointers        0000000180014e0c f   libucrt:initialization.obj
 0001:00013e60       uninitialize_vcruntime     0000000180014e60 f   libucrt:initialization.obj
 0001:00013e68       uninitialize_allocated_memory 0000000180014e68 f   libucrt:initialization.obj
 0001:00014e98       ??$common_lseek@J@@YAJHJH@Z 0000000180015e98 f   libucrt:lseek.obj
 0001:00014f84       ??$common_lseek@_J@@YA_JH_JH@Z 0000000180015f84 f   libucrt:lseek.obj
 0001:00015074       ??$common_lseek_nolock@J@@YAJHJH@Z 0000000180016074 f   libucrt:lseek.obj
 0001:000150f0       ??$common_lseek_nolock@_J@@YA_JH_JH@Z 00000001800160f0 f   libucrt:lseek.obj
 0001:0001518c       ?common_lseek_do_seek_nolock@@YAJQEAXJH@Z 000000018001618c f   libucrt:lseek.obj
 0001:0001527c       ??$translate_text_mode_nolock@_W@@YAHHQEA_W_K@Z 000000018001627c f   libucrt:read.obj
 0001:000154ac       ?translate_ansi_or_utf8_nolock@@YAHHQEAD_KQEA_W1@Z 00000001800164ac f   libucrt:read.obj
 0001:00015d2c       ?initialize_inherited_file_handles_nolock@@YAXXZ 0000000180016d2c f   libucrt:ioinit.obj
 0001:00015e18       ?initialize_stdio_handles_nolock@@YAXXZ 0000000180016e18 f   libucrt:ioinit.obj
 0001:00016030       ?find_or_allocate_unused_stream_nolock@@YA?AV__crt_stdio_stream@@XZ 0000000180017030 f   libucrt:stream.obj
 0001:00016454       ?try_get_function@@YAPEAXW4function_id@?A0x63058377@@QEBDQEBW4module_id@2@2@Z 0000000180017454 f   libucrt:winapi_thunks.obj
 0001:00016f98       ?write_double_translated_ansi_nolock@@YA?AUwrite_result@?A0x9c548279@@HQEBDI@Z 0000000180017f98 f   libucrt:write.obj
 0001:000171a0       ?write_text_ansi_nolock@@YA?AUwrite_result@?A0x9c548279@@HQEBDI@Z 00000001800181a0 f   libucrt:write.obj
 0001:000172a8       ?write_text_utf16le_nolock@@YA?AUwrite_result@?A0x9c548279@@HQEBDI@Z 00000001800182a8 f   libucrt:write.obj
 0001:000173c4       ?write_text_utf8_nolock@@YA?AUwrite_result@?A0x9c548279@@HQEBDI@Z 00000001800183c4 f   libucrt:write.obj
 0001:00017b50       ?internal_isupper_l@@YA_NHQEAU__crt_locale_pointers@@@Z 0000000180018b50 f   libucrt:tolower_toupper.obj
 0001:000184dc       ?construct_ptd_array@@YAXQEAU__acrt_ptd@@@Z 00000001800194dc f   libucrt:per_thread_data.obj
 0001:000185ac       ?destroy_fls@@YAXPEAX@Z    00000001800195ac f   libucrt:per_thread_data.obj
 0001:000185cc       ?destroy_ptd_array@@YAXQEAU__acrt_ptd@@@Z 00000001800195cc f   libucrt:per_thread_data.obj
 0001:000186c4       ?replace_current_thread_locale_nolock@@YAXQEAU__acrt_ptd@@QEAU__crt_locale_data@@@Z 00000001800196c4 f   libucrt:per_thread_data.obj
 0001:000189d4       ?fp_format_a@@YAHQEBNPEAD_KQEAD2H_NIQEAU__crt_locale_pointers@@@Z 00000001800199d4 f   libucrt:cvt.obj
 0001:00018d34       ?fp_format_e@@YAHQEBNQEAD_K12H_NIQEAU__crt_locale_pointers@@@Z 0000000180019d34 f   libucrt:cvt.obj
 0001:00018e04       ?fp_format_e_internal@@YAHQEAD_KH_NIQEAU_strflt@@2QEAU__crt_locale_pointers@@@Z 0000000180019e04 f   libucrt:cvt.obj
 0001:00018fe0       ?fp_format_f_internal@@YAHQEAD_KHQEAU_strflt@@_NQEAU__crt_locale_pointers@@@Z 0000000180019fe0 f   libucrt:cvt.obj
 0001:00019128       ?fp_format_g@@YAHQEBNQEAD_K12H_NIQEAU__crt_locale_pointers@@@Z 000000018001a128 f   libucrt:cvt.obj
 0001:00019260       ?fp_format_nan_or_infinity@@YAHW4__acrt_fp_class@@_NPEAD_K1@Z 000000018001a260 f   libucrt:cvt.obj
 0001:000198dc       ??$write_buffer_nolock@D@@YA_NDV__crt_stdio_stream@@@Z 000000018001a8dc f   libucrt:_flsbuf.obj
 0001:000199e0       ??$write_buffer_nolock@_W@@YA_N_WV__crt_stdio_stream@@@Z 000000018001a9e0 f   libucrt:_flsbuf.obj
 0001:00019e5c       ??$common_refill_and_read_nolock@D@@YAHV__crt_stdio_stream@@@Z 000000018001ae5c f   libucrt:_filbuf.obj
 0001:0001a014       ??$common_xtox@K_W@@YAHKQEA_W_KI_N@Z 000000018001b014 f   libucrt:xtoa.obj
 0001:0001a0c0       ??$common_xtox_s@K_W@@YAHKQEA_W_KI_N@Z 000000018001b0c0 f   libucrt:xtoa.obj
 0001:0001a384       ??$message_box_wait_thread@_W@@YAKQEAX@Z 000000018001b384 f   libucrt:crtmbox.obj
 0001:0001a508       ??R<lambda_b721fa326cdb32351d23dfa67958c160>@@QEBAHXZ 000000018001b508 f   libucrt:setvbuf.obj
 0001:0001aae8       ??R<lambda_ad1ced32f4ac17aa236e5ef05d6b3b7c>@@QEBAXXZ 000000018001bae8 f   libucrt:mbctype.obj
 0001:0001ad00       ?getSystemCP@@YAHH@Z       000000018001bd00 f   libucrt:mbctype.obj
 0001:0001ad80       ?setSBCS@@YAXPEAU__crt_multibyte_data@@@Z 000000018001bd80 f   libucrt:mbctype.obj
 0001:0001ae10       ?setSBUpLow@@YAXPEAU__crt_multibyte_data@@@Z 000000018001be10 f   libucrt:mbctype.obj
 0001:0001aff4       ?setmbcp_internal@@YAHH_N@Z 000000018001bff4 f   libucrt:mbctype.obj
 0001:0001bfb0       $$000000                   000000018001cfb0     libucrt:strncmp.obj
 0001:0001c1b4       ??$common_sopen_dispatch@D@@YAHQEBDHHHQEAHH@Z 000000018001d1b4 f   libucrt:open.obj
 0001:0001c294       ?configure_text_mode@@YAHHUfile_options@?A0x656cf9f4@@HAEAW4__crt_lowio_text_mode@@@Z 000000018001d294 f   libucrt:open.obj
 0001:0001c528       ?decode_options@@YA?AUfile_options@?A0x656cf9f4@@HHH@Z 000000018001d528 f   libucrt:open.obj
 0001:0001c734       ?truncate_ctrl_z_if_present@@YAHH@Z 000000018001d734 f   libucrt:open.obj
 0001:0001ccac       ?GetTableIndexFromLocaleName@@YAHPEB_W@Z 000000018001dcac f   libucrt:lcidtoname_downlevel.obj
 0001:0001ce44       ?__acrt_LCMapStringA_stat@@YAHPEAU__crt_locale_pointers@@PEB_WKPEBDHPEADHHH@Z 000000018001de44 f   libucrt:lcmapstringa.obj
 0001:0001ef4c       memcpy_s                   000000018001ff4c f   libucrt:cfout.obj
 0001:0001f14c       ?free_crt_array_internal@@YAXQEAPEBX_K@Z 000000018002014c f   libucrt:inittime.obj
 0001:0001f4c4       ?initialize_multibyte@@YAHXZ 00000001800204c4 f   libucrt:multibyte_initializer.obj
 0001:0001fb20       $$000000                   0000000180020b20     libucrt:log10.obj
 0001:000201fc       common_control87           00000001800211fc f   libucrt:ieee.obj
 0001:00020494       _call_matherr              0000000180021494 f   libucrt:libm_error.obj
 0001:000204fc       _exception_enabled         00000001800214fc f   libucrt:libm_error.obj
 0001:00020790       _log_special_common        0000000180021790 f   libucrt:log_special.obj
 0001:00020830       $$000000                   0000000180021830     libucrt:fpsr.obj
 0001:000214f0       $$000000                   00000001800224f0     LIBCMT:_chkstk_.obj
 0001:00021560       $$000000                   0000000180022560     libvcruntime:memcpy.obj
 0001:00021607       MoveSmall                  0000000180022607     libvcruntime:memcpy.obj
 0001:00021af0       $$000000                   0000000180022af0     libvcruntime:memcmp.obj
 0001:00021bd0       $$000000                   0000000180022bd0     LIBCMT:_guard_dispatch_.obj
 0001:00021bf0       __scrt_is_nonwritable_in_current_image$filt$0 0000000180022bf0 f   LIBCMT:utility.obj
 0001:00021c08       ?fin$0@?0??dllmain_crt_process_attach@@YAHQEAUHINSTANCE__@@QEAX@Z@4HA 0000000180022c08 f   LIBCMT:dll_dllmain.obj
 0001:00021c1f       ?fin$0@?0??dllmain_crt_process_detach@@YAH_N@Z@4HA 0000000180022c1f f   LIBCMT:dll_dllmain.obj
 0001:00021c3b       ?filt$0@?0??dllmain_dispatch@@YAHQEAUHINSTANCE__@@KQEAX@Z@4HA 0000000180022c3b f   LIBCMT:dll_dllmain.obj
 0001:00021c71       ?fin$0@?0???$common_fsopen@D@@YAPEAU_iobuf@@QEBD0H@Z@4HA 0000000180022c71 f   libucrt:fopen.obj
 0001:00021c9c       common_flush_all$fin$0     0000000180022c9c f   libucrt:fflush.obj
 0001:00021cb6       common_flush_all$fin$1     0000000180022cb6 f   libucrt:fflush.obj
 0001:00021ccf       fflush$fin$0               0000000180022ccf f   libucrt:fflush.obj
 0001:00021ccf       rewind$fin$0               0000000180022ccf f   libucrt:rewind.obj
 0001:00021ccf       fclose$fin$0               0000000180022ccf f   libucrt:fclose.obj
 0001:00021ce7       ?fin$0@?0??common_fseek@@YAHV__crt_stdio_stream@@_JH@Z@4HA 0000000180022ce7 f   libucrt:fseek.obj
 0001:00021ce7       ?fin$0@?0???$common_ftell@J@@YAJV__crt_stdio_stream@@@Z@4HA 0000000180022ce7 f   libucrt:ftell.obj
 0001:00021d01       fputc$fin$0                0000000180022d01 f   libucrt:fputc.obj
 0001:00021d1b       fread_s$fin$0              0000000180022d1b f   libucrt:fread.obj
 0001:00021d33       _query_new_handler$fin$0   0000000180022d33 f   libucrt:new_handler.obj
 0001:00021d49       ?filt$0@?0??common_exit@@YAXHW4_crt_exit_cleanup_mode@@W4_crt_exit_return_mode@@@Z@4HA 0000000180022d49 f   libucrt:exit.obj
 0001:00021d64       ?fin$1@?0??common_exit@@YAXHW4_crt_exit_cleanup_mode@@W4_crt_exit_return_mode@@@Z@4HA 0000000180022d64 f   libucrt:exit.obj
 0001:00021d7d       ?fin$0@?0???$?RV<lambda_e24bbb7b643b32fcea6fa61b31d4c984>@@AEAV<lambda_275893d493268fdec8709772e3fcec0e>@@V<lambda_9d71df4d7cf3f480f8d633942495c3b0>@@@?$__crt_seh_guarded_call@H@@QEAAH$$QEAV<lambda_e24bbb7b643b32fcea6fa61b31d4c984>@@AEAV<lambda_275893d493268fdec8709772e3fcec0e>@@$$QEAV<lambda_9d71df4d7cf3f480f8d633942495c3b0>@@@Z@4HA 0000000180022d7d f   libucrt:onexit.obj
 0001:00021d9a       _write$fin$0               0000000180022d9a f   libucrt:write.obj
 0001:00021d9a       _read$fin$0                0000000180022d9a f   libucrt:read.obj
 0001:00021d9a       ?fin$0@?0???$common_lseek@J@@YAJHJH@Z@4HA 0000000180022d9a f   libucrt:lseek.obj
 0001:00021d9a       ?fin$0@?0???$common_lseek@_J@@YA_JH_JH@Z@4HA 0000000180022d9a f   libucrt:lseek.obj
 0001:00021db1       __acrt_initialize_lowio$fin$0 0000000180022db1 f   libucrt:ioinit.obj
 0001:00021db1       __acrt_lowio_ensure_fh_exists$fin$0 0000000180022db1 f   libucrt:osfinfo.obj
 0001:00021db1       _alloc_osfhnd$fin$0        0000000180022db1 f   libucrt:osfinfo.obj
 0001:00021dca       _fcloseall$fin$0           0000000180022dca f   libucrt:closeall.obj
 0001:00021dca       ?fin$0@?0??__acrt_stdio_allocate_stream@@YA?AV__crt_stdio_stream@@XZ@4HA 0000000180022dca f   libucrt:stream.obj
 0001:00021de3       ?fin$0@?0???$?RV<lambda_b521505b218e5242e90febf6bfebc422>@@AEAV<lambda_6978c1fb23f02e42e1d9e99668cc68aa>@@V<lambda_314360699dd331753a4119843814e9a7>@@@?$__crt_seh_guarded_call@H@@QEAAH$$QEAV<lambda_b521505b218e5242e90febf6bfebc422>@@AEAV<lambda_6978c1fb23f02e42e1d9e99668cc68aa>@@$$QEAV<lambda_314360699dd331753a4119843814e9a7>@@@Z@4HA 0000000180022de3 f   libucrt:commit.obj
 0001:00021de3       ?fin$0@?0???$?RV<lambda_bfedae4ebbf01fab1bb6dcc6a9e276e0>@@AEAV<lambda_2fe9b910cf3cbf4a0ab98a02ba45b3ec>@@V<lambda_237c231691f317818eb88cc1d5d642d6>@@@?$__crt_seh_guarded_call@H@@QEAAH$$QEAV<lambda_bfedae4ebbf01fab1bb6dcc6a9e276e0>@@AEAV<lambda_2fe9b910cf3cbf4a0ab98a02ba45b3ec>@@$$QEAV<lambda_237c231691f317818eb88cc1d5d642d6>@@@Z@4HA 0000000180022de3 f   libucrt:close.obj
 0001:00021dfd       ?fin$0@?0???$?RV<lambda_46352004c1216016012b18bd6f87e700>@@AEAV<lambda_3bd07e1a1191394380780325891bf33f>@@V<lambda_334532d3f185bcaa59b5be82d7d22bff>@@@?$__crt_seh_guarded_call@X@@QEAAX$$QEAV<lambda_46352004c1216016012b18bd6f87e700>@@AEAV<lambda_3bd07e1a1191394380780325891bf33f>@@$$QEAV<lambda_334532d3f185bcaa59b5be82d7d22bff>@@@Z@4HA 0000000180022dfd f   libucrt:per_thread_data.obj
 0001:00021dfd       ?fin$0@?0???$?RV<lambda_c36588078e9f5dfd39652860aa6b3aaf>@@AEAV<lambda_ec61778202f4f5fc7e7711acc23c3bca>@@V<lambda_dc9d2797ccde5d239b4a0efae8ebd7db>@@@?$__crt_seh_guarded_call@P6AXH@Z@@QEAAP6AXH@Z$$QEAV<lambda_c36588078e9f5dfd39652860aa6b3aaf>@@AEAV<lambda_ec61778202f4f5fc7e7711acc23c3bca>@@$$QEAV<lambda_dc9d2797ccde5d239b4a0efae8ebd7db>@@@Z@4HA 0000000180022dfd f   libucrt:signal.obj
 0001:00021dfd       ?fin$0@?0???$?RV<lambda_5e887d1dcbef67a5eb4283622ba103bf>@@AEAV<lambda_4466841279450cc726390878d4a41900>@@V<lambda_341c25c0346d94847f1f3c463c57e077>@@@?$__crt_seh_guarded_call@X@@QEAAX$$QEAV<lambda_5e887d1dcbef67a5eb4283622ba103bf>@@AEAV<lambda_4466841279450cc726390878d4a41900>@@$$QEAV<lambda_341c25c0346d94847f1f3c463c57e077>@@@Z@4HA 0000000180022dfd f   libucrt:per_thread_data.obj
 0001:00021dfd       ?fin$0@?0???$?RV<lambda_72d1df2b273a38828b1ce30cbf4cdab5>@@AEAV<lambda_876a65b173b8412d3a47c70a915b0cf4>@@V<lambda_41932305e351933ebe8f8be3ed8bb5dc>@@@?$__crt_seh_guarded_call@X@@QEAAX$$QEAV<lambda_72d1df2b273a38828b1ce30cbf4cdab5>@@AEAV<lambda_876a65b173b8412d3a47c70a915b0cf4>@@$$QEAV<lambda_41932305e351933ebe8f8be3ed8bb5dc>@@@Z@4HA 0000000180022dfd f   libucrt:per_thread_data.obj
 0001:00021dfd       ?fin$0@?0???$?RV<lambda_99476a1ad63dd22509b5d3e65b0ffc95>@@AEAV<lambda_ad1ced32f4ac17aa236e5ef05d6b3b7c>@@V<lambda_f7424dd8d45958661754dc4f2697e9c3>@@@?$__crt_seh_guarded_call@X@@QEAAX$$QEAV<lambda_99476a1ad63dd22509b5d3e65b0ffc95>@@AEAV<lambda_ad1ced32f4ac17aa236e5ef05d6b3b7c>@@$$QEAV<lambda_f7424dd8d45958661754dc4f2697e9c3>@@@Z@4HA 0000000180022dfd f   libucrt:mbctype.obj
 0001:00021dfd       ?fin$0@?0???$?RV<lambda_b8c45f8f788dd370798f47cfe8ac3a86>@@AEAV<lambda_4e60a939b0d047cfe11ddc22648dfba9>@@V<lambda_332c3edc96d0294ec56c57d38c1cdfd5>@@@?$__crt_seh_guarded_call@H@@QEAAH$$QEAV<lambda_b8c45f8f788dd370798f47cfe8ac3a86>@@AEAV<lambda_4e60a939b0d047cfe11ddc22648dfba9>@@$$QEAV<lambda_332c3edc96d0294ec56c57d38c1cdfd5>@@@Z@4HA 0000000180022dfd f   libucrt:onexit.obj
 0001:00021dfd       ?fin$0@?0???$?RV<lambda_fb3a7dec4e47f37f22dae91bb15c9095>@@AEAV<lambda_698284760c8add0bfb0756c19673e34b>@@V<lambda_dfb8eca1e75fef3034a8fb18dd509707>@@@?$__crt_seh_guarded_call@X@@QEAAX$$QEAV<lambda_fb3a7dec4e47f37f22dae91bb15c9095>@@AEAV<lambda_698284760c8add0bfb0756c19673e34b>@@$$QEAV<lambda_dfb8eca1e75fef3034a8fb18dd509707>@@@Z@4HA 0000000180022dfd f   libucrt:per_thread_data.obj
 0001:00021e17       __acrt_update_thread_locale_data$fin$0 0000000180022e17 f   libucrt:locale_refcounting.obj
 0001:00021e17       __acrt_uninitialize_locale$fin$0 0000000180022e17 f   libucrt:wsetlocale.obj
 0001:00021e30       ?fin$0@?0???$?RV<lambda_a81aa23bb2c9577c1e55b9d0b57d9de4>@@AEAV<lambda_9a20e10065b92b5193c3597a66cba9d4>@@V<lambda_cb3a421ff86d8a5f008440ee6b28fa9c>@@@?$__crt_seh_guarded_call@H@@QEAAH$$QEAV<lambda_a81aa23bb2c9577c1e55b9d0b57d9de4>@@AEAV<lambda_9a20e10065b92b5193c3597a66cba9d4>@@$$QEAV<lambda_cb3a421ff86d8a5f008440ee6b28fa9c>@@@Z@4HA 0000000180022e30 f   libucrt:fputs.obj
 0001:00021e30       ?fin$0@?0???$?RV<lambda_7a5ef57ff966f610505f1d28a3d40618>@@AEAV<lambda_b721fa326cdb32351d23dfa67958c160>@@V<lambda_5e0fb27672408a07956fe59e48ccb2aa>@@@?$__crt_seh_guarded_call@H@@QEAAH$$QEAV<lambda_7a5ef57ff966f610505f1d28a3d40618>@@AEAV<lambda_b721fa326cdb32351d23dfa67958c160>@@$$QEAV<lambda_5e0fb27672408a07956fe59e48ccb2aa>@@@Z@4HA 0000000180022e30 f   libucrt:setvbuf.obj
 0001:00021e30       ?fin$0@?0???$?RV<lambda_7b91131dde12e1c3dfc74ff76b3f2eac>@@AEAV<lambda_dd75445284c072d0bd3768540cc698fa>@@V<lambda_16bc4ecb55b4718497c16bceaea2ceaf>@@@?$__crt_seh_guarded_call@H@@QEAAH$$QEAV<lambda_7b91131dde12e1c3dfc74ff76b3f2eac>@@AEAV<lambda_dd75445284c072d0bd3768540cc698fa>@@$$QEAV<lambda_16bc4ecb55b4718497c16bceaea2ceaf>@@@Z@4HA 0000000180022e30 f   libucrt:output.obj
 0001:00021e30       ?fin$0@?0???$?RV<lambda_aa279a7bcb127014629d5b1d62c7325d>@@AEAV<lambda_0a64b6a4deda75c01876f29c44fc5eb3>@@V<lambda_3323e69fbefe9d1a11713e670d47cdfa>@@@?$__crt_seh_guarded_call@H@@QEAAH$$QEAV<lambda_aa279a7bcb127014629d5b1d62c7325d>@@AEAV<lambda_0a64b6a4deda75c01876f29c44fc5eb3>@@$$QEAV<lambda_3323e69fbefe9d1a11713e670d47cdfa>@@@Z@4HA 0000000180022e30 f   libucrt:output.obj
 0001:00021e4b       raise$fin$0                0000000180022e4b f   libucrt:signal.obj
 0001:00021e6f       __acrt_update_thread_multibyte_data$fin$0 0000000180022e6f f   libucrt:mbctype.obj
 0001:00021e88       ?fin$0@?0???$common_sopen_dispatch@D@@YAHQEBDHHHQEAHH@Z@4HA 0000000180022e88 f   libucrt:open.obj
 0001:00021edb       _ctrlfp$filt$0             0000000180022edb f   libucrt:fpctrl.obj
 0001:00021edb       common_control87$filt$0    0000000180022edb f   libucrt:ieee.obj
 0001:00021f10       _IsNonwritableInCurrentImage$filt$0 0000000180022f10 f   LIBCMT:pesect.obj
 0001:00021f30       ??__F?constructor_template@BSON@@2V?$Persistent@VFunctionTemplate@v8@@V?$NonCopyablePersistentTraits@VFunctionTemplate@v8@@@2@@Nan@@A@@YAXXZ 0000000180022f30 f   WebWorkerThreads.obj
 0001:00021f40       ??__Fid_symbol@@YAXXZ      0000000180022f40 f   WebWorkerThreads.obj
 0001:00021f50       ??__FthreadTemplate@@YAXXZ 0000000180022f50 f   WebWorkerThreads.obj
 0002:00000290       ?id_symbol$initializer$@@3P6AXXZEA 0000000180023290     WebWorkerThreads.obj
 0002:00000298       ??constructor_template$initializer$@BSON@@2P6AXXZEA@@3P6AXXZEA 0000000180023298     WebWorkerThreads.obj
 0002:000002a0       ?threadTemplate$initializer$@@3P6AXXZEA 00000001800232a0     WebWorkerThreads.obj
 0002:00000348       GS_ExceptionPointers       0000000180023348     LIBCMT:gs_report.obj
 0002:00000410       ?ExceptionTemplate@?1??_CxxThrowException@@9@4UEHExceptionRecord@@B 0000000180023410     libvcruntime:throw.obj
 0002:00000450       ?module_names@?A0x61ce2399@@3QBQEB_WB 0000000180023450     libvcruntime:winapi_downlevel.obj
 0002:0000051c       ?candidate_modules@?1??try_get_EventRegister@@YAP6AKPEBU_GUID@@P6AX0KE_K1PEAU_EVENT_FILTER_DESCRIPTOR@@PEAX@Z3PEA_K@ZXZ@4QBW4module_id@?A0x61ce2399@@B 000000018002351c     libvcruntime:winapi_downlevel.obj
 0002:00000530       ?candidate_modules@?1??try_get_EventSetInformation@@YAP6AK_KW4_EVENT_INFO_CLASS@@PEAXK@ZXZ@4QBW4module_id@?A0x61ce2399@@B 0000000180023530     libvcruntime:winapi_downlevel.obj
 0002:0000054c       ?candidate_modules@?1??try_get_EventUnregister@@YAP6AK_K@ZXZ@4QBW4module_id@?A0x61ce2399@@B 000000018002354c     libvcruntime:winapi_downlevel.obj
 0002:00000560       ?candidate_modules@?1??try_get_EventWriteTransfer@@YAP6AK_KPEBU_EVENT_DESCRIPTOR@@PEBU_GUID@@2KPEAU_EVENT_DATA_DESCRIPTOR@@@ZXZ@4QBW4module_id@?A0x61ce2399@@B 0000000180023560     libvcruntime:winapi_downlevel.obj
 0002:00000580       ?candidate_modules@?1??try_get_FlsAlloc@@YAP6AKP6AXPEAX@Z@ZXZ@4QBW4module_id@?A0x61ce2399@@B 0000000180023580     libvcruntime:winapi_downlevel.obj
 0002:00000598       ?candidate_modules@?1??try_get_FlsFree@@YAP6AHK@ZXZ@4QBW4module_id@?A0x61ce2399@@B 0000000180023598     libvcruntime:winapi_downlevel.obj
 0002:000005a8       ?candidate_modules@?1??try_get_FlsGetValue@@YAP6APEAXK@ZXZ@4QBW4module_id@?A0x61ce2399@@B 00000001800235a8     libvcruntime:winapi_downlevel.obj
 0002:000005c0       ?candidate_modules@?1??try_get_FlsSetValue@@YAP6AHKPEAX@ZXZ@4QBW4module_id@?A0x61ce2399@@B 00000001800235c0     libvcruntime:winapi_downlevel.obj
 0002:000005d8       ?candidate_modules@?1??try_get_InitializeCriticalSectionEx@@YAP6AHPEAU_RTL_CRITICAL_SECTION@@KK@ZXZ@4QBW4module_id@?A0x61ce2399@@B 00000001800235d8     libvcruntime:winapi_downlevel.obj
 0002:00000ac0       ?rttiTable@@3QBQEBDB       0000000180023ac0     libvcruntime:undname.obj
 0002:00000af0       ?tokenTable@@3QBQEBDB      0000000180023af0     libvcruntime:undname.obj
 0002:00000b60       ?nameTable@@3QBQEBDB       0000000180023b60     libvcruntime:undname.obj
 0002:00001000       errtable                   0000000180024000     libucrt:errno.obj
 0002:00001590       __acrt_initializers        0000000180024590     libucrt:initialization.obj
 0002:000016a0       module_names               00000001800246a0     libucrt:winapi_thunks.obj
 0002:00001bd0       ?candidate_modules@?1??try_get_AreFileApisANSI@@YAP6AHXZXZ@4QBW4module_id@?A0x63058377@@B 0000000180024bd0     libucrt:winapi_thunks.obj
 0002:00001be8       ?candidate_modules@?1??try_get_FlsAlloc@@YAP6AKP6AXPEAX@Z@ZXZ@4QBW4module_id@?A0x63058377@@B 0000000180024be8     libucrt:winapi_thunks.obj
 0002:00001bf0       ?candidate_modules@?1??try_get_FlsFree@@YAP6AHK@ZXZ@4QBW4module_id@?A0x63058377@@B 0000000180024bf0     libucrt:winapi_thunks.obj
 0002:00001bf8       ?candidate_modules@?1??try_get_FlsGetValue@@YAP6APEAXK@ZXZ@4QBW4module_id@?A0x63058377@@B 0000000180024bf8     libucrt:winapi_thunks.obj
 0002:00001c00       ?candidate_modules@?1??try_get_FlsSetValue@@YAP6AHKPEAX@ZXZ@4QBW4module_id@?A0x63058377@@B 0000000180024c00     libucrt:winapi_thunks.obj
 0002:00001c08       ?candidate_modules@?1??try_get_GetActiveWindow@@YAP6APEAUHWND__@@XZXZ@4QBW4module_id@?A0x63058377@@B 0000000180024c08     libucrt:winapi_thunks.obj
 0002:00001c20       ?candidate_modules@?1??try_get_GetCurrentPackageId@@YAP6AJPEAIPEAE@ZXZ@4QBW4module_id@?A0x63058377@@B 0000000180024c20     libucrt:winapi_thunks.obj
 0002:00001c40       ?candidate_modules@?1??try_get_GetLastActivePopup@@YAP6APEAUHWND__@@PEAU2@@ZXZ@4QBW4module_id@?A0x63058377@@B 0000000180024c40     libucrt:winapi_thunks.obj
 0002:00001c60       ?candidate_modules@?1??try_get_GetProcessWindowStation@@YAP6APEAUHWINSTA__@@XZXZ@4QBW4module_id@?A0x63058377@@B 0000000180024c60     libucrt:winapi_thunks.obj
 0002:00001c80       ?candidate_modules@?1??try_get_GetUserObjectInformationW@@YAP6AHPEAXH0KPEAK@ZXZ@4QBW4module_id@?A0x63058377@@B 0000000180024c80     libucrt:winapi_thunks.obj
 0002:00001ca8       ?candidate_modules@?1??try_get_InitializeCriticalSectionEx@@YAP6AHPEAU_RTL_CRITICAL_SECTION@@KK@ZXZ@4QBW4module_id@?A0x63058377@@B 0000000180024ca8     libucrt:winapi_thunks.obj
 0002:00001cb0       ?candidate_modules@?1??try_get_LCMapStringEx@@YAP6AHPEB_WK0HPEA_WHPEAU_nlsversioninfo@@PEAX_J@ZXZ@4QBW4module_id@?A0x63058377@@B 0000000180024cb0     libucrt:winapi_thunks.obj
 0002:00001cc8       ?candidate_modules@?1??try_get_LocaleNameToLCID@@YAP6AKPEB_WK@ZXZ@4QBW4module_id@?A0x63058377@@B 0000000180024cc8     libucrt:winapi_thunks.obj
 0002:00001ce8       ?candidate_modules@?1??try_get_MessageBoxA@@YAP6AHPEAUHWND__@@PEBD1I@ZXZ@4QBW4module_id@?A0x63058377@@B 0000000180024ce8     libucrt:winapi_thunks.obj
 0002:00001d00       ?candidate_modules@?1??try_get_MessageBoxW@@YAP6AHPEAUHWND__@@PEB_W1I@ZXZ@4QBW4module_id@?A0x63058377@@B 0000000180024d00     libucrt:winapi_thunks.obj
 0002:000028f0       _mb_locale_names           00000001800258f0     libucrt:mbctype.obj
 0002:00003160       LcidToLocaleNameTable      0000000180026160     libucrt:lcidtoname_downlevel.obj
 0002:00004bc0       LocaleNameToIndexTable     0000000180027bc0     libucrt:lcidtoname_downlevel.obj
 0002:00006e60       __real_ninf                0000000180029e60     libucrt:log10.obj
 0002:00006e70       __real_inf                 0000000180029e70     libucrt:log10.obj
 0002:00006e80       __real_neg_qnan            0000000180029e80     libucrt:log10.obj
 0002:00006e90       __real_qnanbit             0000000180029e90     libucrt:log10.obj
 0002:00006ea0       __int_1023                 0000000180029ea0     libucrt:log10.obj
 0002:00006eb0       __mask_001                 0000000180029eb0     libucrt:log10.obj
 0002:00006ec0       __mask_mant                0000000180029ec0     libucrt:log10.obj
 0002:00006ed0       __mask_mant_top8           0000000180029ed0     libucrt:log10.obj
 0002:00006ee0       __mask_mant9               0000000180029ee0     libucrt:log10.obj
 0002:00006ef0       __real_log10_e             0000000180029ef0     libucrt:log10.obj
 0002:00006f00       __real_log10_e_lead        0000000180029f00     libucrt:log10.obj
 0002:00006f10       __real_log10_e_tail        0000000180029f10     libucrt:log10.obj
 0002:00006f20       __real_log10_2_lead        0000000180029f20     libucrt:log10.obj
 0002:00006f30       __real_log10_2_tail        0000000180029f30     libucrt:log10.obj
 0002:00006f40       __real_two                 0000000180029f40     libucrt:log10.obj
 0002:00006f50       __real_one                 0000000180029f50     libucrt:log10.obj
 0002:00006f60       __real_half                0000000180029f60     libucrt:log10.obj
 0002:00006f70       __mask_100                 0000000180029f70     libucrt:log10.obj
 0002:00006f80       __real_1_over_512          0000000180029f80     libucrt:log10.obj
 0002:00006f90       __real_1_over_2            0000000180029f90     libucrt:log10.obj
 0002:00006fa0       __real_1_over_3            0000000180029fa0     libucrt:log10.obj
 0002:00006fb0       __real_1_over_4            0000000180029fb0     libucrt:log10.obj
 0002:00006fc0       __real_1_over_5            0000000180029fc0     libucrt:log10.obj
 0002:00006fd0       __real_1_over_6            0000000180029fd0     libucrt:log10.obj
 0002:00006fe0       __real_neg_1023            0000000180029fe0     libucrt:log10.obj
 0002:00006ff0       __mask_2045                0000000180029ff0     libucrt:log10.obj
 0002:00007000       __real_threshold           000000018002a000     libucrt:log10.obj
 0002:00007010       __real_near_one_lt         000000018002a010     libucrt:log10.obj
 0002:00007020       __real_near_one_gt         000000018002a020     libucrt:log10.obj
 0002:00007030       __real_min_norm            000000018002a030     libucrt:log10.obj
 0002:00007040       __real_notsign             000000018002a040     libucrt:log10.obj
 0002:00007050       __real_ca1                 000000018002a050     libucrt:log10.obj
 0002:00007060       __real_ca2                 000000018002a060     libucrt:log10.obj
 0002:00007070       __real_ca3                 000000018002a070     libucrt:log10.obj
 0002:00007080       __real_ca4                 000000018002a080     libucrt:log10.obj
 0002:00007090       __mask_lower               000000018002a090     libucrt:log10.obj
 0002:000070a0       __flag_x_zero              000000018002a0a0     libucrt:log10.obj
 0002:000070a4       __flag_x_neg               000000018002a0a4     libucrt:log10.obj
 0002:000070a8       __flag_x_nan               000000018002a0a8     libucrt:log10.obj
 0002:000088f0       __real@433fffffffffffff    000000018002b8f0     libucrt:fpsr.obj
 0002:000088f8       __real@c33fffffffffffff    000000018002b8f8     libucrt:fpsr.obj
 0002:0000a848       ?kLoad_js@@3PEBDEB         000000018002d848     WebWorkerThreads.obj
 0002:0000a850       ?kThread_nextTick_js@@3PEBDEB 000000018002d850     WebWorkerThreads.obj
 0002:0000a858       ?kEvents_js@@3PEBDEB       000000018002d858     WebWorkerThreads.obj
 0002:0000a860       ?kWorker_js@@3PEBDEB       000000018002d860     WebWorkerThreads.obj
 0002:0000a868       ?kCreatePool_js@@3PEBDEB   000000018002d868     WebWorkerThreads.obj
 0002:0000ab60       ?_TlgEvent@?3??__telemetry_main_invoke_trigger@@9@4U<unnamed-type-_TlgEvent>@?3??1@YAXQEAUHINSTANCE__@@@Z@B 000000018002db60     libvcruntime:telemetry.obj
 0002:0000ab9c       ?_TlgEvent@?3??__telemetry_main_return_trigger@@9@4U<unnamed-type-_TlgEvent>@?3??1@YAXQEAUHINSTANCE__@@@Z@B 000000018002db9c     libvcruntime:telemetry.obj
 0002:0000abd7       ?_Tlg_Microsoft_CRTProviderProv_Meta@@3U<unnamed-type-_Tlg_Microsoft_CRTProviderProv_Meta>@@B 000000018002dbd7     libvcruntime:telemetry.obj
 0002:0000b0c0       $unwind$fwprintf           000000018002e0c0     libucrt:assert.obj
 0002:0000b0c0       $unwind$sprintf            000000018002e0c0     WebWorkerThreads.obj
 0002:0000b0c0       $unwind$fprintf            000000018002e0c0     WebWorkerThreads.obj
 0002:0000b0cc       $unwind$printf             000000018002e0cc     WebWorkerThreads.obj
 0002:0000b0d8       $unwind$__vcrt_freefls     000000018002e0d8     libvcruntime:per_thread_data.obj
 0002:0000b0d8       $unwind$__vcrt_initialize  000000018002e0d8     libvcruntime:initialization.obj
 0002:0000b0d8       $unwind$?state_case_size@?$output_processor@_WV?$string_output_adapter@_W@__crt_stdio_output@@V?$standard_base@_WV?$string_output_adapter@_W@__crt_stdio_output@@@2@@__crt_stdio_output@@AEAA_NXZ 000000018002e0d8     libucrt:output.obj
 0002:0000b0d8       $unwind$tolower            000000018002e0d8     libucrt:tolower_toupper.obj
 0002:0000b0d8       $unwind$_set_errno_from_matherr 000000018002e0d8     libucrt:fpexcept.obj
 0002:0000b0d8       $unwind$__acrt_initialize_heap 000000018002e0d8     libucrt:heap_handle.obj
 0002:0000b0d8       $unwind$__pctype_func      000000018002e0d8     libucrt:ctype.obj
 0002:0000b0d8       $unwind$_isatty            000000018002e0d8     libucrt:isatty.obj
 0002:0000b0d8       $unwind$?GetId@Script@v8@@QEAAHXZ 000000018002e0d8     WebWorkerThreads.obj
 0002:0000b0d8       $unwind$__acrt_uninitialize_ptd 000000018002e0d8     libucrt:per_thread_data.obj
 0002:0000b0d8       $unwind$_msize             000000018002e0d8     libucrt:msize.obj
 0002:0000b0d8       $unwind$__acrt_initialize_ptd 000000018002e0d8     libucrt:per_thread_data.obj
 0002:0000b0d8       $unwind$__vcrt_thread_attach 000000018002e0d8     libvcruntime:initialization.obj
 0002:0000b0d8       $unwind$_statfp            000000018002e0d8     libucrt:fpctrl.obj
 0002:0000b0d8       $unwind$_set_error_mode    000000018002e0d8     libucrt:set_error_mode.obj
 0002:0000b0d8       $unwind$__scrt_dllmain_crt_thread_detach 000000018002e0d8     LIBCMT:utility.obj
 0002:0000b0d8       $unwind$__scrt_dllmain_crt_thread_attach 000000018002e0d8     LIBCMT:utility.obj
 0002:0000b0d8       $unwind$__scrt_dllmain_uninitialize_critical 000000018002e0d8     LIBCMT:utility.obj
 0002:0000b0d8       $unwind$__scrt_dllmain_uninitialize_c 000000018002e0d8     LIBCMT:utility.obj
 0002:0000b0d8       $unwind$__scrt_dllmain_after_initialize_c 000000018002e0d8     LIBCMT:utility.obj
 0002:0000b0d8       $unwind$__scrt_dllmain_before_initialize_c 000000018002e0d8     LIBCMT:utility.obj
 0002:0000b0d8       $unwind$__doserrno         000000018002e0d8     libucrt:errno.obj
 0002:0000b0d8       $unwind$_get_osfhandle     000000018002e0d8     libucrt:osfinfo.obj
 0002:0000b0d8       $unwind$?state_case_size@?$output_processor@DV?$stream_output_adapter@D@__crt_stdio_output@@V?$standard_base@DV?$stream_output_adapter@D@__crt_stdio_output@@@2@@__crt_stdio_output@@AEAA_NXZ 000000018002e0d8     libucrt:output.obj
 0002:0000b0d8       $unwind$?IsDead@V8@v8@@SA_NXZ 000000018002e0d8     WebWorkerThreads.obj
 0002:0000b0d8       $unwind$__vcrt_thread_detach 000000018002e0d8     libvcruntime:initialization.obj
 0002:0000b0d8       $unwind$?state_case_size@?$output_processor@DV?$string_output_adapter@D@__crt_stdio_output@@V?$standard_base@DV?$string_output_adapter@D@__crt_stdio_output@@@2@@__crt_stdio_output@@AEAA_NXZ 000000018002e0d8     libucrt:output.obj
 0002:0000b0d8       $unwind$_strnicmp          000000018002e0d8     libucrt:strnicmp.obj
 0002:0000b0d8       $unwind$atexit             000000018002e0d8     LIBCMT:utility.obj
 0002:0000b0d8       $unwind$__acrt_DownlevelLocaleNameToLCID 000000018002e0d8     libucrt:lcidtoname_downlevel.obj
 0002:0000b0d8       $unwind$_fileno            000000018002e0d8     libucrt:fileno.obj
 0002:0000b0d8       $unwind$?initialize_multibyte@@YAHXZ 000000018002e0d8     libucrt:multibyte_initializer.obj
 0002:0000b0d8       $unwind$_errno             000000018002e0d8     libucrt:errno.obj
 0002:0000b0d8       $unwind$?dllmain_crt_dispatch@@YAHQEAUHINSTANCE__@@KQEAX@Z 000000018002e0d8     LIBCMT:dll_dllmain.obj
 0002:0000b0d8       $unwind$?state_case_size@?$output_processor@_WV?$stream_output_adapter@_W@__crt_stdio_output@@V?$standard_base@_WV?$stream_output_adapter@_W@__crt_stdio_output@@@2@@__crt_stdio_output@@AEAA_NXZ 000000018002e0d8     libucrt:output.obj
 0002:0000b0d8       $unwind$_getfpstatusword   000000018002e0d8     libucrt:_fenvutils.obj
 0002:0000b0d8       $unwind$_getfpcontrolword  000000018002e0d8     libucrt:_fenvutils.obj
 0002:0000b0d8       $unwind$__dcrt_terminate_console_output 000000018002e0d8     libucrt:initcon.obj
 0002:0000b0d8       $unwind$??$uninitialize_environment_internal@_W@@YAXAEAPEAPEA_W@Z 000000018002e0d8     libucrt:environment_initialization.obj
 0002:0000b0d8       $unwind$_get_fmode         000000018002e0d8     libucrt:setmode.obj
 0002:0000b0d8       $unwind$ferror             000000018002e0d8     libucrt:feoferr.obj
 0002:0000b0d8       $unwind$?state_case_normal_tchar@?$output_processor@DV?$string_output_adapter@D@__crt_stdio_output@@V?$standard_base@DV?$string_output_adapter@D@__crt_stdio_output@@@2@@__crt_stdio_output@@AEAA_ND@Z 000000018002e0d8     libucrt:output.obj
 0002:0000b0d8       $unwind$??$uninitialize_environment_internal@D@@YAXAEAPEAPEAD@Z 000000018002e0d8     libucrt:environment_initialization.obj
 0002:0000b0d8       $unwind$_stricmp           000000018002e0d8     libucrt:stricmp.obj
 0002:0000b0d8       $unwind$?validate_stream_is_ansi_if_required@?$__acrt_stdio_char_traits@D@@SA_NQEAU_iobuf@@@Z 000000018002e0d8     libucrt:output.obj
 0002:0000b0d8       $unwind$?IsExecutionTerminating@V8@v8@@SA_NPEAVIsolate@2@@Z 000000018002e0d8     WebWorkerThreads.obj
 0002:0000b0d8       $unwind$__vcrt_uninitialize_telemetry_provider 000000018002e0d8     libvcruntime:telemetry.obj
 0002:0000b0d8       $unwind$__acrt_release_locale_ref 000000018002e0d8     libucrt:locale_refcounting.obj
 0002:0000b0d8       $unwind$__acrt_initialize_multibyte 000000018002e0d8     libucrt:mbctype.obj
 0002:0000b0d8       $unwind$uninitialize_environment 000000018002e0d8     libucrt:initialization.obj
 0002:0000b0d8       $unwind$__acrt_thread_attach 000000018002e0d8     libucrt:initialization.obj
 0002:0000b0d8       $unwind$initialize_c       000000018002e0d8     libucrt:initialization.obj
 0002:0000b0d8       $unwind$__acrt_thread_detach 000000018002e0d8     libucrt:initialization.obj
 0002:0000b0d8       $unwind$__vcrt_uninitialize_critical 000000018002e0d8     libvcruntime:initialization.obj
 0002:0000b0d8       $unwind$__vcrt_initialize_ptd 000000018002e0d8     libvcruntime:per_thread_data.obj
 0002:0000b0d8       $unwind$__scrt_initialize_default_local_stdio_options 000000018002e0d8     LIBCMT:default_local_stdio_options.obj
 0002:0000b0d8       $unwind$_invoke_watson     000000018002e0d8     libucrt:invalid_parameter.obj
 0002:0000b0d8       $unwind$__vcrt_uninitialize_ptd 000000018002e0d8     libvcruntime:per_thread_data.obj
 0002:0000b0d8       $unwind$abort              000000018002e0d8     libucrt:abort.obj
 0002:0000b0d8       $unwind$__dcrt_uninitialize_environments_nolock 000000018002e0d8     libucrt:environment_initialization.obj
 0002:0000b0d8       $unwind$__acrt_initialize_command_line 000000018002e0d8     libucrt:argv_data.obj
 0002:0000b0d8       $unwind$__GSHandlerCheck   000000018002e0d8     LIBCMT:_gshandler_.obj
 0002:0000b0d8       $unwind$__acrt_uninitialize_critical 000000018002e0d8     libucrt:initialization.obj
 0002:0000b0d8       $unwind$__scrt_acquire_startup_lock 000000018002e0d8     LIBCMT:utility.obj
 0002:0000b0e0       $unwind$__acrt_uninitialize_locks 000000018002e0e0     libucrt:locks.obj
 0002:0000b0e0       $unwind$load_exe_hook      000000018002e0e0     win_delay_load_hook.obj
 0002:0000b0e0       $unwind$?Ref@ObjectWrap@node@@MEAAXXZ 000000018002e0e0     WebWorkerThreads.obj
 0002:0000b0e0       $unwind$??_EExternalStringResource@String@v8@@UEAAPEAXI@Z 000000018002e0e0     WebWorkerThreads.obj
 0002:0000b0e0       $unwind$__raise_securityfailure 000000018002e0e0     LIBCMT:gs_report.obj
 0002:0000b0e0       $unwind$??_Gtype_info@@UEAAPEAXI@Z 000000018002e0e0     LIBCMT:std_type_info_static.obj
 0002:0000b0e0       $unwind$?Unref@ObjectWrap@node@@MEAAXXZ 000000018002e0e0     WebWorkerThreads.obj
 0002:0000b0e0       $unwind$??_EExternalStringResourceBase@String@v8@@UEAAPEAXI@Z 000000018002e0e0     WebWorkerThreads.obj
 0002:0000b0e0       $unwind$??2@YAPEAX_K@Z     000000018002e0e0     LIBCMT:new_scalar.obj
 0002:0000b0e0       $unwind$??0exception@std@@QEAA@AEBV01@@Z 000000018002e0e0     LIBCMT:throw_bad_alloc.obj
 0002:0000b0e0       $unwind$??0bad_alloc@std@@QEAA@AEBV01@@Z 000000018002e0e0     LIBCMT:throw_bad_alloc.obj
 0002:0000b0e0       $unwind$??0bad_array_new_length@std@@QEAA@AEBV01@@Z 000000018002e0e0     LIBCMT:throw_bad_alloc.obj
 0002:0000b0e0       $unwind$??_EExternalOneByteStringResource@String@v8@@UEAAPEAXI@Z 000000018002e0e0     WebWorkerThreads.obj
 0002:0000b0e0       $unwind$?exit_or_terminate_process@@YAXI@Z 000000018002e0e0     libucrt:exit.obj
 0002:0000b0e0       $unwind$__acrt_stdio_free_buffer_nolock 000000018002e0e0     libucrt:_freebuf.obj
 0002:0000b0e0       $unwind$__acrt_stdio_allocate_buffer_nolock 000000018002e0e0     libucrt:_getbuf.obj
 0002:0000b0e0       $unwind$?VisitHandlesWithClassIds@V8@v8@@SAXPEAVPersistentHandleVisitor@2@@Z 000000018002e0e0     WebWorkerThreads.obj
 0002:0000b0e0       $unwind$?VisitExternalResources@V8@v8@@SAXPEAVExternalResourceVisitor@2@@Z 000000018002e0e0     WebWorkerThreads.obj
 0002:0000b0e0       $unwind$?DloadReleaseSectionWriteAccess@@YAXXZ 000000018002e0e0     DelayImp:delayhlp.obj
 0002:0000b0e0       $unwind$?RemoveMemoryAllocationCallback@V8@v8@@SAXP6AXW4ObjectSpace@2@W4AllocationAction@2@H@Z@Z 000000018002e0e0     WebWorkerThreads.obj
 0002:0000b0e0       $unwind$__acrt_can_show_message_box 000000018002e0e0     libucrt:winapi_thunks.obj
 0002:0000b0e0       $unwind$strcpy_s           000000018002e0e0     libucrt:strcpy_s.obj
 0002:0000b0e0       $unwind$initialize_pointers 000000018002e0e0     libucrt:initialization.obj
 0002:0000b0e0       $unwind$?RemoveGCEpilogueCallback@V8@v8@@SAXP6AXW4GCType@2@W4GCCallbackFlags@2@@Z@Z 000000018002e0e0     WebWorkerThreads.obj
 0002:0000b0e0       $unwind$uninitialize_allocated_memory 000000018002e0e0     libucrt:initialization.obj
 0002:0000b0e0       $unwind$__acrt_initialize_locks 000000018002e0e0     libucrt:locks.obj
 0002:0000b0e0       $unwind$_purecall          000000018002e0e0     libvcruntime:purevirt.obj
 0002:0000b0e0       $unwind$_fflush_nolock     000000018002e0e0     libucrt:fflush.obj
 0002:0000b0e0       $unwind$??0?$output_processor@DV?$stream_output_adapter@D@__crt_stdio_output@@V?$standard_base@DV?$stream_output_adapter@D@__crt_stdio_output@@@2@@__crt_stdio_output@@QEAA@AEBV?$stream_output_adapter@D@1@_KQEBDQEAU__crt_locale_pointers@@QEAD@Z 000000018002e0e0     libucrt:output.obj
 0002:0000b0e0       $unwind$?RemoveGCPrologueCallback@V8@v8@@SAXP6AXW4GCType@2@W4GCCallbackFlags@2@@Z@Z 000000018002e0e0     WebWorkerThreads.obj
 0002:0000b0e0       $unwind$?SetFatalErrorHandler@V8@v8@@SAXP6AXPEBD0@Z@Z 000000018002e0e0     WebWorkerThreads.obj
 0002:0000b0e0       $unwind$?SetFailedAccessCheckCallbackFunction@V8@v8@@SAXP6AXV?$Local@VObject@v8@@@2@W4AccessType@2@V?$Local@VValue@v8@@@2@@Z@Z 000000018002e0e0     WebWorkerThreads.obj
 0002:0000b0e0       $unwind$__acrt_AreFileApisANSI 000000018002e0e0     libucrt:winapi_thunks.obj
 0002:0000b0e0       $unwind$?RemoveMessageListeners@V8@v8@@SAXP6AXV?$Local@VMessage@v8@@@2@V?$Local@VValue@v8@@@2@@Z@Z 000000018002e0e0     WebWorkerThreads.obj
 0002:0000b0e0       $unwind$?state_case_normal@?$output_processor@DV?$stream_output_adapter@D@__crt_stdio_output@@V?$standard_base@DV?$stream_output_adapter@D@__crt_stdio_output@@@2@@__crt_stdio_output@@AEAA_NXZ 000000018002e0e0     libucrt:output.obj
 0002:0000b0e0       $unwind$??$message_box_wait_thread@_W@@YAKQEAX@Z 000000018002e0e0     libucrt:crtmbox.obj
 0002:0000b0e0       $unwind$__acrt_uninitialize_winapi_thunks 000000018002e0e0     libucrt:winapi_thunks.obj
 0002:0000b0e0       $unwind$_onexit            000000018002e0e0     LIBCMT:utility.obj
 0002:0000b0e0       $unwind$?state_case_normal_tchar@?$output_processor@DV?$stream_output_adapter@D@__crt_stdio_output@@V?$standard_base@DV?$stream_output_adapter@D@__crt_stdio_output@@@2@@__crt_stdio_output@@AEAA_ND@Z 000000018002e0e0     libucrt:output.obj
 0002:0000b0e0       $unwind$__scrt_release_startup_lock 000000018002e0e0     LIBCMT:utility.obj
 0002:0000b0e0       $unwind$_fputchar          000000018002e0e0     libucrt:fputc.obj
 0002:0000b0e0       $unwind$?SetAllowCodeGenerationFromStringsCallback@V8@v8@@SAXP6A_NV?$Local@VContext@v8@@@2@@Z@Z 000000018002e0e0     WebWorkerThreads.obj
 0002:0000b0e0       $unwind$__scrt_initialize_crt 000000018002e0e0     LIBCMT:utility.obj
 0002:0000b0e0       $unwind$?GetEmbedderData@Context@v8@@QEAA?AV?$Local@VValue@v8@@@2@H@Z 000000018002e0e0     WebWorkerThreads.obj
 0002:0000b0e0       $unwind$__scrt_uninitialize_crt 000000018002e0e0     LIBCMT:utility.obj
 0002:0000b0e0       $unwind$wcscat_s           000000018002e0e0     libucrt:wcscat_s.obj
 0002:0000b0e0       $unwind$wcscpy_s           000000018002e0e0     libucrt:wcscpy_s.obj
 0002:0000b0e0       $unwind$??_EPersistentHandleVisitor@v8@@UEAAPEAXI@Z 000000018002e0e0     WebWorkerThreads.obj
 0002:0000b0e0       $unwind$fegetenv           000000018002e0e0     libucrt:fegetenv.obj
 0002:0000b0e0       $unwind$_malloc_base       000000018002e0e0     libucrt:malloc_base.obj
 0002:0000b0e0       $unwind$feholdexcept       000000018002e0e0     libucrt:feholdexcept.obj
 0002:0000b0e0       $unwind$?GetInternalField@Object@v8@@QEAA?AV?$Local@VValue@v8@@@2@H@Z 000000018002e0e0     WebWorkerThreads.obj
 0002:0000b0e0       $unwind$fesetenv           000000018002e0e0     libucrt:fesetenv.obj
 0002:0000b0e0       $unwind$??0Locker@v8@@QEAA@PEAVIsolate@1@@Z 000000018002e0e0     WebWorkerThreads.obj
 0002:0000b0e0       $unwind$_set_statfp        000000018002e0e0     libucrt:fpctrl.obj
 0002:0000b0e0       $unwind$??0Unlocker@v8@@QEAA@PEAVIsolate@1@@Z 000000018002e0e0     WebWorkerThreads.obj
 0002:0000b0e0       $unwind$__acrt_freeptd     000000018002e0e0     libucrt:per_thread_data.obj
 0002:0000b0e0       $unwind$??0Scope@Isolate@v8@@QEAA@PEAV12@@Z 000000018002e0e0     WebWorkerThreads.obj
 0002:0000b0e0       $unwind$??_EAllocator@ArrayBuffer@v8@@UEAAPEAXI@Z 000000018002e0e0     WebWorkerThreads.obj
 0002:0000b0e0       $unwind$__acrt_uninitialize_stdio 000000018002e0e0     libucrt:_file.obj
 0002:0000b0e0       $unwind$__std_exception_destroy 000000018002e0e0     libvcruntime:std_exception.obj
 0002:0000b0e0       $unwind$?type_case_integer@?$output_processor@_WV?$string_output_adapter@_W@__crt_stdio_output@@V?$standard_base@_WV?$string_output_adapter@_W@__crt_stdio_output@@@2@@__crt_stdio_output@@AEAA_NI_N@Z 000000018002e0e0     libucrt:output.obj
 0002:0000b0e0       $unwind$?type_case_integer@?$output_processor@DV?$stream_output_adapter@D@__crt_stdio_output@@V?$standard_base@DV?$stream_output_adapter@D@__crt_stdio_output@@@2@@__crt_stdio_output@@AEAA_NI_N@Z 000000018002e0e0     libucrt:output.obj
 0002:0000b0e0       $unwind$__std_type_info_destroy_list 000000018002e0e0     libvcruntime:std_type_info.obj
 0002:0000b0e0       $unwind$??_EExternalResourceVisitor@v8@@UEAAPEAXI@Z 000000018002e0e0     WebWorkerThreads.obj
 0002:0000b0e0       $unwind$??0?$output_processor@_WV?$string_output_adapter@_W@__crt_stdio_output@@V?$standard_base@_WV?$string_output_adapter@_W@__crt_stdio_output@@@2@@__crt_stdio_output@@QEAA@AEBV?$string_output_adapter@_W@1@_KQEB_WQEAU__crt_locale_pointers@@QEAD@Z 000000018002e0e0     libucrt:output.obj
 0002:0000b0e0       $unwind$??_EExternalSourceStream@ScriptCompiler@v8@@UEAAPEAXI@Z 000000018002e0e0     WebWorkerThreads.obj
 0002:0000b0e0       $unwind$_setfpstatusword   000000018002e0e0     libucrt:_fenvutils.obj
 0002:0000b0e0       $unwind$??_GArrayBufferAllocator@@UEAAPEAXI@Z 000000018002e0e0     WebWorkerThreads.obj
 0002:0000b0e0       $unwind$?type_case_integer@?$output_processor@DV?$string_output_adapter@D@__crt_stdio_output@@V?$standard_base@DV?$string_output_adapter@D@__crt_stdio_output@@@2@@__crt_stdio_output@@AEAA_NI_N@Z 000000018002e0e0     libucrt:output.obj
 0002:0000b0e0       $unwind$??0?$output_processor@_WV?$stream_output_adapter@_W@__crt_stdio_output@@V?$standard_base@_WV?$stream_output_adapter@_W@__crt_stdio_output@@@2@@__crt_stdio_output@@QEAA@AEBV?$stream_output_adapter@_W@1@_KQEB_WQEAU__crt_locale_pointers@@QEAD@Z 000000018002e0e0     libucrt:output.obj
 0002:0000b0e0       $unwind$__vcrt_uninitialize 000000018002e0e0     libvcruntime:initialization.obj
 0002:0000b0e0       $unwind$??_EExternalOneByteStringResourceImpl@v8@@UEAAPEAXI@Z 000000018002e0e0     WebWorkerThreads.obj
 0002:0000b0e0       $unwind$_calloc_base       000000018002e0e0     libucrt:calloc_base.obj
 0002:0000b0e0       $unwind$__vcrt_initialize_locks 000000018002e0e0     libvcruntime:locks.obj
 0002:0000b0e0       $unwind$__acrt_update_locale_info 000000018002e0e0     libucrt:locale_update.obj
 0002:0000b0e0       $unwind$__vcrt_uninitialize_locks 000000018002e0e0     libvcruntime:locks.obj
 0002:0000b0e0       $unwind$__vcrt_freeptd     000000018002e0e0     libvcruntime:per_thread_data.obj
 0002:0000b0e0       $unwind$__acrt_update_multibyte_info 000000018002e0e0     libucrt:locale_update.obj
 0002:0000b0e0       $unwind$?state_case_normal@?$output_processor@DV?$string_output_adapter@D@__crt_stdio_output@@V?$standard_base@DV?$string_output_adapter@D@__crt_stdio_output@@@2@@__crt_stdio_output@@AEAA_NXZ 000000018002e0e0     libucrt:output.obj
 0002:0000b0e0       $unwind$_clearfp           000000018002e0e0     libucrt:ieee.obj
 0002:0000b0e0       $unwind$__acrt_fp_strflt_to_string 000000018002e0e0     libucrt:_fptostr.obj
 0002:0000b0e0       $unwind$??_EExtension@v8@@UEAAPEAXI@Z 000000018002e0e0     WebWorkerThreads.obj
 0002:0000b0e0       $unwind$??0?$output_processor@DV?$string_output_adapter@D@__crt_stdio_output@@V?$standard_base@DV?$string_output_adapter@D@__crt_stdio_output@@@2@@__crt_stdio_output@@QEAA@AEBV?$string_output_adapter@D@1@_KQEBDQEAU__crt_locale_pointers@@QEAD@Z 000000018002e0e0     libucrt:output.obj
 0002:0000b0e0       $unwind$?type_case_integer@?$output_processor@_WV?$stream_output_adapter@_W@__crt_stdio_output@@V?$standard_base@_WV?$stream_output_adapter@_W@__crt_stdio_output@@@2@@__crt_stdio_output@@AEAA_NI_N@Z 000000018002e0e0     libucrt:output.obj
 0002:0000b0e0       $unwind$_clrfp             000000018002e0e0     libucrt:fpctrl.obj
 0002:0000b0e8       $chain$0$??_EExternalSourceStream@ScriptCompiler@v8@@UEAAPEAXI@Z 000000018002e0e8     WebWorkerThreads.obj
 0002:0000b0fc       $chain$1$??_EExternalSourceStream@ScriptCompiler@v8@@UEAAPEAXI@Z 000000018002e0fc     WebWorkerThreads.obj
 0002:0000b10c       $unwind$?NewInstance@Function@v8@@QEBA?AV?$MaybeLocal@VObject@v8@@@2@V?$Local@VContext@v8@@@2@@Z 000000018002e10c     WebWorkerThreads.obj
 0002:0000b10c       $unwind$strtol             000000018002e10c     libucrt:strtox.obj
 0002:0000b10c       $unwind$wcstol             000000018002e10c     libucrt:strtox.obj
 0002:0000b10c       $unwind$??$common_xtox_s@K_W@@YAHKQEA_W_KI_N@Z 000000018002e10c     libucrt:xtoa.obj
 0002:0000b114       $unwind$?SetIndexedPropertyHandler@ObjectTemplate@v8@@QEAAXP6AXIAEBV?$PropertyCallbackInfo@VValue@v8@@@2@@ZP6AXIV?$Local@VValue@v8@@@2@0@ZP6AXIAEBV?$PropertyCallbackInfo@VInteger@v8@@@2@@ZP6AXIAEBV?$PropertyCallbackInfo@VBoolean@v8@@@2@@ZP6AXAEBV?$PropertyCallbackInfo@VArray@v8@@@2@@Z2@Z 000000018002e114     WebWorkerThreads.obj
 0002:0000b11c       $unwind$?Set@Template@v8@@QEAAXPEAVIsolate@2@PEBDV?$Local@VData@v8@@@2@@Z 000000018002e11c     WebWorkerThreads.obj
 0002:0000b128       $unwind$_realloc_base      000000018002e128     libucrt:realloc_base.obj
 0002:0000b128       $unwind$strncpy_s          000000018002e128     libucrt:strncpy_s.obj
 0002:0000b128       $unwind$?Allocate@ArrayBufferAllocator@@UEAAPEAX_K@Z 000000018002e128     WebWorkerThreads.obj
 0002:0000b128       $unwind$?DloadAcquireSectionWriteAccess@@YAXXZ 000000018002e128     DelayImp:delayhlp.obj
 0002:0000b128       $unwind$__acrt_get_parent_window 000000018002e128     libucrt:winapi_thunks.obj
 0002:0000b128       $unwind$??_Gbad_array_new_length@std@@UEAAPEAXI@Z 000000018002e128     LIBCMT:throw_bad_alloc.obj
 0002:0000b128       $unwind$__acrt_errno_map_os_error 000000018002e128     libucrt:errno.obj
 0002:0000b128       $unwind$_callnewh          000000018002e128     libucrt:new_handler.obj
 0002:0000b128       $unwind$__vcrt_FlsGetValue 000000018002e128     libvcruntime:winapi_downlevel.obj
 0002:0000b128       $unwind$?replace_current_thread_locale_nolock@@YAXQEAU__acrt_ptd@@QEAU__crt_locale_data@@@Z 000000018002e128     libucrt:per_thread_data.obj
 0002:0000b128       $unwind$__vcrt_FlsFree     000000018002e128     libvcruntime:winapi_downlevel.obj
 0002:0000b128       $unwind$_updatetlocinfoEx_nolock 000000018002e128     libucrt:locale_refcounting.obj
 0002:0000b128       $unwind$__vcrt_FlsAlloc    000000018002e128     libvcruntime:winapi_downlevel.obj
 0002:0000b128       $unwind$?DloadGetSRWLockFunctionPointers@@YAEXZ 000000018002e128     DelayImp:delayhlp.obj
 0002:0000b128       $unwind$__acrt_stdio_begin_temporary_buffering_nolock 000000018002e128     libucrt:_sftbuf.obj
 0002:0000b128       $unwind$__vcrt_EventUnregister 000000018002e128     libvcruntime:winapi_downlevel.obj
 0002:0000b128       $unwind$__acrt_invoke_user_matherr 000000018002e128     libucrt:matherr.obj
 0002:0000b128       $unwind$??_Gexception@std@@UEAAPEAXI@Z 000000018002e128     LIBCMT:throw_bad_alloc.obj
 0002:0000b128       $unwind$?AdjustAmountOfExternalAllocatedMemory@Isolate@v8@@QEAA_J_J@Z 000000018002e128     WebWorkerThreads.obj
 0002:0000b128       $unwind$_close_nolock      000000018002e128     libucrt:close.obj
 0002:0000b128       $unwind$__acrt_FlsGetValue 000000018002e128     libucrt:winapi_thunks.obj
 0002:0000b128       $unwind$??0_LocaleUpdate@@QEAA@QEAU__crt_locale_pointers@@@Z 000000018002e128     libucrt:output.obj
 0002:0000b128       $unwind$?ToInt32@Value@v8@@QEBA?AV?$Local@VInt32@v8@@@2@XZ 000000018002e128     WebWorkerThreads.obj
 0002:0000b128       $unwind$??_Gbad_alloc@std@@UEAAPEAXI@Z 000000018002e128     LIBCMT:throw_bad_alloc.obj
 0002:0000b128       $unwind$??_GObjectWrap@node@@UEAAPEAXI@Z 000000018002e128     WebWorkerThreads.obj
 0002:0000b128       $unwind$??_GBSON@@UEAAPEAXI@Z 000000018002e128     WebWorkerThreads.obj
 0002:0000b128       $unwind$?ToUint32@Value@v8@@QEBA?AV?$Local@VUint32@v8@@@2@XZ 000000018002e128     WebWorkerThreads.obj
 0002:0000b128       $unwind$__acrt_uninitialize_lowio 000000018002e128     libucrt:ioinit.obj
 0002:0000b128       $unwind$__acrt_FlsFree     000000018002e128     libucrt:winapi_thunks.obj
 0002:0000b128       $unwind$?ToInteger@Value@v8@@QEBA?AV?$Local@VInteger@v8@@@2@XZ 000000018002e128     WebWorkerThreads.obj
 0002:0000b128       $unwind$wcsncat_s          000000018002e128     libucrt:wcsncat_s.obj
 0002:0000b128       $unwind$??$common_initialize_environment_nolock@D@@YAHXZ 000000018002e128     libucrt:environment_initialization.obj
 0002:0000b128       $unwind$?ToDetailString@Value@v8@@QEBA?AV?$Local@VString@v8@@@2@XZ 000000018002e128     WebWorkerThreads.obj
 0002:0000b128       $unwind$_fclose_nolock     000000018002e128     libucrt:fclose.obj
 0002:0000b128       $unwind$?ToString@Value@v8@@QEBA?AV?$Local@VString@v8@@@2@XZ 000000018002e128     WebWorkerThreads.obj
 0002:0000b128       $unwind$?type_case_c_tchar@?$output_processor@DV?$stream_output_adapter@D@__crt_stdio_output@@V?$standard_base@DV?$stream_output_adapter@D@__crt_stdio_output@@@2@@__crt_stdio_output@@AEAA_ND@Z 000000018002e128     libucrt:output.obj
 0002:0000b128       $unwind$?ToNumber@Value@v8@@QEBA?AV?$Local@VNumber@v8@@@2@XZ 000000018002e128     WebWorkerThreads.obj
 0002:0000b128       $unwind$?try_cor_exit_process@@YAXI@Z 000000018002e128     libucrt:exit.obj
 0002:0000b128       $unwind$?ToBoolean@Value@v8@@QEBA?AV?$Local@VBoolean@v8@@@2@XZ 000000018002e128     WebWorkerThreads.obj
 0002:0000b128       $unwind$?type_case_c_tchar@?$output_processor@DV?$string_output_adapter@D@__crt_stdio_output@@V?$standard_base@DV?$string_output_adapter@D@__crt_stdio_output@@@2@@__crt_stdio_output@@AEAA_ND@Z 000000018002e128     libucrt:output.obj
 0002:0000b128       $unwind$?force_decimal_point@__crt_stdio_output@@YAXPEADQEAU__crt_locale_pointers@@@Z 000000018002e128     libucrt:output.obj
 0002:0000b128       $unwind$??$common_xtox@K_W@@YAHKQEA_W_KI_N@Z 000000018002e128     libucrt:xtoa.obj
 0002:0000b128       $unwind$__acrt_FlsAlloc    000000018002e128     libucrt:winapi_thunks.obj
 0002:0000b128       $unwind$?internal_isupper_l@@YA_NHQEAU__crt_locale_pointers@@@Z 000000018002e128     libucrt:tolower_toupper.obj
 0002:0000b128       $unwind$__acrt_getptd      000000018002e128     libucrt:per_thread_data.obj
 0002:0000b128       $unwind$?ToObject@Value@v8@@QEBA?AV?$Local@VObject@v8@@@2@XZ 000000018002e128     WebWorkerThreads.obj
 0002:0000b134       $unwind$__acrt_locale_free_lc_time_if_unreferenced 000000018002e134     libucrt:locale_refcounting.obj
 0002:0000b134       $unwind$_free_base         000000018002e134     libucrt:free_base.obj
 0002:0000b134       $unwind$__acrt_locale_free_numeric 000000018002e134     libucrt:initnum.obj
 0002:0000b134       $unwind$?AddMessageListener@V8@v8@@SA_NP6AXV?$Local@VMessage@v8@@@2@V?$Local@VValue@v8@@@2@@Z1@Z 000000018002e134     WebWorkerThreads.obj
 0002:0000b134       $unwind$?destroy_fls@@YAXPEAX@Z 000000018002e134     libucrt:per_thread_data.obj
 0002:0000b13c       $unwind$??$common_lseek_nolock@_J@@YA_JH_JH@Z 000000018002e13c     libucrt:lseek.obj
 0002:0000b13c       $unwind$__acrt_stdio_flush_and_write_narrow_nolock 000000018002e13c     libucrt:_flsbuf.obj
 0002:0000b13c       $unwind$?type_case_n@?$output_processor@_WV?$string_output_adapter@_W@__crt_stdio_output@@V?$standard_base@_WV?$string_output_adapter@_W@__crt_stdio_output@@@2@@__crt_stdio_output@@AEAA_NXZ 000000018002e13c     libucrt:output.obj
 0002:0000b13c       $unwind$??$common_lseek_nolock@J@@YAJHJH@Z 000000018002e13c     libucrt:lseek.obj
 0002:0000b13c       $unwind$__vcrt_getptd_noexit 000000018002e13c     libvcruntime:per_thread_data.obj
 0002:0000b13c       $unwind$__acrt_stdio_flush_and_write_wide_nolock 000000018002e13c     libucrt:_flsbuf.obj
 0002:0000b13c       $unwind$?type_case_s@?$output_processor@_WV?$stream_output_adapter@_W@__crt_stdio_output@@V?$standard_base@_WV?$stream_output_adapter@_W@__crt_stdio_output@@@2@@__crt_stdio_output@@AEAA_NXZ 000000018002e13c     libucrt:output.obj
 0002:0000b13c       $unwind$?type_case_s@?$output_processor@_WV?$string_output_adapter@_W@__crt_stdio_output@@V?$standard_base@_WV?$string_output_adapter@_W@__crt_stdio_output@@@2@@__crt_stdio_output@@AEAA_NXZ 000000018002e13c     libucrt:output.obj
 0002:0000b13c       $unwind$_RTC_Terminate     000000018002e13c     LIBCMT:_initsect_.obj
 0002:0000b13c       $unwind$?type_case_n@?$output_processor@DV?$stream_output_adapter@D@__crt_stdio_output@@V?$standard_base@DV?$stream_output_adapter@D@__crt_stdio_output@@@2@@__crt_stdio_output@@AEAA_NXZ 000000018002e13c     libucrt:output.obj
 0002:0000b13c       $unwind$__acrt_getptd_noexit 000000018002e13c     libucrt:per_thread_data.obj
 0002:0000b13c       $unwind$?free_crt_array_internal@@YAXQEAPEBX_K@Z 000000018002e13c     libucrt:inittime.obj
 0002:0000b13c       $unwind$?type_case_n@?$output_processor@DV?$string_output_adapter@D@__crt_stdio_output@@V?$standard_base@DV?$string_output_adapter@D@__crt_stdio_output@@@2@@__crt_stdio_output@@AEAA_NXZ 000000018002e13c     libucrt:output.obj
 0002:0000b13c       $unwind$?queue_pull@@YAPEAUtypeQueueItem@@PEAUtypeQueue@@@Z 000000018002e13c     WebWorkerThreads.obj
 0002:0000b13c       $unwind$??R<lambda_9a20e10065b92b5193c3597a66cba9d4>@@QEBAHXZ 000000018002e13c     libucrt:fputs.obj
 0002:0000b13c       $unwind$?type_case_s@?$output_processor@DV?$string_output_adapter@D@__crt_stdio_output@@V?$standard_base@DV?$string_output_adapter@D@__crt_stdio_output@@@2@@__crt_stdio_output@@AEAA_NXZ 000000018002e13c     libucrt:output.obj
 0002:0000b13c       $unwind$?type_case_Z@?$output_processor@DV?$string_output_adapter@D@__crt_stdio_output@@V?$standard_base@DV?$string_output_adapter@D@__crt_stdio_output@@@2@@__crt_stdio_output@@AEAA_NXZ 000000018002e13c     libucrt:output.obj
 0002:0000b13c       $unwind$_DllMainCRTStartup 000000018002e13c     LIBCMT:dll_dllmain.obj
 0002:0000b13c       $unwind$__acrt_FlsSetValue 000000018002e13c     libucrt:winapi_thunks.obj
 0002:0000b13c       $unwind$_initterm_e        000000018002e13c     libucrt:initterm.obj
 0002:0000b13c       $unwind$memcpy_s           000000018002e13c     libucrt:cfout.obj
 0002:0000b13c       $unwind$?type_case_Z@?$output_processor@_WV?$string_output_adapter@_W@__crt_stdio_output@@V?$standard_base@_WV?$string_output_adapter@_W@__crt_stdio_output@@@2@@__crt_stdio_output@@AEAA_NXZ 000000018002e13c     libucrt:output.obj
 0002:0000b13c       $unwind$??R<lambda_ad1ced32f4ac17aa236e5ef05d6b3b7c>@@QEBAXXZ 000000018002e13c     libucrt:mbctype.obj
 0002:0000b13c       $unwind$_RTC_Initialize    000000018002e13c     LIBCMT:_initsect_.obj
 0002:0000b13c       $unwind$__vcrt_FlsSetValue 000000018002e13c     libvcruntime:winapi_downlevel.obj
 0002:0000b13c       $unwind$?nuJobQueueItem@@YAPEAUtypeQueueItem@@XZ 000000018002e13c     WebWorkerThreads.obj
 0002:0000b13c       $unwind$?type_case_Z@?$output_processor@DV?$stream_output_adapter@D@__crt_stdio_output@@V?$standard_base@DV?$stream_output_adapter@D@__crt_stdio_output@@@2@@__crt_stdio_output@@AEAA_NXZ 000000018002e13c     libucrt:output.obj
 0002:0000b13c       $unwind$__acrt_execute_uninitializers 000000018002e13c     libucrt:shared_initialization.obj
 0002:0000b13c       $unwind$?type_case_n@?$output_processor@_WV?$stream_output_adapter@_W@__crt_stdio_output@@V?$standard_base@_WV?$stream_output_adapter@_W@__crt_stdio_output@@@2@@__crt_stdio_output@@AEAA_NXZ 000000018002e13c     libucrt:output.obj
 0002:0000b13c       $unwind$?SetCaptureStackTraceForUncaughtExceptions@V8@v8@@SAX_NHW4StackTraceOptions@StackTrace@2@@Z 000000018002e13c     WebWorkerThreads.obj
 0002:0000b13c       $unwind$?type_case_Z@?$output_processor@_WV?$stream_output_adapter@_W@__crt_stdio_output@@V?$standard_base@_WV?$stream_output_adapter@_W@__crt_stdio_output@@@2@@__crt_stdio_output@@AEAA_NXZ 000000018002e13c     libucrt:output.obj
 0002:0000b13c       $unwind$?AddMemoryAllocationCallback@V8@v8@@SAXP6AXW4ObjectSpace@2@W4AllocationAction@2@H@Z01@Z 000000018002e13c     WebWorkerThreads.obj
 0002:0000b13c       $unwind$?TraceLoggingRegister@__vcrt_trace_logging_provider@@YAJPEBU_TlgProvider_t@1@PEBU_GUID@@P6AX1KE_K2PEAU_EVENT_FILTER_DESCRIPTOR@@PEAX@Z4@Z 000000018002e13c     libvcruntime:telemetry.obj
 0002:0000b13c       $unwind$__acrt_LocaleNameToLCID 000000018002e13c     libucrt:winapi_thunks.obj
 0002:0000b13c       $unwind$__acrt_stdio_flush_nolock 000000018002e13c     libucrt:fflush.obj
 0002:0000b13c       $unwind$_exception_enabled 000000018002e13c     libucrt:libm_error.obj
 0002:0000b13c       $unwind$?type_case_s@?$output_processor@DV?$stream_output_adapter@D@__crt_stdio_output@@V?$standard_base@DV?$stream_output_adapter@D@__crt_stdio_output@@@2@@__crt_stdio_output@@AEAA_NXZ 000000018002e13c     libucrt:output.obj
 0002:0000b14c       $chain$0$??_EExternalStringResource@String@v8@@UEAAPEAXI@Z 000000018002e14c     WebWorkerThreads.obj
 0002:0000b14c       $chain$0$??_EExternalOneByteStringResource@String@v8@@UEAAPEAXI@Z 000000018002e14c     WebWorkerThreads.obj
 0002:0000b14c       $chain$0$??_EExternalStringResourceBase@String@v8@@UEAAPEAXI@Z 000000018002e14c     WebWorkerThreads.obj
 0002:0000b160       $chain$1$??_EExternalStringResource@String@v8@@UEAAPEAXI@Z 000000018002e160     WebWorkerThreads.obj
 0002:0000b160       $chain$1$??_EExternalOneByteStringResource@String@v8@@UEAAPEAXI@Z 000000018002e160     WebWorkerThreads.obj
 0002:0000b160       $chain$1$??_EExternalStringResourceBase@String@v8@@UEAAPEAXI@Z 000000018002e160     WebWorkerThreads.obj
 0002:0000b170       $chain$0$??_EAllocator@ArrayBuffer@v8@@UEAAPEAXI@Z 000000018002e170     WebWorkerThreads.obj
 0002:0000b184       $chain$1$??_EAllocator@ArrayBuffer@v8@@UEAAPEAXI@Z 000000018002e184     WebWorkerThreads.obj
 0002:0000b194       $chain$0$??_EExternalOneByteStringResourceImpl@v8@@UEAAPEAXI@Z 000000018002e194     WebWorkerThreads.obj
 0002:0000b1a8       $chain$1$??_EExternalOneByteStringResourceImpl@v8@@UEAAPEAXI@Z 000000018002e1a8     WebWorkerThreads.obj
 0002:0000b1b8       $chain$0$??_EExtension@v8@@UEAAPEAXI@Z 000000018002e1b8     WebWorkerThreads.obj
 0002:0000b1cc       $chain$1$??_EExtension@v8@@UEAAPEAXI@Z 000000018002e1cc     WebWorkerThreads.obj
 0002:0000b1dc       $chain$0$??_EPersistentHandleVisitor@v8@@UEAAPEAXI@Z 000000018002e1dc     WebWorkerThreads.obj
 0002:0000b1dc       $chain$0$??_EExternalResourceVisitor@v8@@UEAAPEAXI@Z 000000018002e1dc     WebWorkerThreads.obj
 0002:0000b1f0       $chain$1$??_EPersistentHandleVisitor@v8@@UEAAPEAXI@Z 000000018002e1f0     WebWorkerThreads.obj
 0002:0000b1f0       $chain$1$??_EExternalResourceVisitor@v8@@UEAAPEAXI@Z 000000018002e1f0     WebWorkerThreads.obj
 0002:0000b200       $unwind$_stricmp_l         000000018002e200     libucrt:stricmp.obj
 0002:0000b200       $unwind$?WeakCallback@ObjectWrap@node@@CAXAEBV?$WeakCallbackData@VObject@v8@@VObjectWrap@node@@@v8@@@Z 000000018002e200     WebWorkerThreads.obj
 0002:0000b210       $unwind$?FunctionCallbackWrapper@imp@Nan@@YAXAEBV?$FunctionCallbackInfo@VValue@v8@@@v8@@@Z 000000018002e210     WebWorkerThreads.obj
 0002:0000b220       $unwind$?New@?$Factory@VFunctionTemplate@v8@@@imp@Nan@@SA?AV?$Local@VFunctionTemplate@v8@@@v8@@P6AXAEBV?$FunctionCallbackInfo@VValue@v8@@@3@@ZV?$Local@VValue@v8@@@5@V?$Local@VSignature@v8@@@5@@Z 000000018002e220     WebWorkerThreads.obj
 0002:0000b22c       $chain$0$?New@?$Factory@VFunctionTemplate@v8@@@imp@Nan@@SA?AV?$Local@VFunctionTemplate@v8@@@v8@@P6AXAEBV?$FunctionCallbackInfo@VValue@v8@@@3@@ZV?$Local@VValue@v8@@@5@V?$Local@VSignature@v8@@@5@@Z 000000018002e22c     WebWorkerThreads.obj
 0002:0000b240       $chain$1$?New@?$Factory@VFunctionTemplate@v8@@@imp@Nan@@SA?AV?$Local@VFunctionTemplate@v8@@@v8@@P6AXAEBV?$FunctionCallbackInfo@VValue@v8@@@3@@ZV?$Local@VValue@v8@@@5@V?$Local@VSignature@v8@@@5@@Z 000000018002e240     WebWorkerThreads.obj
 0002:0000b250       $unwind$?nuItem@@YAPEAUtypeQueueItem@@HPEAX@Z 000000018002e250     WebWorkerThreads.obj
 0002:0000b268       $unwind$??$New@VInt32@v8@@H@Nan@@YA?AV?$Local@VInt32@v8@@@v8@@H@Z 000000018002e268     WebWorkerThreads.obj
 0002:0000b268       $unwind$__acrt_is_packaged_app 000000018002e268     libucrt:winapi_thunks.obj
 0002:0000b268       $unwind$iswctype           000000018002e268     libucrt:iswctype.obj
 0002:0000b268       $unwind$??$New@VUint32@v8@@I@Nan@@YA?AV?$Local@VUint32@v8@@@v8@@I@Z 000000018002e268     WebWorkerThreads.obj
 0002:0000b268       $unwind$??$New@VInteger@v8@@H@Nan@@YA?AV?$Local@VInteger@v8@@@v8@@H@Z 000000018002e268     WebWorkerThreads.obj
 0002:0000b268       $unwind$?destroyItem@@YAXPEAUtypeQueueItem@@@Z 000000018002e268     WebWorkerThreads.obj
 0002:0000b274       $chain$0$?destroyItem@@YAXPEAUtypeQueueItem@@@Z 000000018002e274     WebWorkerThreads.obj
 0002:0000b288       $chain$1$?destroyItem@@YAXPEAUtypeQueueItem@@@Z 000000018002e288     WebWorkerThreads.obj
 0002:0000b298       $unwind$?WriteObjectId@DataStream@@QEAAXAEBV?$Local@VObject@v8@@@v8@@AEBV?$Local@VString@v8@@@3@@Z 000000018002e298     WebWorkerThreads.obj
 0002:0000b2ac       $unwind$?ThrowAllocatedStringException@@YAX_KPEBDZZ 000000018002e2ac     WebWorkerThreads.obj
 0002:0000b2b8       $unwind$?CheckKey@DataStream@@QEAAXAEBV?$Local@VString@v8@@@v8@@@Z 000000018002e2b8     WebWorkerThreads.obj
 0002:0000b2d8       $unwind$?ReadCString@BSONDeserializer@@QEAA?AV?$Local@VValue@v8@@@v8@@XZ 000000018002e2d8     WebWorkerThreads.obj
 0002:0000b2e4       $chain$0$?ReadCString@BSONDeserializer@@QEAA?AV?$Local@VValue@v8@@@v8@@XZ 000000018002e2e4     WebWorkerThreads.obj
 0002:0000b2f8       $chain$1$?ReadCString@BSONDeserializer@@QEAA?AV?$Local@VValue@v8@@@v8@@XZ 000000018002e2f8     WebWorkerThreads.obj
 0002:0000b308       $unwind$?ReadObjectId@BSONDeserializer@@QEAA?AV?$Local@VString@v8@@@v8@@XZ 000000018002e308     WebWorkerThreads.obj
 0002:0000b318       $unwind$?DeserializeDocument@BSONDeserializer@@QEAA?AV?$Local@VValue@v8@@@v8@@_N@Z 000000018002e318     WebWorkerThreads.obj
 0002:0000b318       $unwind$?_TlgWrite@__vcrt_trace_logging_provider@@YAJPEBU_TlgProvider_t@1@PEFBXPEBU_GUID@@2IPEAU_EVENT_DATA_DESCRIPTOR@@@Z 000000018002e318     libvcruntime:telemetry.obj
 0002:0000b318       $unwind$?getSystemCP@@YAHH@Z 000000018002e318     libucrt:mbctype.obj
 0002:0000b318       $unwind$isdigit            000000018002e318     libucrt:_ctype.obj
 0002:0000b318       $unwind$?DeserializeArray@BSONDeserializer@@AEAA?AV?$Local@VValue@v8@@@v8@@_N@Z 000000018002e318     WebWorkerThreads.obj
 0002:0000b318       $unwind$_isleadbyte_l      000000018002e318     libucrt:_wctype.obj
 0002:0000b320       $unwind$?DeserializeDocumentInternal@BSONDeserializer@@AEAA?AV?$Local@VValue@v8@@@v8@@_N@Z 000000018002e320     WebWorkerThreads.obj
 0002:0000b33c       $unwind$?DeserializeArrayInternal@BSONDeserializer@@AEAA?AV?$Local@VValue@v8@@@v8@@_N@Z 000000018002e33c     WebWorkerThreads.obj
 0002:0000b34c       $unwind$?DeserializeValue@BSONDeserializer@@AEAA?AV?$Local@VValue@v8@@@v8@@W4BsonType@@_N@Z 000000018002e34c     WebWorkerThreads.obj
 0002:0000b368       $unwind$??0BSON@@QEAA@XZ   000000018002e368     WebWorkerThreads.obj
 0002:0000b37c       $unwind$capture_previous_context 000000018002e37c     LIBCMT:gs_report.obj
 0002:0000b37c       $unwind$?GetSerializeObject@BSON@@QEAA?AV?$Local@VObject@v8@@@v8@@AEBV?$Local@VValue@v8@@@3@@Z 000000018002e37c     WebWorkerThreads.obj
 0002:0000b388       $unwind$?ReportException@@YAXPEAVTryCatch@v8@@@Z 000000018002e388     WebWorkerThreads.obj
 0002:0000b394       $chain$0$?ReportException@@YAXPEAVTryCatch@v8@@@Z 000000018002e394     WebWorkerThreads.obj
 0002:0000b3a8       $chain$2$?ReportException@@YAXPEAVTryCatch@v8@@@Z 000000018002e3a8     WebWorkerThreads.obj
 0002:0000b3c0       $chain$3$?ReportException@@YAXPEAVTryCatch@v8@@@Z 000000018002e3c0     WebWorkerThreads.obj
 0002:0000b3d4       $chain$4$?ReportException@@YAXPEAVTryCatch@v8@@@Z 000000018002e3d4     WebWorkerThreads.obj
 0002:0000b3e4       $unwind$?readFileSync_@@YAXAEBV?$FunctionCallbackInfo@VValue@v8@@@Nan@@@Z 000000018002e3e4     WebWorkerThreads.obj
 0002:0000b400       $chain$1$?readFileSync_@@YAXAEBV?$FunctionCallbackInfo@VValue@v8@@@Nan@@@Z 000000018002e400     WebWorkerThreads.obj
 0002:0000b414       $chain$2$?readFileSync_@@YAXAEBV?$FunctionCallbackInfo@VValue@v8@@@Nan@@@Z 000000018002e414     WebWorkerThreads.obj
 0002:0000b428       $chain$3$?readFileSync_@@YAXAEBV?$FunctionCallbackInfo@VValue@v8@@@Nan@@@Z 000000018002e428     WebWorkerThreads.obj
 0002:0000b438       $chain$4$?readFileSync_@@YAXAEBV?$FunctionCallbackInfo@VValue@v8@@@Nan@@@Z 000000018002e438     WebWorkerThreads.obj
 0002:0000b448       $unwind$?console_common_1@@YAXAEBV?$Local@VValue@v8@@@v8@@PEAU_iobuf@@H@Z 000000018002e448     WebWorkerThreads.obj
 0002:0000b464       $unwind$?console_error@@YAXAEBV?$FunctionCallbackInfo@VValue@v8@@@Nan@@@Z 000000018002e464     WebWorkerThreads.obj
 0002:0000b464       $unwind$?console_log@@YAXAEBV?$FunctionCallbackInfo@VValue@v8@@@Nan@@@Z 000000018002e464     WebWorkerThreads.obj
 0002:0000b46c       $chain$1$?console_log@@YAXAEBV?$FunctionCallbackInfo@VValue@v8@@@Nan@@@Z 000000018002e46c     WebWorkerThreads.obj
 0002:0000b484       $chain$2$?console_log@@YAXAEBV?$FunctionCallbackInfo@VValue@v8@@@Nan@@@Z 000000018002e484     WebWorkerThreads.obj
 0002:0000b498       $chain$3$?console_log@@YAXAEBV?$FunctionCallbackInfo@VValue@v8@@@Nan@@@Z 000000018002e498     WebWorkerThreads.obj
 0002:0000b4a8       $chain$4$?console_log@@YAXAEBV?$FunctionCallbackInfo@VValue@v8@@@Nan@@@Z 000000018002e4a8     WebWorkerThreads.obj
 0002:0000b4b8       $chain$1$?console_error@@YAXAEBV?$FunctionCallbackInfo@VValue@v8@@@Nan@@@Z 000000018002e4b8     WebWorkerThreads.obj
 0002:0000b4d0       $chain$2$?console_error@@YAXAEBV?$FunctionCallbackInfo@VValue@v8@@@Nan@@@Z 000000018002e4d0     WebWorkerThreads.obj
 0002:0000b4e4       $chain$3$?console_error@@YAXAEBV?$FunctionCallbackInfo@VValue@v8@@@Nan@@@Z 000000018002e4e4     WebWorkerThreads.obj
 0002:0000b4f4       $chain$4$?console_error@@YAXAEBV?$FunctionCallbackInfo@VValue@v8@@@Nan@@@Z 000000018002e4f4     WebWorkerThreads.obj
 0002:0000b504       $unwind$__acrt_InitializeCriticalSectionEx 000000018002e504     libucrt:winapi_thunks.obj
 0002:0000b504       $unwind$?find_or_allocate_unused_stream_nolock@@YA?AV__crt_stdio_stream@@XZ 000000018002e504     libucrt:stream.obj
 0002:0000b504       $unwind$?pushToInQueue@@YAXPEAUtypeQueueItem@@PEAUtypeThread@@@Z 000000018002e504     WebWorkerThreads.obj
 0002:0000b504       $unwind$__acrt_free_locale 000000018002e504     libucrt:locale_refcounting.obj
 0002:0000b504       $unwind$__vcrt_InitializeCriticalSectionEx 000000018002e504     libvcruntime:winapi_downlevel.obj
 0002:0000b504       $unwind$_seh_filter_exe    000000018002e504     libucrt:exception_filter.obj
 0002:0000b504       $unwind$_recalloc_base     000000018002e504     libucrt:recalloc.obj
 0002:0000b504       $unwind$?dllmain_raw@@YAHQEAUHINSTANCE__@@KQEAX@Z 000000018002e504     LIBCMT:dll_dllmain.obj
 0002:0000b504       $unwind$__scrt_dllmain_exception_filter 000000018002e504     LIBCMT:utility.obj
 0002:0000b504       $unwind$__acrt_lowio_create_handle_array 000000018002e504     libucrt:osfinfo.obj
 0002:0000b504       $unwind$?setSBCS@@YAXPEAU__crt_multibyte_data@@@Z 000000018002e504     libucrt:mbctype.obj
 0002:0000b504       $unwind$__acrt_execute_initializers 000000018002e504     libucrt:shared_initialization.obj
 0002:0000b504       $unwind$??$ensure_buffer_is_big_enough@D@formatting_buffer@__crt_stdio_output@@QEAA_N_K@Z 000000018002e504     libucrt:output.obj
 0002:0000b504       $unwind$_wassert           000000018002e504     libucrt:assert.obj
 0002:0000b518       $unwind$?Puts@@YAXAEBV?$FunctionCallbackInfo@VValue@v8@@@Nan@@@Z 000000018002e518     WebWorkerThreads.obj
 0002:0000b518       $unwind$?Print@@YAXAEBV?$FunctionCallbackInfo@VValue@v8@@@Nan@@@Z 000000018002e518     WebWorkerThreads.obj
 0002:0000b524       $chain$0$?Puts@@YAXAEBV?$FunctionCallbackInfo@VValue@v8@@@Nan@@@Z 000000018002e524     WebWorkerThreads.obj
 0002:0000b538       $chain$1$?Puts@@YAXAEBV?$FunctionCallbackInfo@VValue@v8@@@Nan@@@Z 000000018002e538     WebWorkerThreads.obj
 0002:0000b548       $chain$0$?Print@@YAXAEBV?$FunctionCallbackInfo@VValue@v8@@@Nan@@@Z 000000018002e548     WebWorkerThreads.obj
 0002:0000b55c       $chain$1$?Print@@YAXAEBV?$FunctionCallbackInfo@VValue@v8@@@Nan@@@Z 000000018002e55c     WebWorkerThreads.obj
 0002:0000b56c       $unwind$?aThread@@YAXPEAX@Z 000000018002e56c     WebWorkerThreads.obj
 0002:0000b57c       $unwind$?eventLoop@@YAXPEAUtypeThread@@@Z 000000018002e57c     WebWorkerThreads.obj
 0002:0000b5a0       $chain$1$?eventLoop@@YAXPEAUtypeThread@@@Z 000000018002e5a0     WebWorkerThreads.obj
 0002:0000b5b8       $unwind$?destroyaThread@@YAXPEAUtypeThread@@@Z 000000018002e5b8     WebWorkerThreads.obj
 0002:0000b5c4       $unwind$?Callback@@YAXPEAUuv_async_s@@H@Z 000000018002e5c4     WebWorkerThreads.obj
 0002:0000b5d0       $chain$5$?Callback@@YAXPEAUuv_async_s@@H@Z 000000018002e5d0     WebWorkerThreads.obj
 0002:0000b5f8       $chain$7$?Callback@@YAXPEAUuv_async_s@@H@Z 000000018002e5f8     WebWorkerThreads.obj
 0002:0000b620       $unwind$?Destroy@@YAXAEBV?$FunctionCallbackInfo@VValue@v8@@@Nan@@@Z 000000018002e620     WebWorkerThreads.obj
 0002:0000b62c       $unwind$?Eval@@YAXAEBV?$FunctionCallbackInfo@VValue@v8@@@Nan@@@Z 000000018002e62c     WebWorkerThreads.obj
 0002:0000b638       $chain$1$?Eval@@YAXAEBV?$FunctionCallbackInfo@VValue@v8@@@Nan@@@Z 000000018002e638     WebWorkerThreads.obj
 0002:0000b650       $chain$2$?Eval@@YAXAEBV?$FunctionCallbackInfo@VValue@v8@@@Nan@@@Z 000000018002e650     WebWorkerThreads.obj
 0002:0000b664       $chain$3$?Eval@@YAXAEBV?$FunctionCallbackInfo@VValue@v8@@@Nan@@@Z 000000018002e664     WebWorkerThreads.obj
 0002:0000b674       $chain$4$?Eval@@YAXAEBV?$FunctionCallbackInfo@VValue@v8@@@Nan@@@Z 000000018002e674     WebWorkerThreads.obj
 0002:0000b684       $unwind$?readFile@@YAPEADV?$Local@VString@v8@@@v8@@@Z 000000018002e684     WebWorkerThreads.obj
 0002:0000b694       $unwind$?Load@@YAXAEBV?$FunctionCallbackInfo@VValue@v8@@@Nan@@@Z 000000018002e694     WebWorkerThreads.obj
 0002:0000b6a4       $chain$3$?Load@@YAXAEBV?$FunctionCallbackInfo@VValue@v8@@@Nan@@@Z 000000018002e6a4     WebWorkerThreads.obj
 0002:0000b6c4       $chain$4$?Load@@YAXAEBV?$FunctionCallbackInfo@VValue@v8@@@Nan@@@Z 000000018002e6c4     WebWorkerThreads.obj
 0002:0000b6d4       $unwind$?processEmit@@YAXAEBV?$FunctionCallbackInfo@VValue@v8@@@Nan@@@Z 000000018002e6d4     WebWorkerThreads.obj
 0002:0000b6e8       $unwind$?processEmitSerialized@@YAXAEBV?$FunctionCallbackInfo@VValue@v8@@@Nan@@@Z 000000018002e6e8     WebWorkerThreads.obj
 0002:0000b6fc       $chain$3$?processEmitSerialized@@YAXAEBV?$FunctionCallbackInfo@VValue@v8@@@Nan@@@Z 000000018002e6fc     WebWorkerThreads.obj
 0002:0000b718       $chain$4$?processEmitSerialized@@YAXAEBV?$FunctionCallbackInfo@VValue@v8@@@Nan@@@Z 000000018002e718     WebWorkerThreads.obj
 0002:0000b728       $unwind$?postMessage@@YAXAEBV?$FunctionCallbackInfo@VValue@v8@@@Nan@@@Z 000000018002e728     WebWorkerThreads.obj
 0002:0000b728       $unwind$?postError@@YAXAEBV?$FunctionCallbackInfo@VValue@v8@@@Nan@@@Z 000000018002e728     WebWorkerThreads.obj
 0002:0000b740       $unwind$?threadEmit@@YAXAEBV?$FunctionCallbackInfo@VValue@v8@@@Nan@@@Z 000000018002e740     WebWorkerThreads.obj
 0002:0000b758       $unwind$?Create@@YAXAEBV?$FunctionCallbackInfo@VValue@v8@@@Nan@@@Z 000000018002e758     WebWorkerThreads.obj
 0002:0000b770       $unwind$?Init@@YAXV?$Local@VObject@v8@@@v8@@V?$Local@VValue@v8@@@2@PEAX@Z 000000018002e770     WebWorkerThreads.obj
 0002:0000b784       $unwind$?SerializeDocument@?$BSONSerializer@VCountStream@@@@QEAAXAEBV?$Local@VValue@v8@@@v8@@@Z 000000018002e784     WebWorkerThreads.obj
 0002:0000b794       $chain$0$?SerializeDocument@?$BSONSerializer@VCountStream@@@@QEAAXAEBV?$Local@VValue@v8@@@v8@@@Z 000000018002e794     WebWorkerThreads.obj
 0002:0000b7a8       $chain$1$?SerializeDocument@?$BSONSerializer@VCountStream@@@@QEAAXAEBV?$Local@VValue@v8@@@v8@@@Z 000000018002e7a8     WebWorkerThreads.obj
 0002:0000b7b8       $unwind$?SerializeDocument@?$BSONSerializer@VDataStream@@@@QEAAXAEBV?$Local@VValue@v8@@@v8@@@Z 000000018002e7b8     WebWorkerThreads.obj
 0002:0000b7cc       $chain$1$?SerializeDocument@?$BSONSerializer@VDataStream@@@@QEAAXAEBV?$Local@VValue@v8@@@v8@@@Z 000000018002e7cc     WebWorkerThreads.obj
 0002:0000b7e4       $chain$2$?SerializeDocument@?$BSONSerializer@VDataStream@@@@QEAAXAEBV?$Local@VValue@v8@@@v8@@@Z 000000018002e7e4     WebWorkerThreads.obj
 0002:0000b7f4       $unwind$?SerializeValue@?$BSONSerializer@VCountStream@@@@QEAAXPEAXAEBV?$Local@VValue@v8@@@v8@@@Z 000000018002e7f4     WebWorkerThreads.obj
 0002:0000b800       $chain$0$?SerializeValue@?$BSONSerializer@VCountStream@@@@QEAAXPEAXAEBV?$Local@VValue@v8@@@v8@@@Z 000000018002e800     WebWorkerThreads.obj
 0002:0000b814       $chain$2$?SerializeValue@?$BSONSerializer@VCountStream@@@@QEAAXPEAXAEBV?$Local@VValue@v8@@@v8@@@Z 000000018002e814     WebWorkerThreads.obj
 0002:0000b814       $chain$26$?SerializeValue@?$BSONSerializer@VCountStream@@@@QEAAXPEAXAEBV?$Local@VValue@v8@@@v8@@@Z 000000018002e814     WebWorkerThreads.obj
 0002:0000b814       $chain$14$?SerializeValue@?$BSONSerializer@VCountStream@@@@QEAAXPEAXAEBV?$Local@VValue@v8@@@v8@@@Z 000000018002e814     WebWorkerThreads.obj
 0002:0000b814       $chain$16$?SerializeValue@?$BSONSerializer@VCountStream@@@@QEAAXPEAXAEBV?$Local@VValue@v8@@@v8@@@Z 000000018002e814     WebWorkerThreads.obj
 0002:0000b814       $chain$4$?SerializeValue@?$BSONSerializer@VCountStream@@@@QEAAXPEAXAEBV?$Local@VValue@v8@@@v8@@@Z 000000018002e814     WebWorkerThreads.obj
 0002:0000b814       $chain$20$?SerializeValue@?$BSONSerializer@VCountStream@@@@QEAAXPEAXAEBV?$Local@VValue@v8@@@v8@@@Z 000000018002e814     WebWorkerThreads.obj
 0002:0000b814       $chain$22$?SerializeValue@?$BSONSerializer@VCountStream@@@@QEAAXPEAXAEBV?$Local@VValue@v8@@@v8@@@Z 000000018002e814     WebWorkerThreads.obj
 0002:0000b814       $chain$6$?SerializeValue@?$BSONSerializer@VCountStream@@@@QEAAXPEAXAEBV?$Local@VValue@v8@@@v8@@@Z 000000018002e814     WebWorkerThreads.obj
 0002:0000b814       $chain$12$?SerializeValue@?$BSONSerializer@VCountStream@@@@QEAAXPEAXAEBV?$Local@VValue@v8@@@v8@@@Z 000000018002e814     WebWorkerThreads.obj
 0002:0000b814       $chain$10$?SerializeValue@?$BSONSerializer@VCountStream@@@@QEAAXPEAXAEBV?$Local@VValue@v8@@@v8@@@Z 000000018002e814     WebWorkerThreads.obj
 0002:0000b814       $chain$24$?SerializeValue@?$BSONSerializer@VCountStream@@@@QEAAXPEAXAEBV?$Local@VValue@v8@@@v8@@@Z 000000018002e814     WebWorkerThreads.obj
 0002:0000b814       $chain$28$?SerializeValue@?$BSONSerializer@VCountStream@@@@QEAAXPEAXAEBV?$Local@VValue@v8@@@v8@@@Z 000000018002e814     WebWorkerThreads.obj
 0002:0000b814       $chain$30$?SerializeValue@?$BSONSerializer@VCountStream@@@@QEAAXPEAXAEBV?$Local@VValue@v8@@@v8@@@Z 000000018002e814     WebWorkerThreads.obj
 0002:0000b814       $chain$18$?SerializeValue@?$BSONSerializer@VCountStream@@@@QEAAXPEAXAEBV?$Local@VValue@v8@@@v8@@@Z 000000018002e814     WebWorkerThreads.obj
 0002:0000b814       $chain$8$?SerializeValue@?$BSONSerializer@VCountStream@@@@QEAAXPEAXAEBV?$Local@VValue@v8@@@v8@@@Z 000000018002e814     WebWorkerThreads.obj
 0002:0000b828       $unwind$?SerializeValue@?$BSONSerializer@VDataStream@@@@QEAAXPEAXAEBV?$Local@VValue@v8@@@v8@@@Z 000000018002e828     WebWorkerThreads.obj
 0002:0000b838       $unwind$?SerializeArray@?$BSONSerializer@VCountStream@@@@QEAAXAEBV?$Local@VValue@v8@@@v8@@@Z 000000018002e838     WebWorkerThreads.obj
 0002:0000b850       $unwind$?SerializeArray@?$BSONSerializer@VDataStream@@@@QEAAXAEBV?$Local@VValue@v8@@@v8@@@Z 000000018002e850     WebWorkerThreads.obj
 0002:0000b864       xdata                      000000018002e864     node:node.exe
 0002:0000b870       $xdatasym                  000000018002e870     LIBCMT:_amdsecgs_.obj
 0002:0000b874       $unwind$__scrt_is_nonwritable_in_current_image 000000018002e874     LIBCMT:utility.obj
 0002:0000b894       $unwind$__scrt_is_nonwritable_in_current_image$filt$0 000000018002e894     LIBCMT:utility.obj
 0002:0000b89c       $unwind$__scrt_initialize_onexit_tables 000000018002e89c     LIBCMT:utility.obj
 0002:0000b8a8       $unwind$?dllmain_crt_process_attach@@YAHQEAUHINSTANCE__@@QEAX@Z 000000018002e8a8     LIBCMT:dll_dllmain.obj
 0002:0000b8d4       $unwind$?dllmain_crt_process_detach@@YAH_N@Z 000000018002e8d4     LIBCMT:dll_dllmain.obj
 0002:0000b8fc       $unwind$?dllmain_dispatch@@YAHQEAUHINSTANCE__@@KQEAX@Z 000000018002e8fc     LIBCMT:dll_dllmain.obj
 0002:0000b924       $unwind$?filt$0@?0??dllmain_dispatch@@YAHQEAUHINSTANCE__@@KQEAX@Z@4HA 000000018002e924     LIBCMT:dll_dllmain.obj
 0002:0000b924       $unwind$fread_s$fin$0      000000018002e924     libucrt:fread.obj
 0002:0000b92c       $unwind$_putwch_nolock     000000018002e92c     libucrt:putwch.obj
 0002:0000b92c       $unwind$__report_gsfailure 000000018002e92c     LIBCMT:gs_report.obj
 0002:0000b934       $unwind$_raise_exc         000000018002e934     libucrt:fpexcept.obj
 0002:0000b934       $unwind$?__scrt_throw_std_bad_array_new_length@@YAXXZ 000000018002e934     LIBCMT:throw_bad_alloc.obj
 0002:0000b934       $unwind$__dcrt_lowio_initialize_console_output 000000018002e934     libucrt:initcon.obj
 0002:0000b934       $unwind$?__scrt_throw_std_bad_alloc@@YAXXZ 000000018002e934     LIBCMT:throw_bad_alloc.obj
 0002:0000b93c       $unwind$__isa_available_init 000000018002e93c     LIBCMT:_cpu_disp_.obj
 0002:0000b948       $unwind$__scrt_fastfail    000000018002e948     LIBCMT:utility_desktop.obj
 0002:0000b958       $unwind$__security_init_cookie 000000018002e958     LIBCMT:gs_support.obj
 0002:0000b968       $xdatasym                  000000018002e968     LIBCMT:_guard_dispatch_.obj
 0002:0000b96c       $unwind$strchr             000000018002e96c     libvcruntime:strchr.obj
 0002:0000b96c       $unwind$strrchr            000000018002e96c     libvcruntime:strrchr.obj
 0002:0000b974       $unwind$__C_specific_handler 000000018002e974     libvcruntime:_chandler_.obj
 0002:0000b990       $unwind$__telemetry_main_return_trigger 000000018002e990     libvcruntime:telemetry.obj
 0002:0000b990       $unwind$__telemetry_main_invoke_trigger 000000018002e990     libvcruntime:telemetry.obj
 0002:0000b9a8       $unwind$?_TlgEnableCallback@__vcrt_trace_logging_provider@@YAXPEBU_GUID@@KE_K1PEAU_EVENT_FILTER_DESCRIPTOR@@PEAX@Z 000000018002e9a8     libvcruntime:telemetry.obj
 0002:0000b9c4       $unwind$_free_osfhnd       000000018002e9c4     libucrt:osfinfo.obj
 0002:0000b9c4       $unwind$?initialize_stdio_handles_nolock@@YAXXZ 000000018002e9c4     libucrt:ioinit.obj
 0002:0000b9c4       $unwind$__std_exception_copy 000000018002e9c4     libvcruntime:std_exception.obj
 0002:0000b9d8       $unwind$_CxxThrowException 000000018002e9d8     libvcruntime:throw.obj
 0002:0000b9f0       $xdatasym                  000000018002e9f0     libvcruntime:memset.obj
 0002:0000b9f4       $unwind$__vcrt_EventSetInformation 000000018002e9f4     libvcruntime:winapi_downlevel.obj
 0002:0000b9f4       $unwind$__acrt_MessageBoxW 000000018002e9f4     libucrt:winapi_thunks.obj
 0002:0000b9f4       $unwind$__vcrt_EventRegister 000000018002e9f4     libvcruntime:winapi_downlevel.obj
 0002:0000b9f4       $unwind$_initterm          000000018002e9f4     libucrt:initterm.obj
 0002:0000b9f4       $unwind$__acrt_lowio_set_os_handle 000000018002e9f4     libucrt:osfinfo.obj
 0002:0000b9f4       $unwind$__acrt_initialize_stdio 000000018002e9f4     libucrt:_file.obj
 0002:0000b9f4       $unwind$?process@?$output_processor@_WV?$string_output_adapter@_W@__crt_stdio_output@@V?$standard_base@_WV?$string_output_adapter@_W@__crt_stdio_output@@@2@@__crt_stdio_output@@QEAAHXZ 000000018002e9f4     libucrt:output.obj
 0002:0000ba0c       $unwind$_invalid_parameter 000000018002ea0c     libucrt:invalid_parameter.obj
 0002:0000ba0c       $unwind$__vcrt_EventWriteTransfer 000000018002ea0c     libvcruntime:winapi_downlevel.obj
 0002:0000ba24       $unwind$__acrt_initialize_winapi_thunks 000000018002ea24     libucrt:winapi_thunks.obj
 0002:0000ba24       $unwind$__vcrt_initialize_winapi_thunks 000000018002ea24     libvcruntime:winapi_downlevel.obj
 0002:0000ba2c       $unwind$?write_string@?$string_output_adapter@_W@__crt_stdio_output@@QEBAXQEB_WHQEAH1@Z 000000018002ea2c     libucrt:output.obj
 0002:0000ba2c       $unwind$?try_get_function@@YAPEAXW4function_id@?A0x63058377@@QEBDQEBW4module_id@2@2@Z 000000018002ea2c     libucrt:winapi_thunks.obj
 0002:0000ba2c       $unwind$?try_get_function@@YAPEAXW4function_id@?A0x61ce2399@@QEBDQEBW4module_id@2@2@Z 000000018002ea2c     libvcruntime:winapi_downlevel.obj
 0002:0000ba2c       $unwind$_fwrite_nolock     000000018002ea2c     libucrt:fwrite.obj
 0002:0000ba48       $xdatasym                  000000018002ea48     libvcruntime:_jmpuwind_.obj
 0002:0000ba5c       $unwind$?common_ftell_translated_utf8_nolock@@YA_JV__crt_stdio_stream@@_J@Z 000000018002ea5c     libucrt:ftell.obj
 0002:0000ba80       $unwind$?common_ftell_read_mode_nolock@@YA_JV__crt_stdio_stream@@_J1@Z 000000018002ea80     libucrt:ftell.obj
 0002:0000ba9c       $unwind$??$common_ftell_nolock@_J@@YA_JV__crt_stdio_stream@@@Z 000000018002ea9c     libucrt:ftell.obj
 0002:0000baa8       $unwind$??$common_ftell@J@@YAJV__crt_stdio_stream@@@Z 000000018002eaa8     libucrt:ftell.obj
 0002:0000bac8       $unwind$??$common_fsopen@D@@YAPEAU_iobuf@@QEBD0H@Z 000000018002eac8     libucrt:fopen.obj
 0002:0000baf0       $unwind$fflush             000000018002eaf0     libucrt:fflush.obj
 0002:0000bb14       $unwind$common_flush_all   000000018002eb14     libucrt:fflush.obj
 0002:0000bb50       $unwind$fclose             000000018002eb50     libucrt:fclose.obj
 0002:0000bb74       $unwind$?common_fseek_binary_mode_read_only_fast_track_nolock@@YA_NV__crt_stdio_stream@@_JH@Z 000000018002eb74     libucrt:fseek.obj
 0002:0000bb80       $unwind$??$common_refill_and_read_nolock@D@@YAHV__crt_stdio_stream@@@Z 000000018002eb80     libucrt:_filbuf.obj
 0002:0000bb80       $unwind$?common_fseek_nolock@@YAHV__crt_stdio_stream@@_JH@Z 000000018002eb80     libucrt:fseek.obj
 0002:0000bb80       $unwind$_raise_exc_ex      000000018002eb80     libucrt:fpexcept.obj
 0002:0000bb94       $unwind$?common_fseek@@YAHV__crt_stdio_stream@@_JH@Z 000000018002eb94     libucrt:fseek.obj
 0002:0000bbb8       $unwind$__stdio_common_vsprintf 000000018002ebb8     libucrt:output.obj
 0002:0000bbb8       $unwind$__stdio_common_vswprintf 000000018002ebb8     libucrt:output.obj
 0002:0000bbdc       $unwind$__stdio_common_vfwprintf 000000018002ebdc     libucrt:output.obj
 0002:0000bbdc       $unwind$__stdio_common_vfprintf 000000018002ebdc     libucrt:output.obj
 0002:0000bbe4       $unwind$?process@?$output_processor@DV?$string_output_adapter@D@__crt_stdio_output@@V?$standard_base@DV?$string_output_adapter@D@__crt_stdio_output@@@2@@__crt_stdio_output@@QEAAHXZ 000000018002ebe4     libucrt:output.obj
 0002:0000bbe4       $unwind$?process@?$output_processor@DV?$stream_output_adapter@D@__crt_stdio_output@@V?$standard_base@DV?$stream_output_adapter@D@__crt_stdio_output@@@2@@__crt_stdio_output@@QEAAHXZ 000000018002ebe4     libucrt:output.obj
 0002:0000bbf4       $unwind$?parse_int_from_format_string@?$output_processor@DV?$string_output_adapter@D@__crt_stdio_output@@V?$standard_base@DV?$string_output_adapter@D@__crt_stdio_output@@@2@@__crt_stdio_output@@AEAA_NQEAH@Z 000000018002ebf4     libucrt:output.obj
 0002:0000bbf4       $unwind$?parse_int_from_format_string@?$output_processor@DV?$stream_output_adapter@D@__crt_stdio_output@@V?$standard_base@DV?$stream_output_adapter@D@__crt_stdio_output@@@2@@__crt_stdio_output@@AEAA_NQEAH@Z 000000018002ebf4     libucrt:output.obj
 0002:0000bc08       $unwind$?write_stored_string_tchar@?$output_processor@DV?$stream_output_adapter@D@__crt_stdio_output@@V?$standard_base@DV?$stream_output_adapter@D@__crt_stdio_output@@@2@@__crt_stdio_output@@AEAA_ND@Z 000000018002ec08     libucrt:output.obj
 0002:0000bc08       $unwind$?write_stored_string_tchar@?$output_processor@DV?$string_output_adapter@D@__crt_stdio_output@@V?$standard_base@DV?$string_output_adapter@D@__crt_stdio_output@@@2@@__crt_stdio_output@@AEAA_ND@Z 000000018002ec08     libucrt:output.obj
 0002:0000bc20       $unwind$?write_string@?$stream_output_adapter@_W@__crt_stdio_output@@QEBAXQEB_WHQEAH1@Z 000000018002ec20     libucrt:output.obj
 0002:0000bc38       $unwind$?process@?$output_processor@_WV?$stream_output_adapter@_W@__crt_stdio_output@@V?$standard_base@_WV?$stream_output_adapter@_W@__crt_stdio_output@@@2@@__crt_stdio_output@@QEAAHXZ 000000018002ec38     libucrt:output.obj
 0002:0000bc50       $unwind$?state_case_type@?$output_processor@_WV?$string_output_adapter@_W@__crt_stdio_output@@V?$standard_base@_WV?$string_output_adapter@_W@__crt_stdio_output@@@2@@__crt_stdio_output@@AEAA_NXZ 000000018002ec50     libucrt:output.obj
 0002:0000bc50       $unwind$?state_case_type@?$output_processor@_WV?$stream_output_adapter@_W@__crt_stdio_output@@V?$standard_base@_WV?$stream_output_adapter@_W@__crt_stdio_output@@@2@@__crt_stdio_output@@AEAA_NXZ 000000018002ec50     libucrt:output.obj
 0002:0000bc74       $unwind$?type_case_a@?$output_processor@_WV?$string_output_adapter@_W@__crt_stdio_output@@V?$standard_base@_WV?$string_output_adapter@_W@__crt_stdio_output@@@2@@__crt_stdio_output@@AEAA_NXZ 000000018002ec74     libucrt:output.obj
 0002:0000bc74       $unwind$?type_case_a@?$output_processor@_WV?$stream_output_adapter@_W@__crt_stdio_output@@V?$standard_base@_WV?$stream_output_adapter@_W@__crt_stdio_output@@@2@@__crt_stdio_output@@AEAA_NXZ 000000018002ec74     libucrt:output.obj
 0002:0000bc84       $unwind$?write_stored_string_tchar@?$output_processor@_WV?$stream_output_adapter@_W@__crt_stdio_output@@V?$standard_base@_WV?$stream_output_adapter@_W@__crt_stdio_output@@@2@@__crt_stdio_output@@AEAA_N_W@Z 000000018002ec84     libucrt:output.obj
 0002:0000bc98       $unwind$??R<lambda_dd75445284c072d0bd3768540cc698fa>@@QEBAHXZ 000000018002ec98     libucrt:output.obj
 0002:0000bc98       $unwind$??R<lambda_0a64b6a4deda75c01876f29c44fc5eb3>@@QEBAHXZ 000000018002ec98     libucrt:output.obj
 0002:0000bcb4       $unwind$??R<lambda_4e60a939b0d047cfe11ddc22648dfba9>@@QEBAHXZ 000000018002ecb4     libucrt:onexit.obj
 0002:0000bcb4       $unwind$?write_string@?$string_output_adapter@D@__crt_stdio_output@@QEBAXQEBDHQEAH1@Z 000000018002ecb4     libucrt:output.obj
 0002:0000bcd0       $unwind$?state_case_type@?$output_processor@DV?$stream_output_adapter@D@__crt_stdio_output@@V?$standard_base@DV?$stream_output_adapter@D@__crt_stdio_output@@@2@@__crt_stdio_output@@AEAA_NXZ 000000018002ecd0     libucrt:output.obj
 0002:0000bcd0       $unwind$?state_case_type@?$output_processor@DV?$string_output_adapter@D@__crt_stdio_output@@V?$standard_base@DV?$string_output_adapter@D@__crt_stdio_output@@@2@@__crt_stdio_output@@AEAA_NXZ 000000018002ecd0     libucrt:output.obj
 0002:0000bcd0       $unwind$?configure_text_mode@@YAHHUfile_options@?A0x656cf9f4@@HAEAW4__crt_lowio_text_mode@@@Z 000000018002ecd0     libucrt:open.obj
 0002:0000bce8       $unwind$?type_case_a@?$output_processor@DV?$stream_output_adapter@D@__crt_stdio_output@@V?$standard_base@DV?$stream_output_adapter@D@__crt_stdio_output@@@2@@__crt_stdio_output@@AEAA_NXZ 000000018002ece8     libucrt:output.obj
 0002:0000bce8       $unwind$?type_case_a@?$output_processor@DV?$string_output_adapter@D@__crt_stdio_output@@V?$standard_base@DV?$string_output_adapter@D@__crt_stdio_output@@@2@@__crt_stdio_output@@AEAA_NXZ 000000018002ece8     libucrt:output.obj
 0002:0000bcf4       $unwind$?parse_int_from_format_string@?$output_processor@_WV?$stream_output_adapter@_W@__crt_stdio_output@@V?$standard_base@_WV?$stream_output_adapter@_W@__crt_stdio_output@@@2@@__crt_stdio_output@@AEAA_NQEAH@Z 000000018002ecf4     libucrt:output.obj
 0002:0000bcf4       $unwind$?parse_int_from_format_string@?$output_processor@_WV?$string_output_adapter@_W@__crt_stdio_output@@V?$standard_base@_WV?$string_output_adapter@_W@__crt_stdio_output@@@2@@__crt_stdio_output@@AEAA_NQEAH@Z 000000018002ecf4     libucrt:output.obj
 0002:0000bd08       $unwind$?write_stored_string_tchar@?$output_processor@_WV?$string_output_adapter@_W@__crt_stdio_output@@V?$standard_base@_WV?$string_output_adapter@_W@__crt_stdio_output@@@2@@__crt_stdio_output@@AEAA_N_W@Z 000000018002ed08     libucrt:output.obj
 0002:0000bd1c       $unwind$??$write_multiple_characters@V?$stream_output_adapter@D@__crt_stdio_output@@D@__crt_stdio_output@@YAXAEBV?$stream_output_adapter@D@0@DHQEAH@Z 000000018002ed1c     libucrt:output.obj
 0002:0000bd34       $unwind$??$write_multiple_characters@V?$stream_output_adapter@_W@__crt_stdio_output@@D@__crt_stdio_output@@YAXAEBV?$stream_output_adapter@_W@0@DHQEAH@Z 000000018002ed34     libucrt:output.obj
 0002:0000bd4c       $unwind$??$write_multiple_characters@V?$string_output_adapter@_W@__crt_stdio_output@@D@__crt_stdio_output@@YAXAEBV?$string_output_adapter@_W@0@DHQEAH@Z 000000018002ed4c     libucrt:output.obj
 0002:0000bd58       $unwind$??$type_case_integer_parse_into_buffer@_K@?$output_processor@_WV?$string_output_adapter@_W@__crt_stdio_output@@V?$standard_base@_WV?$string_output_adapter@_W@__crt_stdio_output@@@2@@__crt_stdio_output@@AEAAX_KI_N@Z 000000018002ed58     libucrt:output.obj
 0002:0000bd58       $unwind$??$type_case_integer_parse_into_buffer@_K@?$output_processor@DV?$stream_output_adapter@D@__crt_stdio_output@@V?$standard_base@DV?$stream_output_adapter@D@__crt_stdio_output@@@2@@__crt_stdio_output@@AEAAX_KI_N@Z 000000018002ed58     libucrt:output.obj
 0002:0000bd58       $unwind$??$type_case_integer_parse_into_buffer@_K@?$output_processor@DV?$string_output_adapter@D@__crt_stdio_output@@V?$standard_base@DV?$string_output_adapter@D@__crt_stdio_output@@@2@@__crt_stdio_output@@AEAAX_KI_N@Z 000000018002ed58     libucrt:output.obj
 0002:0000bd58       $unwind$??$type_case_integer_parse_into_buffer@I@?$output_processor@_WV?$stream_output_adapter@_W@__crt_stdio_output@@V?$standard_base@_WV?$stream_output_adapter@_W@__crt_stdio_output@@@2@@__crt_stdio_output@@AEAAXII_N@Z 000000018002ed58     libucrt:output.obj
 0002:0000bd58       $unwind$??$write_multiple_characters@V?$string_output_adapter@D@__crt_stdio_output@@D@__crt_stdio_output@@YAXAEBV?$string_output_adapter@D@0@DHQEAH@Z 000000018002ed58     libucrt:output.obj
 0002:0000bd58       $unwind$??$type_case_integer_parse_into_buffer@_K@?$output_processor@_WV?$stream_output_adapter@_W@__crt_stdio_output@@V?$standard_base@_WV?$stream_output_adapter@_W@__crt_stdio_output@@@2@@__crt_stdio_output@@AEAAX_KI_N@Z 000000018002ed58     libucrt:output.obj
 0002:0000bd58       $unwind$??$type_case_integer_parse_into_buffer@I@?$output_processor@DV?$string_output_adapter@D@__crt_stdio_output@@V?$standard_base@DV?$string_output_adapter@D@__crt_stdio_output@@@2@@__crt_stdio_output@@AEAAXII_N@Z 000000018002ed58     libucrt:output.obj
 0002:0000bd58       $unwind$??$type_case_integer_parse_into_buffer@I@?$output_processor@_WV?$string_output_adapter@_W@__crt_stdio_output@@V?$standard_base@_WV?$string_output_adapter@_W@__crt_stdio_output@@@2@@__crt_stdio_output@@AEAAXII_N@Z 000000018002ed58     libucrt:output.obj
 0002:0000bd58       $unwind$??$type_case_integer_parse_into_buffer@I@?$output_processor@DV?$stream_output_adapter@D@__crt_stdio_output@@V?$standard_base@DV?$stream_output_adapter@D@__crt_stdio_output@@@2@@__crt_stdio_output@@AEAAXII_N@Z 000000018002ed58     libucrt:output.obj
 0002:0000bd60       $unwind$??$?RV<lambda_aa279a7bcb127014629d5b1d62c7325d>@@AEAV<lambda_0a64b6a4deda75c01876f29c44fc5eb3>@@V<lambda_3323e69fbefe9d1a11713e670d47cdfa>@@@?$__crt_seh_guarded_call@H@@QEAAH$$QEAV<lambda_aa279a7bcb127014629d5b1d62c7325d>@@AEAV<lambda_0a64b6a4deda75c01876f29c44fc5eb3>@@$$QEAV<lambda_3323e69fbefe9d1a11713e670d47cdfa>@@@Z 000000018002ed60     libucrt:output.obj
 0002:0000bd84       $unwind$??$?RV<lambda_7b91131dde12e1c3dfc74ff76b3f2eac>@@AEAV<lambda_dd75445284c072d0bd3768540cc698fa>@@V<lambda_16bc4ecb55b4718497c16bceaea2ceaf>@@@?$__crt_seh_guarded_call@H@@QEAAH$$QEAV<lambda_7b91131dde12e1c3dfc74ff76b3f2eac>@@AEAV<lambda_dd75445284c072d0bd3768540cc698fa>@@$$QEAV<lambda_16bc4ecb55b4718497c16bceaea2ceaf>@@@Z 000000018002ed84     libucrt:output.obj
 0002:0000bda8       $unwind$rewind             000000018002eda8     libucrt:rewind.obj
 0002:0000bdcc       $unwind$fputc              000000018002edcc     libucrt:fputc.obj
 0002:0000be00       $unwind$fputs              000000018002ee00     libucrt:fputs.obj
 0002:0000be08       $unwind$??$?RV<lambda_a81aa23bb2c9577c1e55b9d0b57d9de4>@@AEAV<lambda_9a20e10065b92b5193c3597a66cba9d4>@@V<lambda_cb3a421ff86d8a5f008440ee6b28fa9c>@@@?$__crt_seh_guarded_call@H@@QEAAH$$QEAV<lambda_a81aa23bb2c9577c1e55b9d0b57d9de4>@@AEAV<lambda_9a20e10065b92b5193c3597a66cba9d4>@@$$QEAV<lambda_cb3a421ff86d8a5f008440ee6b28fa9c>@@@Z 000000018002ee08     libucrt:fputs.obj
 0002:0000be2c       $unwind$fread_s            000000018002ee2c     libucrt:fread.obj
 0002:0000be5c       $unwind$_fread_nolock_s    000000018002ee5c     libucrt:fread.obj
 0002:0000be74       $unwind$swprintf           000000018002ee74     libucrt:assert.obj
 0002:0000be84       $unwind$??$common_assert_to_stderr@_W@@YAXQEB_W0I@Z 000000018002ee84     libucrt:assert.obj
 0002:0000bea0       $unwind$??$common_assert_to_message_box@_W@@YAXQEB_W0IQEAX@Z 000000018002eea0     libucrt:assert.obj
 0002:0000bebc       $unwind$??$common_assert_to_message_box_build_string@_W@@YAXQEA_W_KQEB_W2IQEAX@Z 000000018002eebc     libucrt:assert.obj
 0002:0000bedc       $unwind$_query_new_handler 000000018002eedc     libucrt:new_handler.obj
 0002:0000befc       $unwind$?common_exit@@YAXHW4_crt_exit_cleanup_mode@@W4_crt_exit_return_mode@@@Z 000000018002eefc     libucrt:exit.obj
 0002:0000bf3c       $unwind$?fin$0@?0???$?RV<lambda_c36588078e9f5dfd39652860aa6b3aaf>@@AEAV<lambda_ec61778202f4f5fc7e7711acc23c3bca>@@V<lambda_dc9d2797ccde5d239b4a0efae8ebd7db>@@@?$__crt_seh_guarded_call@P6AXH@Z@@QEAAP6AXH@Z$$QEAV<lambda_c36588078e9f5dfd39652860aa6b3aaf>@@AEAV<lambda_ec61778202f4f5fc7e7711acc23c3bca>@@$$QEAV<lambda_dc9d2797ccde5d239b4a0efae8ebd7db>@@@Z@4HA 000000018002ef3c     libucrt:signal.obj
 0002:0000bf3c       $unwind$common_control87$filt$0 000000018002ef3c     libucrt:ieee.obj
 0002:0000bf3c       $unwind$?fin$0@?0???$common_fsopen@D@@YAPEAU_iobuf@@QEBD0H@Z@4HA 000000018002ef3c     libucrt:fopen.obj
 0002:0000bf3c       $unwind$_ctrlfp$filt$0     000000018002ef3c     libucrt:fpctrl.obj
 0002:0000bf3c       $unwind$?fin$0@?0???$common_lseek@J@@YAJHJH@Z@4HA 000000018002ef3c     libucrt:lseek.obj
 0002:0000bf3c       $unwind$_fcloseall$fin$0   000000018002ef3c     libucrt:closeall.obj
 0002:0000bf3c       $unwind$raise$fin$0        000000018002ef3c     libucrt:signal.obj
 0002:0000bf3c       $unwind$?fin$0@?0???$common_ftell@J@@YAJV__crt_stdio_stream@@@Z@4HA 000000018002ef3c     libucrt:ftell.obj
 0002:0000bf3c       $unwind$?fin$0@?0???$common_lseek@_J@@YA_JH_JH@Z@4HA 000000018002ef3c     libucrt:lseek.obj
 0002:0000bf3c       $unwind$__acrt_uninitialize_locale$fin$0 000000018002ef3c     libucrt:wsetlocale.obj
 0002:0000bf3c       $unwind$_write$fin$0       000000018002ef3c     libucrt:write.obj
 0002:0000bf3c       $unwind$_IsNonwritableInCurrentImage$filt$0 000000018002ef3c     LIBCMT:pesect.obj
 0002:0000bf3c       $unwind$?fin$0@?0???$?RV<lambda_e24bbb7b643b32fcea6fa61b31d4c984>@@AEAV<lambda_275893d493268fdec8709772e3fcec0e>@@V<lambda_9d71df4d7cf3f480f8d633942495c3b0>@@@?$__crt_seh_guarded_call@H@@QEAAH$$QEAV<lambda_e24bbb7b643b32fcea6fa61b31d4c984>@@AEAV<lambda_275893d493268fdec8709772e3fcec0e>@@$$QEAV<lambda_9d71df4d7cf3f480f8d633942495c3b0>@@@Z@4HA 000000018002ef3c     libucrt:onexit.obj
 0002:0000bf3c       $unwind$?fin$0@?0??common_fseek@@YAHV__crt_stdio_stream@@_JH@Z@4HA 000000018002ef3c     libucrt:fseek.obj
 0002:0000bf3c       $unwind$?fin$0@?0???$?RV<lambda_72d1df2b273a38828b1ce30cbf4cdab5>@@AEAV<lambda_876a65b173b8412d3a47c70a915b0cf4>@@V<lambda_41932305e351933ebe8f8be3ed8bb5dc>@@@?$__crt_seh_guarded_call@X@@QEAAX$$QEAV<lambda_72d1df2b273a38828b1ce30cbf4cdab5>@@AEAV<lambda_876a65b173b8412d3a47c70a915b0cf4>@@$$QEAV<lambda_41932305e351933ebe8f8be3ed8bb5dc>@@@Z@4HA 000000018002ef3c     libucrt:per_thread_data.obj
 0002:0000bf3c       $unwind$_query_new_handler$fin$0 000000018002ef3c     libucrt:new_handler.obj
 0002:0000bf3c       $unwind$?filt$0@?0??common_exit@@YAXHW4_crt_exit_cleanup_mode@@W4_crt_exit_return_mode@@@Z@4HA 000000018002ef3c     libucrt:exit.obj
 0002:0000bf3c       $unwind$?fin$1@?0??common_exit@@YAXHW4_crt_exit_cleanup_mode@@W4_crt_exit_return_mode@@@Z@4HA 000000018002ef3c     libucrt:exit.obj
 0002:0000bf3c       $unwind$?fin$0@?0???$?RV<lambda_7a5ef57ff966f610505f1d28a3d40618>@@AEAV<lambda_b721fa326cdb32351d23dfa67958c160>@@V<lambda_5e0fb27672408a07956fe59e48ccb2aa>@@@?$__crt_seh_guarded_call@H@@QEAAH$$QEAV<lambda_7a5ef57ff966f610505f1d28a3d40618>@@AEAV<lambda_b721fa326cdb32351d23dfa67958c160>@@$$QEAV<lambda_5e0fb27672408a07956fe59e48ccb2aa>@@@Z@4HA 000000018002ef3c     libucrt:setvbuf.obj
 0002:0000bf3c       $unwind$__acrt_update_thread_multibyte_data$fin$0 000000018002ef3c     libucrt:mbctype.obj
 0002:0000bf3c       $unwind$fclose$fin$0       000000018002ef3c     libucrt:fclose.obj
 0002:0000bf3c       $unwind$?fin$0@?0???$?RV<lambda_5e887d1dcbef67a5eb4283622ba103bf>@@AEAV<lambda_4466841279450cc726390878d4a41900>@@V<lambda_341c25c0346d94847f1f3c463c57e077>@@@?$__crt_seh_guarded_call@X@@QEAAX$$QEAV<lambda_5e887d1dcbef67a5eb4283622ba103bf>@@AEAV<lambda_4466841279450cc726390878d4a41900>@@$$QEAV<lambda_341c25c0346d94847f1f3c463c57e077>@@@Z@4HA 000000018002ef3c     libucrt:per_thread_data.obj
 0002:0000bf3c       $unwind$fflush$fin$0       000000018002ef3c     libucrt:fflush.obj
 0002:0000bf3c       $unwind$?fin$0@?0???$?RV<lambda_aa279a7bcb127014629d5b1d62c7325d>@@AEAV<lambda_0a64b6a4deda75c01876f29c44fc5eb3>@@V<lambda_3323e69fbefe9d1a11713e670d47cdfa>@@@?$__crt_seh_guarded_call@H@@QEAAH$$QEAV<lambda_aa279a7bcb127014629d5b1d62c7325d>@@AEAV<lambda_0a64b6a4deda75c01876f29c44fc5eb3>@@$$QEAV<lambda_3323e69fbefe9d1a11713e670d47cdfa>@@@Z@4HA 000000018002ef3c     libucrt:output.obj
 0002:0000bf3c       $unwind$_alloc_osfhnd$fin$0 000000018002ef3c     libucrt:osfinfo.obj
 0002:0000bf3c       $unwind$_read$fin$0        000000018002ef3c     libucrt:read.obj
 0002:0000bf3c       $unwind$rewind$fin$0       000000018002ef3c     libucrt:rewind.obj
 0002:0000bf3c       $unwind$?fin$0@?0???$?RV<lambda_7b91131dde12e1c3dfc74ff76b3f2eac>@@AEAV<lambda_dd75445284c072d0bd3768540cc698fa>@@V<lambda_16bc4ecb55b4718497c16bceaea2ceaf>@@@?$__crt_seh_guarded_call@H@@QEAAH$$QEAV<lambda_7b91131dde12e1c3dfc74ff76b3f2eac>@@AEAV<lambda_dd75445284c072d0bd3768540cc698fa>@@$$QEAV<lambda_16bc4ecb55b4718497c16bceaea2ceaf>@@@Z@4HA 000000018002ef3c     libucrt:output.obj
 0002:0000bf3c       $unwind$?fin$0@?0???$?RV<lambda_46352004c1216016012b18bd6f87e700>@@AEAV<lambda_3bd07e1a1191394380780325891bf33f>@@V<lambda_334532d3f185bcaa59b5be82d7d22bff>@@@?$__crt_seh_guarded_call@X@@QEAAX$$QEAV<lambda_46352004c1216016012b18bd6f87e700>@@AEAV<lambda_3bd07e1a1191394380780325891bf33f>@@$$QEAV<lambda_334532d3f185bcaa59b5be82d7d22bff>@@@Z@4HA 000000018002ef3c     libucrt:per_thread_data.obj
 0002:0000bf3c       $unwind$?fin$0@?0??dllmain_crt_process_attach@@YAHQEAUHINSTANCE__@@QEAX@Z@4HA 000000018002ef3c     LIBCMT:dll_dllmain.obj
 0002:0000bf3c       $unwind$common_flush_all$fin$1 000000018002ef3c     libucrt:fflush.obj
 0002:0000bf3c       $unwind$?fin$0@?0??__acrt_stdio_allocate_stream@@YA?AV__crt_stdio_stream@@XZ@4HA 000000018002ef3c     libucrt:stream.obj
 0002:0000bf3c       $unwind$?fin$0@?0???$?RV<lambda_99476a1ad63dd22509b5d3e65b0ffc95>@@AEAV<lambda_ad1ced32f4ac17aa236e5ef05d6b3b7c>@@V<lambda_f7424dd8d45958661754dc4f2697e9c3>@@@?$__crt_seh_guarded_call@X@@QEAAX$$QEAV<lambda_99476a1ad63dd22509b5d3e65b0ffc95>@@AEAV<lambda_ad1ced32f4ac17aa236e5ef05d6b3b7c>@@$$QEAV<lambda_f7424dd8d45958661754dc4f2697e9c3>@@@Z@4HA 000000018002ef3c     libucrt:mbctype.obj
 0002:0000bf3c       $unwind$?fin$0@?0??dllmain_crt_process_detach@@YAH_N@Z@4HA 000000018002ef3c     LIBCMT:dll_dllmain.obj
 0002:0000bf3c       $unwind$common_flush_all$fin$0 000000018002ef3c     libucrt:fflush.obj
 0002:0000bf3c       $unwind$?fin$0@?0???$?RV<lambda_b8c45f8f788dd370798f47cfe8ac3a86>@@AEAV<lambda_4e60a939b0d047cfe11ddc22648dfba9>@@V<lambda_332c3edc96d0294ec56c57d38c1cdfd5>@@@?$__crt_seh_guarded_call@H@@QEAAH$$QEAV<lambda_b8c45f8f788dd370798f47cfe8ac3a86>@@AEAV<lambda_4e60a939b0d047cfe11ddc22648dfba9>@@$$QEAV<lambda_332c3edc96d0294ec56c57d38c1cdfd5>@@@Z@4HA 000000018002ef3c     libucrt:onexit.obj
 0002:0000bf3c       $unwind$__acrt_lowio_ensure_fh_exists$fin$0 000000018002ef3c     libucrt:osfinfo.obj
 0002:0000bf3c       $unwind$?fin$0@?0???$?RV<lambda_a81aa23bb2c9577c1e55b9d0b57d9de4>@@AEAV<lambda_9a20e10065b92b5193c3597a66cba9d4>@@V<lambda_cb3a421ff86d8a5f008440ee6b28fa9c>@@@?$__crt_seh_guarded_call@H@@QEAAH$$QEAV<lambda_a81aa23bb2c9577c1e55b9d0b57d9de4>@@AEAV<lambda_9a20e10065b92b5193c3597a66cba9d4>@@$$QEAV<lambda_cb3a421ff86d8a5f008440ee6b28fa9c>@@@Z@4HA 000000018002ef3c     libucrt:fputs.obj
 0002:0000bf3c       $unwind$?fin$0@?0???$?RV<lambda_b521505b218e5242e90febf6bfebc422>@@AEAV<lambda_6978c1fb23f02e42e1d9e99668cc68aa>@@V<lambda_314360699dd331753a4119843814e9a7>@@@?$__crt_seh_guarded_call@H@@QEAAH$$QEAV<lambda_b521505b218e5242e90febf6bfebc422>@@AEAV<lambda_6978c1fb23f02e42e1d9e99668cc68aa>@@$$QEAV<lambda_314360699dd331753a4119843814e9a7>@@@Z@4HA 000000018002ef3c     libucrt:commit.obj
 0002:0000bf3c       $unwind$?fin$0@?0???$?RV<lambda_bfedae4ebbf01fab1bb6dcc6a9e276e0>@@AEAV<lambda_2fe9b910cf3cbf4a0ab98a02ba45b3ec>@@V<lambda_237c231691f317818eb88cc1d5d642d6>@@@?$__crt_seh_guarded_call@H@@QEAAH$$QEAV<lambda_bfedae4ebbf01fab1bb6dcc6a9e276e0>@@AEAV<lambda_2fe9b910cf3cbf4a0ab98a02ba45b3ec>@@$$QEAV<lambda_237c231691f317818eb88cc1d5d642d6>@@@Z@4HA 000000018002ef3c     libucrt:close.obj
 0002:0000bf3c       $unwind$?fin$0@?0???$?RV<lambda_fb3a7dec4e47f37f22dae91bb15c9095>@@AEAV<lambda_698284760c8add0bfb0756c19673e34b>@@V<lambda_dfb8eca1e75fef3034a8fb18dd509707>@@@?$__crt_seh_guarded_call@X@@QEAAX$$QEAV<lambda_fb3a7dec4e47f37f22dae91bb15c9095>@@AEAV<lambda_698284760c8add0bfb0756c19673e34b>@@$$QEAV<lambda_dfb8eca1e75fef3034a8fb18dd509707>@@@Z@4HA 000000018002ef3c     libucrt:per_thread_data.obj
 0002:0000bf3c       $unwind$__acrt_initialize_lowio$fin$0 000000018002ef3c     libucrt:ioinit.obj
 0002:0000bf3c       $unwind$__acrt_update_thread_locale_data$fin$0 000000018002ef3c     libucrt:locale_refcounting.obj
 0002:0000bf3c       $unwind$fputc$fin$0        000000018002ef3c     libucrt:fputc.obj
 0002:0000bf44       $unwind$??$free_environment@D@@YAXQEAPEAD@Z 000000018002ef44     libucrt:environment_initialization.obj
 0002:0000bf44       $unwind$??$free_environment@_W@@YAXQEAPEA_W@Z 000000018002ef44     libucrt:environment_initialization.obj
 0002:0000bf50       $unwind$__acrt_copy_path_to_wide_string 000000018002ef50     libucrt:string_utilities.obj
 0002:0000bf50       $unwind$??$create_environment@D@@YAQEAPEADQEAD@Z 000000018002ef50     libucrt:environment_initialization.obj
 0002:0000bf68       $unwind$_register_onexit_function 000000018002ef68     libucrt:onexit.obj
 0002:0000bf70       $unwind$_execute_onexit_table 000000018002ef70     libucrt:onexit.obj
 0002:0000bf78       $unwind$??$?RV<lambda_b8c45f8f788dd370798f47cfe8ac3a86>@@AEAV<lambda_4e60a939b0d047cfe11ddc22648dfba9>@@V<lambda_332c3edc96d0294ec56c57d38c1cdfd5>@@@?$__crt_seh_guarded_call@H@@QEAAH$$QEAV<lambda_b8c45f8f788dd370798f47cfe8ac3a86>@@AEAV<lambda_4e60a939b0d047cfe11ddc22648dfba9>@@$$QEAV<lambda_332c3edc96d0294ec56c57d38c1cdfd5>@@@Z 000000018002ef78     libucrt:onexit.obj
 0002:0000bf9c       $unwind$??$?RV<lambda_e24bbb7b643b32fcea6fa61b31d4c984>@@AEAV<lambda_275893d493268fdec8709772e3fcec0e>@@V<lambda_9d71df4d7cf3f480f8d633942495c3b0>@@@?$__crt_seh_guarded_call@H@@QEAAH$$QEAV<lambda_e24bbb7b643b32fcea6fa61b31d4c984>@@AEAV<lambda_275893d493268fdec8709772e3fcec0e>@@$$QEAV<lambda_9d71df4d7cf3f480f8d633942495c3b0>@@@Z 000000018002ef9c     libucrt:onexit.obj
 0002:0000bfcc       $unwind$terminate          000000018002efcc     libucrt:terminate.obj
 0002:0000bfec       $unwind$??$parse_integer@KV?$c_string_character_source@D@__crt_strtox@@@__crt_strtox@@YAKQEAU__crt_locale_pointers@@V?$c_string_character_source@D@0@H_N@Z 000000018002efec     libucrt:atox.obj
 0002:0000c008       $unwind$??$parse_integer@KV?$c_string_character_source@_W@__crt_strtox@@@__crt_strtox@@YAKQEAU__crt_locale_pointers@@V?$c_string_character_source@_W@0@H_N@Z 000000018002f008     libucrt:atox.obj
 0002:0000c024       $unwind$__acrt_call_reportfault 000000018002f024     libucrt:invalid_parameter.obj
 0002:0000c044       $unwind$?common_lseek_do_seek_nolock@@YAJQEAXJH@Z 000000018002f044     libucrt:lseek.obj
 0002:0000c054       $unwind$??$common_lseek@J@@YAJHJH@Z 000000018002f054     libucrt:lseek.obj
 0002:0000c084       $unwind$??$common_lseek@_J@@YA_JH_JH@Z 000000018002f084     libucrt:lseek.obj
 0002:0000c0b4       $unwind$_read              000000018002f0b4     libucrt:read.obj
 0002:0000c0e0       $unwind$_read_nolock       000000018002f0e0     libucrt:read.obj
 0002:0000c0f8       $unwind$?translate_ansi_or_utf8_nolock@@YAHHQEAD_KQEA_W1@Z 000000018002f0f8     libucrt:read.obj
 0002:0000c110       $unwind$??$translate_text_mode_nolock@_W@@YAHHQEA_W_K@Z 000000018002f110     libucrt:read.obj
 0002:0000c128       $unwind$__acrt_initialize_lowio 000000018002f128     libucrt:ioinit.obj
 0002:0000c148       $unwind$?initialize_inherited_file_handles_nolock@@YAXXZ 000000018002f148     libucrt:ioinit.obj
 0002:0000c164       $unwind$?__acrt_stdio_allocate_stream@@YA?AV__crt_stdio_stream@@XZ 000000018002f164     libucrt:stream.obj
 0002:0000c184       $unwind$_openfile          000000018002f184     libucrt:openfile.obj
 0002:0000c198       $unwind$??$__acrt_stdio_parse_mode@D@@YA?AU__acrt_stdio_stream_mode@@QEBD@Z 000000018002f198     libucrt:openfile.obj
 0002:0000c198       $unwind$strerror           000000018002f198     libucrt:strerror.obj
 0002:0000c1a4       $unwind$__acrt_is_interactive 000000018002f1a4     libucrt:winapi_thunks.obj
 0002:0000c1b8       $unwind$_fcloseall         000000018002f1b8     libucrt:closeall.obj
 0002:0000c1dc       $unwind$_commit            000000018002f1dc     libucrt:commit.obj
 0002:0000c1dc       $unwind$_close             000000018002f1dc     libucrt:close.obj
 0002:0000c1e4       $unwind$??$?RV<lambda_b521505b218e5242e90febf6bfebc422>@@AEAV<lambda_6978c1fb23f02e42e1d9e99668cc68aa>@@V<lambda_314360699dd331753a4119843814e9a7>@@@?$__crt_seh_guarded_call@H@@QEAAH$$QEAV<lambda_b521505b218e5242e90febf6bfebc422>@@AEAV<lambda_6978c1fb23f02e42e1d9e99668cc68aa>@@$$QEAV<lambda_314360699dd331753a4119843814e9a7>@@@Z 000000018002f1e4     libucrt:commit.obj
 0002:0000c208       $unwind$_write             000000018002f208     libucrt:write.obj
 0002:0000c238       $unwind$_write_nolock      000000018002f238     libucrt:write.obj
 0002:0000c250       $unwind$?write_double_translated_ansi_nolock@@YA?AUwrite_result@?A0x9c548279@@HQEBDI@Z 000000018002f250     libucrt:write.obj
 0002:0000c270       $unwind$?write_text_ansi_nolock@@YA?AUwrite_result@?A0x9c548279@@HQEBDI@Z 000000018002f270     libucrt:write.obj
 0002:0000c270       $unwind$?write_text_utf16le_nolock@@YA?AUwrite_result@?A0x9c548279@@HQEBDI@Z 000000018002f270     libucrt:write.obj
 0002:0000c290       $unwind$?write_text_utf8_nolock@@YA?AUwrite_result@?A0x9c548279@@HQEBDI@Z 000000018002f290     libucrt:write.obj
 0002:0000c2b4       $unwind$??$?RV<lambda_bfedae4ebbf01fab1bb6dcc6a9e276e0>@@AEAV<lambda_2fe9b910cf3cbf4a0ab98a02ba45b3ec>@@V<lambda_237c231691f317818eb88cc1d5d642d6>@@@?$__crt_seh_guarded_call@H@@QEAAH$$QEAV<lambda_bfedae4ebbf01fab1bb6dcc6a9e276e0>@@AEAV<lambda_2fe9b910cf3cbf4a0ab98a02ba45b3ec>@@$$QEAV<lambda_237c231691f317818eb88cc1d5d642d6>@@@Z 000000018002f2b4     libucrt:close.obj
 0002:0000c2d8       $unwind$_tolower_l         000000018002f2d8     libucrt:tolower_toupper.obj
 0002:0000c2e8       $unwind$_mbtowc_l          000000018002f2e8     libucrt:mbtowc.obj
 0002:0000c2e8       $unwind$__acrt_LCMapStringEx 000000018002f2e8     libucrt:winapi_thunks.obj
 0002:0000c2e8       $unwind$__acrt_show_wide_message_box 000000018002f2e8     libucrt:crtmbox.obj
 0002:0000c300       $unwind$_itow_s            000000018002f300     libucrt:xtoa.obj
 0002:0000c300       $unwind$_sopen_s           000000018002f300     libucrt:open.obj
 0002:0000c300       $unwind$_invalid_parameter_noinfo 000000018002f300     libucrt:invalid_parameter.obj
 0002:0000c300       $unwind$wctomb_s           000000018002f300     libucrt:wctomb.obj
 0002:0000c300       $unwind$_log10_special     000000018002f300     libucrt:log_special.obj
 0002:0000c300       $unwind$fread              000000018002f300     libucrt:fread.obj
 0002:0000c308       $unwind$_wctomb_s_l        000000018002f308     libucrt:wctomb.obj
 0002:0000c318       $unwind$strnlen            000000018002f318     libucrt:strnlen.obj
 0002:0000c318       $unwind$wcsnlen            000000018002f318     libucrt:strnlen.obj
 0002:0000c320       $unwind$?construct_ptd_array@@YAXQEAU__acrt_ptd@@@Z 000000018002f320     libucrt:per_thread_data.obj
 0002:0000c328       $unwind$?destroy_ptd_array@@YAXQEAU__acrt_ptd@@@Z 000000018002f328     libucrt:per_thread_data.obj
 0002:0000c330       $unwind$??$?RV<lambda_72d1df2b273a38828b1ce30cbf4cdab5>@@AEAV<lambda_876a65b173b8412d3a47c70a915b0cf4>@@V<lambda_41932305e351933ebe8f8be3ed8bb5dc>@@@?$__crt_seh_guarded_call@X@@QEAAX$$QEAV<lambda_72d1df2b273a38828b1ce30cbf4cdab5>@@AEAV<lambda_876a65b173b8412d3a47c70a915b0cf4>@@$$QEAV<lambda_41932305e351933ebe8f8be3ed8bb5dc>@@@Z 000000018002f330     libucrt:per_thread_data.obj
 0002:0000c354       $unwind$??$?RV<lambda_5e887d1dcbef67a5eb4283622ba103bf>@@AEAV<lambda_4466841279450cc726390878d4a41900>@@V<lambda_341c25c0346d94847f1f3c463c57e077>@@@?$__crt_seh_guarded_call@X@@QEAAX$$QEAV<lambda_5e887d1dcbef67a5eb4283622ba103bf>@@AEAV<lambda_4466841279450cc726390878d4a41900>@@$$QEAV<lambda_341c25c0346d94847f1f3c463c57e077>@@@Z 000000018002f354     libucrt:per_thread_data.obj
 0002:0000c378       $unwind$??$?RV<lambda_46352004c1216016012b18bd6f87e700>@@AEAV<lambda_3bd07e1a1191394380780325891bf33f>@@V<lambda_334532d3f185bcaa59b5be82d7d22bff>@@@?$__crt_seh_guarded_call@X@@QEAAX$$QEAV<lambda_46352004c1216016012b18bd6f87e700>@@AEAV<lambda_3bd07e1a1191394380780325891bf33f>@@$$QEAV<lambda_334532d3f185bcaa59b5be82d7d22bff>@@@Z 000000018002f378     libucrt:per_thread_data.obj
 0002:0000c39c       $unwind$??$?RV<lambda_fb3a7dec4e47f37f22dae91bb15c9095>@@AEAV<lambda_698284760c8add0bfb0756c19673e34b>@@V<lambda_dfb8eca1e75fef3034a8fb18dd509707>@@@?$__crt_seh_guarded_call@X@@QEAAX$$QEAV<lambda_fb3a7dec4e47f37f22dae91bb15c9095>@@AEAV<lambda_698284760c8add0bfb0756c19673e34b>@@$$QEAV<lambda_dfb8eca1e75fef3034a8fb18dd509707>@@@Z 000000018002f39c     libucrt:per_thread_data.obj
 0002:0000c3c0       $unwind$__acrt_fp_format   000000018002f3c0     libucrt:cvt.obj
 0002:0000c3dc       $unwind$?fp_format_nan_or_infinity@@YAHW4__acrt_fp_class@@_NPEAD_K1@Z 000000018002f3dc     libucrt:cvt.obj
 0002:0000c3f0       $unwind$?fp_format_e_internal@@YAHQEAD_KH_NIQEAU_strflt@@2QEAU__crt_locale_pointers@@@Z 000000018002f3f0     libucrt:cvt.obj
 0002:0000c408       $unwind$_sopen_nolock      000000018002f408     libucrt:open.obj
 0002:0000c408       $unwind$?fp_format_e@@YAHQEBNQEAD_K12H_NIQEAU__crt_locale_pointers@@@Z 000000018002f408     libucrt:cvt.obj
 0002:0000c41c       $unwind$?fp_format_a@@YAHQEBNPEAD_KQEAD2H_NIQEAU__crt_locale_pointers@@@Z 000000018002f41c     libucrt:cvt.obj
 0002:0000c438       $unwind$__dcrt_get_narrow_environment_from_os 000000018002f438     libucrt:get_environment_from_os.obj
 0002:0000c438       $unwind$?fp_format_f_internal@@YAHQEAD_KHQEAU_strflt@@_NQEAU__crt_locale_pointers@@@Z 000000018002f438     libucrt:cvt.obj
 0002:0000c450       $unwind$?fp_format_g@@YAHQEBNQEAD_K12H_NIQEAU__crt_locale_pointers@@@Z 000000018002f450     libucrt:cvt.obj
 0002:0000c464       $unwind$_fputwc_nolock     000000018002f464     libucrt:fputwc.obj
 0002:0000c480       $unwind$__vcrt_uninitialize_winapi_thunks 000000018002f480     libvcruntime:winapi_downlevel.obj
 0002:0000c480       $unwind$__acrt_stdio_end_temporary_buffering_nolock 000000018002f480     libucrt:_sftbuf.obj
 0002:0000c488       $unwind$__acrt_uninitialize_locale 000000018002f488     libucrt:wsetlocale.obj
 0002:0000c4a8       $unwind$??$write_buffer_nolock@D@@YA_NDV__crt_stdio_stream@@@Z 000000018002f4a8     libucrt:_flsbuf.obj
 0002:0000c4b8       $unwind$??$write_buffer_nolock@_W@@YA_N_WV__crt_stdio_stream@@@Z 000000018002f4b8     libucrt:_flsbuf.obj
 0002:0000c4c8       $unwind$setvbuf            000000018002f4c8     libucrt:setvbuf.obj
 0002:0000c4d0       $unwind$??$?RV<lambda_7a5ef57ff966f610505f1d28a3d40618>@@AEAV<lambda_b721fa326cdb32351d23dfa67958c160>@@V<lambda_5e0fb27672408a07956fe59e48ccb2aa>@@@?$__crt_seh_guarded_call@H@@QEAAH$$QEAV<lambda_7a5ef57ff966f610505f1d28a3d40618>@@AEAV<lambda_b721fa326cdb32351d23dfa67958c160>@@$$QEAV<lambda_5e0fb27672408a07956fe59e48ccb2aa>@@@Z 000000018002f4d0     libucrt:setvbuf.obj
 0002:0000c4f4       $unwind$__acrt_get_sigabrt_handler 000000018002f4f4     libucrt:signal.obj
 0002:0000c4fc       $unwind$raise              000000018002f4fc     libucrt:signal.obj
 0002:0000c528       $unwind$??$?RV<lambda_c36588078e9f5dfd39652860aa6b3aaf>@@AEAV<lambda_ec61778202f4f5fc7e7711acc23c3bca>@@V<lambda_dc9d2797ccde5d239b4a0efae8ebd7db>@@@?$__crt_seh_guarded_call@P6AXH@Z@@QEAAP6AXH@Z$$QEAV<lambda_c36588078e9f5dfd39652860aa6b3aaf>@@AEAV<lambda_ec61778202f4f5fc7e7711acc23c3bca>@@$$QEAV<lambda_dc9d2797ccde5d239b4a0efae8ebd7db>@@@Z 000000018002f528     libucrt:signal.obj
 0002:0000c54c       $unwind$__acrt_update_thread_multibyte_data 000000018002f54c     libucrt:mbctype.obj
 0002:0000c570       $unwind$_setmbcp_nolock    000000018002f570     libucrt:mbctype.obj
 0002:0000c590       $unwind$?setSBUpLow@@YAXPEAU__crt_multibyte_data@@@Z 000000018002f590     libucrt:mbctype.obj
 0002:0000c5ac       $unwind$?setmbcp_internal@@YAHH_N@Z 000000018002f5ac     libucrt:mbctype.obj
 0002:0000c5bc       $unwind$??$?RV<lambda_99476a1ad63dd22509b5d3e65b0ffc95>@@AEAV<lambda_ad1ced32f4ac17aa236e5ef05d6b3b7c>@@V<lambda_f7424dd8d45958661754dc4f2697e9c3>@@@?$__crt_seh_guarded_call@X@@QEAAX$$QEAV<lambda_99476a1ad63dd22509b5d3e65b0ffc95>@@AEAV<lambda_ad1ced32f4ac17aa236e5ef05d6b3b7c>@@$$QEAV<lambda_f7424dd8d45958661754dc4f2697e9c3>@@@Z 000000018002f5bc     libucrt:mbctype.obj
 0002:0000c5e0       $unwind$_isctype_l         000000018002f5e0     libucrt:isctype.obj
 0002:0000c5fc       $unwind$_alloc_osfhnd      000000018002f5fc     libucrt:osfinfo.obj
 0002:0000c62c       $unwind$__acrt_lowio_destroy_handle_array 000000018002f62c     libucrt:osfinfo.obj
 0002:0000c63c       $unwind$__acrt_lowio_ensure_fh_exists 000000018002f63c     libucrt:osfinfo.obj
 0002:0000c668       $xdatasym                  000000018002f668     libucrt:strncmp.obj
 0002:0000c66c       $unwind$_strnicmp_l        000000018002f66c     libucrt:strnicmp.obj
 0002:0000c680       $unwind$_wsopen_nolock     000000018002f680     libucrt:open.obj
 0002:0000c69c       $unwind$??$common_sopen_dispatch@D@@YAHQEBDHHHQEAHH@Z 000000018002f69c     libucrt:open.obj
 0002:0000c6c0       $unwind$?fin$0@?0???$common_sopen_dispatch@D@@YAHQEBDHHHQEAHH@Z@4HA 000000018002f6c0     libucrt:open.obj
 0002:0000c6c8       $unwind$?decode_options@@YA?AUfile_options@?A0x656cf9f4@@HHH@Z 000000018002f6c8     libucrt:open.obj
 0002:0000c6dc       $unwind$?type_case_c_tchar@?$output_processor@_WV?$stream_output_adapter@_W@__crt_stdio_output@@V?$standard_base@_WV?$stream_output_adapter@_W@__crt_stdio_output@@@2@@__crt_stdio_output@@AEAA_N_W@Z 000000018002f6dc     libucrt:output.obj
 0002:0000c6dc       $unwind$??R<lambda_b721fa326cdb32351d23dfa67958c160>@@QEBAHXZ 000000018002f6dc     libucrt:setvbuf.obj
 0002:0000c6dc       $unwind$?truncate_ctrl_z_if_present@@YAHH@Z 000000018002f6dc     libucrt:open.obj
 0002:0000c6dc       $unwind$?type_case_c_tchar@?$output_processor@_WV?$string_output_adapter@_W@__crt_stdio_output@@V?$standard_base@_WV?$string_output_adapter@_W@__crt_stdio_output@@@2@@__crt_stdio_output@@AEAA_N_W@Z 000000018002f6dc     libucrt:output.obj
 0002:0000c6ec       $unwind$?GetTableIndexFromLocaleName@@YAHPEB_W@Z 000000018002f6ec     libucrt:lcidtoname_downlevel.obj
 0002:0000c704       $unwind$__acrt_LCMapStringA 000000018002f704     libucrt:lcmapstringa.obj
 0002:0000c714       $unwind$?__acrt_LCMapStringA_stat@@YAHPEAU__crt_locale_pointers@@PEB_WKPEBDHPEADHHH@Z 000000018002f714     libucrt:lcmapstringa.obj
 0002:0000c73c       $unwind$__acrt_update_thread_locale_data 000000018002f73c     libucrt:locale_refcounting.obj
 0002:0000c760       $unwind$__acrt_fltout      000000018002f760     libucrt:cfout.obj
 0002:0000c780       $unwind$?divide@__crt_strtox@@YA_KAEAUbig_integer@1@AEBU21@@Z 000000018002f780     libucrt:cfout.obj
 0002:0000c7a0       $chain$5$?divide@__crt_strtox@@YA_KAEAUbig_integer@1@AEBU21@@Z 000000018002f7a0     libucrt:cfout.obj
 0002:0000c7b4       $chain$6$?divide@__crt_strtox@@YA_KAEAUbig_integer@1@AEBU21@@Z 000000018002f7b4     libucrt:cfout.obj
 0002:0000c7c4       $unwind$__acrt_locale_free_monetary 000000018002f7c4     libucrt:initmon.obj
 0002:0000c7cc       $unwind$__acrt_locale_free_time 000000018002f7cc     libucrt:inittime.obj
 0002:0000c7dc       $unwind$__acrt_GetStringTypeA 000000018002f7dc     libucrt:getstringtypea.obj
 0002:0000c804       $unwind$_setmode_nolock    000000018002f804     libucrt:setmode.obj
 0002:0000c814       $unwind$_chsize_nolock     000000018002f814     libucrt:chsize.obj
 0002:0000c814       $unwind$?write_string@?$stream_output_adapter@D@__crt_stdio_output@@QEBAXQEBDHQEAH1@Z 000000018002f814     libucrt:output.obj
 0002:0000c830       $xdatasym                  000000018002f830     libucrt:log10.obj
 0002:0000c83c       $unwind$common_control87   000000018002f83c     libucrt:ieee.obj
 0002:0000c86c       $unwind$_call_matherr      000000018002f86c     libucrt:libm_error.obj
 0002:0000c874       $unwind$_handle_error      000000018002f874     libucrt:libm_error.obj
 0002:0000c894       $unwind$__acrt_initialize_fma3 000000018002f894     libucrt:fma3_available.obj
 0002:0000c89c       $unwind$_log_special_common 000000018002f89c     libucrt:log_special.obj
 0002:0000c8a8       $xdatasym                  000000018002f8a8     libucrt:fpsr.obj
 0002:0000c8b0       $unwind$_ctrlfp            000000018002f8b0     libucrt:fpctrl.obj
 0002:0000c8d8       $unwind$?DloadObtainSection@@YAPEAXPEAK0@Z 000000018002f8d8     DelayImp:delayhlp.obj
 0002:0000c8e8       $unwind$?DloadMakePermanentImageCommit@@YAXPEAX_K@Z 000000018002f8e8     DelayImp:delayhlp.obj
 0002:0000c8f4       $unwind$?DloadProtectSection@@YAXKPEAK@Z 000000018002f8f4     DelayImp:delayhlp.obj
 0002:0000c904       $unwind$__delayLoadHelper2 000000018002f904     DelayImp:delayhlp.obj
 0002:0000c91c       $unwind$_IsNonwritableInCurrentImage 000000018002f91c     LIBCMT:pesect.obj
 0002:0000c940       $unwind$__GSHandlerCheckCommon 000000018002f940     LIBCMT:_gshandler_.obj
 0002:0000c948       $xdatasym                  000000018002f948     LIBCMT:_chkstk_.obj
 0002:0000c950       $xdatasym                  000000018002f950     libvcruntime:memcpy.obj
 0002:0000c958       $xdatasym                  000000018002f958     libvcruntime:memcmp.obj
 0002:0000f8e0       .edata                     00000001800328e0     WebWorkerThreads.exp
 0002:0000f908       rgpv                       0000000180032908     WebWorkerThreads.exp
 0002:0000fdf4       rgszName                   0000000180032df4     WebWorkerThreads.exp
 0002:000102e0       rgwOrd                     00000001800332e0     WebWorkerThreads.exp
 0002:00010556       szName                     0000000180033556     WebWorkerThreads.exp
 0002:0001056c       $N00001                    000000018003356c     WebWorkerThreads.exp
 0002:00010599       $N00002                    0000000180033599     WebWorkerThreads.exp
 0002:000105be       $N00003                    00000001800335be     WebWorkerThreads.exp
 0002:000105e7       $N00004                    00000001800335e7     WebWorkerThreads.exp
 0002:0001060b       $N00005                    000000018003360b     WebWorkerThreads.exp
 0002:00010635       $N00006                    0000000180033635     WebWorkerThreads.exp
 0002:00010663       $N00007                    0000000180033663     WebWorkerThreads.exp
 0002:00010689       $N00008                    0000000180033689     WebWorkerThreads.exp
 0002:000106bd       $N00009                    00000001800336bd     WebWorkerThreads.exp
 0002:000106f4       $N00010                    00000001800336f4     WebWorkerThreads.exp
 0002:00010725       $N00011                    0000000180033725     WebWorkerThreads.exp
 0002:00010753       $N00012                    0000000180033753     WebWorkerThreads.exp
 0002:0001077a       $N00013                    000000018003377a     WebWorkerThreads.exp
 0002:000107b5       $N00014                    00000001800337b5     WebWorkerThreads.exp
 0002:000107e8       $N00015                    00000001800337e8     WebWorkerThreads.exp
 0002:00010815       $N00016                    0000000180033815     WebWorkerThreads.exp
 0002:00010846       $N00017                    0000000180033846     WebWorkerThreads.exp
 0002:00010861       $N00018                    0000000180033861     WebWorkerThreads.exp
 0002:00010885       $N00019                    0000000180033885     WebWorkerThreads.exp
 0002:000108b3       $N00020                    00000001800338b3     WebWorkerThreads.exp
 0002:000108da       $N00021                    00000001800338da     WebWorkerThreads.exp
 0002:000108fe       $N00022                    00000001800338fe     WebWorkerThreads.exp
 0002:00010924       $N00023                    0000000180033924     WebWorkerThreads.exp
 0002:00010949       $N00024                    0000000180033949     WebWorkerThreads.exp
 0002:0001096d       $N00025                    000000018003396d     WebWorkerThreads.exp
 0002:00010986       $N00026                    0000000180033986     WebWorkerThreads.exp
 0002:000109ba       $N00027                    00000001800339ba     WebWorkerThreads.exp
 0002:000109eb       $N00028                    00000001800339eb     WebWorkerThreads.exp
 0002:00010a12       $N00029                    0000000180033a12     WebWorkerThreads.exp
 0002:00010a45       $N00030                    0000000180033a45     WebWorkerThreads.exp
 0002:00010a72       $N00031                    0000000180033a72     WebWorkerThreads.exp
 0002:00010aa3       $N00032                    0000000180033aa3     WebWorkerThreads.exp
 0002:00010aca       $N00033                    0000000180033aca     WebWorkerThreads.exp
 0002:00010ae7       $N00034                    0000000180033ae7     WebWorkerThreads.exp
 0002:00010b17       $N00035                    0000000180033b17     WebWorkerThreads.exp
 0002:00010b45       $N00036                    0000000180033b45     WebWorkerThreads.exp
 0002:00010b79       $N00037                    0000000180033b79     WebWorkerThreads.exp
 0002:00010b9d       $N00038                    0000000180033b9d     WebWorkerThreads.exp
 0002:00010bbf       $N00039                    0000000180033bbf     WebWorkerThreads.exp
 0002:00010be9       $N00040                    0000000180033be9     WebWorkerThreads.exp
 0002:00010c11       $N00041                    0000000180033c11     WebWorkerThreads.exp
 0002:00010c3f       $N00042                    0000000180033c3f     WebWorkerThreads.exp
 0002:00010c6b       $N00043                    0000000180033c6b     WebWorkerThreads.exp
 0002:00010c91       $N00044                    0000000180033c91     WebWorkerThreads.exp
 0002:00010cb5       $N00045                    0000000180033cb5     WebWorkerThreads.exp
 0002:00010ce1       $N00046                    0000000180033ce1     WebWorkerThreads.exp
 0002:00010d0b       $N00047                    0000000180033d0b     WebWorkerThreads.exp
 0002:00010d40       $N00048                    0000000180033d40     WebWorkerThreads.exp
 0002:00010d73       $N00049                    0000000180033d73     WebWorkerThreads.exp
 0002:00010dae       $N00050                    0000000180033dae     WebWorkerThreads.exp
 0002:00010de7       $N00051                    0000000180033de7     WebWorkerThreads.exp
 0002:00010e0d       $N00052                    0000000180033e0d     WebWorkerThreads.exp
 0002:00010e31       $N00053                    0000000180033e31     WebWorkerThreads.exp
 0002:00010e54       $N00054                    0000000180033e54     WebWorkerThreads.exp
 0002:00010e75       $N00055                    0000000180033e75     WebWorkerThreads.exp
 0002:00010e9c       $N00056                    0000000180033e9c     WebWorkerThreads.exp
 0002:00010ec1       $N00057                    0000000180033ec1     WebWorkerThreads.exp
 0002:00010ee4       $N00058                    0000000180033ee4     WebWorkerThreads.exp
 0002:00010f05       $N00059                    0000000180033f05     WebWorkerThreads.exp
 0002:00010f2d       $N00060                    0000000180033f2d     WebWorkerThreads.exp
 0002:00010f53       $N00061                    0000000180033f53     WebWorkerThreads.exp
 0002:00010f7a       $N00062                    0000000180033f7a     WebWorkerThreads.exp
 0002:00010f9f       $N00063                    0000000180033f9f     WebWorkerThreads.exp
 0002:00010fd3       $N00064                    0000000180033fd3     WebWorkerThreads.exp
 0002:00011015       $N00065                    0000000180034015     WebWorkerThreads.exp
 0002:00011040       $N00066                    0000000180034040     WebWorkerThreads.exp
 0002:00011069       $N00067                    0000000180034069     WebWorkerThreads.exp
 0002:00011094       $N00068                    0000000180034094     WebWorkerThreads.exp
 0002:000110bd       $N00069                    00000001800340bd     WebWorkerThreads.exp
 0002:000110e4       $N00070                    00000001800340e4     WebWorkerThreads.exp
 0002:00011109       $N00071                    0000000180034109     WebWorkerThreads.exp
 0002:00011138       $N00072                    0000000180034138     WebWorkerThreads.exp
 0002:00011165       $N00073                    0000000180034165     WebWorkerThreads.exp
 0002:00011198       $N00074                    0000000180034198     WebWorkerThreads.exp
 0002:000111c9       $N00075                    00000001800341c9     WebWorkerThreads.exp
 0002:000111fb       $N00076                    00000001800341fb     WebWorkerThreads.exp
 0002:0001122b       $N00077                    000000018003422b     WebWorkerThreads.exp
 0002:00011258       $N00078                    0000000180034258     WebWorkerThreads.exp
 0002:00011283       $N00079                    0000000180034283     WebWorkerThreads.exp
 0002:000112ac       $N00080                    00000001800342ac     WebWorkerThreads.exp
 0002:000112d3       $N00081                    00000001800342d3     WebWorkerThreads.exp
 0002:000112f7       $N00082                    00000001800342f7     WebWorkerThreads.exp
 0002:00011319       $N00083                    0000000180034319     WebWorkerThreads.exp
 0002:00011342       $N00084                    0000000180034342     WebWorkerThreads.exp
 0002:00011369       $N00085                    0000000180034369     WebWorkerThreads.exp
 0002:00011391       $N00086                    0000000180034391     WebWorkerThreads.exp
 0002:000113b7       $N00087                    00000001800343b7     WebWorkerThreads.exp
 0002:000113dd       $N00088                    00000001800343dd     WebWorkerThreads.exp
 0002:00011401       $N00089                    0000000180034401     WebWorkerThreads.exp
 0002:00011424       $N00090                    0000000180034424     WebWorkerThreads.exp
 0002:00011445       $N00091                    0000000180034445     WebWorkerThreads.exp
 0002:00011467       $N00092                    0000000180034467     WebWorkerThreads.exp
 0002:00011487       $N00093                    0000000180034487     WebWorkerThreads.exp
 0002:000114ad       $N00094                    00000001800344ad     WebWorkerThreads.exp
 0002:000114d1       $N00095                    00000001800344d1     WebWorkerThreads.exp
 0002:000114f4       $N00096                    00000001800344f4     WebWorkerThreads.exp
 0002:00011515       $N00097                    0000000180034515     WebWorkerThreads.exp
 0002:00011541       $N00098                    0000000180034541     WebWorkerThreads.exp
 0002:0001156b       $N00099                    000000018003456b     WebWorkerThreads.exp
 0002:00011590       $N00100                    0000000180034590     WebWorkerThreads.exp
 0002:000115b3       $N00101                    00000001800345b3     WebWorkerThreads.exp
 0002:000115de       $N00102                    00000001800345de     WebWorkerThreads.exp
 0002:00011607       $N00103                    0000000180034607     WebWorkerThreads.exp
 0002:0001162c       $N00104                    000000018003462c     WebWorkerThreads.exp
 0002:0001164f       $N00105                    000000018003464f     WebWorkerThreads.exp
 0002:0001167c       $N00106                    000000018003467c     WebWorkerThreads.exp
 0002:000116a7       $N00107                    00000001800346a7     WebWorkerThreads.exp
 0002:000116db       $N00108                    00000001800346db     WebWorkerThreads.exp
 0002:00011703       $N00109                    0000000180034703     WebWorkerThreads.exp
 0002:00011729       $N00110                    0000000180034729     WebWorkerThreads.exp
 0002:0001174f       $N00111                    000000018003474f     WebWorkerThreads.exp
 0002:00011773       $N00112                    0000000180034773     WebWorkerThreads.exp
 0002:00011798       $N00113                    0000000180034798     WebWorkerThreads.exp
 0002:000117bb       $N00114                    00000001800347bb     WebWorkerThreads.exp
 0002:000117ec       $N00115                    00000001800347ec     WebWorkerThreads.exp
 0002:0001181b       $N00116                    000000018003481b     WebWorkerThreads.exp
 0002:0001184d       $N00117                    000000018003484d     WebWorkerThreads.exp
 0002:0001187d       $N00118                    000000018003487d     WebWorkerThreads.exp
 0002:000118a2       $N00119                    00000001800348a2     WebWorkerThreads.exp
 0002:000118c5       $N00120                    00000001800348c5     WebWorkerThreads.exp
 0002:000118f2       $N00121                    00000001800348f2     WebWorkerThreads.exp
 0002:0001191d       $N00122                    000000018003491d     WebWorkerThreads.exp
 0002:0001193f       $N00123                    000000018003493f     WebWorkerThreads.exp
 0002:0001195f       $N00124                    000000018003495f     WebWorkerThreads.exp
 0002:0001198f       $N00125                    000000018003498f     WebWorkerThreads.exp
 0002:000119bd       $N00126                    00000001800349bd     WebWorkerThreads.exp
 0002:000119e5       $N00127                    00000001800349e5     WebWorkerThreads.exp
 0002:00011a0b       $N00128                    0000000180034a0b     WebWorkerThreads.exp
 0002:00011a34       $N00129                    0000000180034a34     WebWorkerThreads.exp
 0002:00011a5b       $N00130                    0000000180034a5b     WebWorkerThreads.exp
 0002:00011a84       $N00131                    0000000180034a84     WebWorkerThreads.exp
 0002:00011aab       $N00132                    0000000180034aab     WebWorkerThreads.exp
 0002:00011ad5       $N00133                    0000000180034ad5     WebWorkerThreads.exp
 0002:00011afd       $N00134                    0000000180034afd     WebWorkerThreads.exp
 0002:00011b22       $N00135                    0000000180034b22     WebWorkerThreads.exp
 0002:00011b45       $N00136                    0000000180034b45     WebWorkerThreads.exp
 0002:00011b70       $N00137                    0000000180034b70     WebWorkerThreads.exp
 0002:00011b99       $N00138                    0000000180034b99     WebWorkerThreads.exp
 0002:00011bbe       $N00139                    0000000180034bbe     WebWorkerThreads.exp
 0002:00011be1       $N00140                    0000000180034be1     WebWorkerThreads.exp
 0002:00011c0c       $N00141                    0000000180034c0c     WebWorkerThreads.exp
 0002:00011c35       $N00142                    0000000180034c35     WebWorkerThreads.exp
 0002:00011c5c       $N00143                    0000000180034c5c     WebWorkerThreads.exp
 0002:00011c81       $N00144                    0000000180034c81     WebWorkerThreads.exp
 0002:00011caa       $N00145                    0000000180034caa     WebWorkerThreads.exp
 0002:00011cd1       $N00146                    0000000180034cd1     WebWorkerThreads.exp
 0002:00011cfa       $N00147                    0000000180034cfa     WebWorkerThreads.exp
 0002:00011d21       $N00148                    0000000180034d21     WebWorkerThreads.exp
 0002:00011d4b       $N00149                    0000000180034d4b     WebWorkerThreads.exp
 0002:00011d73       $N00150                    0000000180034d73     WebWorkerThreads.exp
 0002:00011d98       $N00151                    0000000180034d98     WebWorkerThreads.exp
 0002:00011dbb       $N00152                    0000000180034dbb     WebWorkerThreads.exp
 0002:00011de5       $N00153                    0000000180034de5     WebWorkerThreads.exp
 0002:00011e0d       $N00154                    0000000180034e0d     WebWorkerThreads.exp
 0002:00011e36       $N00155                    0000000180034e36     WebWorkerThreads.exp
 0002:00011e5d       $N00156                    0000000180034e5d     WebWorkerThreads.exp
 0002:00011e8d       $N00157                    0000000180034e8d     WebWorkerThreads.exp
 0002:00011ebb       $N00158                    0000000180034ebb     WebWorkerThreads.exp
 0002:00011ee7       $N00159                    0000000180034ee7     WebWorkerThreads.exp
 0002:00011f11       $N00160                    0000000180034f11     WebWorkerThreads.exp
 0002:00011f36       $N00161                    0000000180034f36     WebWorkerThreads.exp
 0002:00011f57       $N00162                    0000000180034f57     WebWorkerThreads.exp
 0002:00011f76       $N00163                    0000000180034f76     WebWorkerThreads.exp
 0002:00011f9a       $N00164                    0000000180034f9a     WebWorkerThreads.exp
 0002:00011fbc       $N00165                    0000000180034fbc     WebWorkerThreads.exp
 0002:00011fdf       $N00166                    0000000180034fdf     WebWorkerThreads.exp
 0002:00012002       $N00167                    0000000180035002     WebWorkerThreads.exp
 0002:00012021       $N00168                    0000000180035021     WebWorkerThreads.exp
 0002:00012040       $N00169                    0000000180035040     WebWorkerThreads.exp
 0002:00012062       $N00170                    0000000180035062     WebWorkerThreads.exp
 0002:00012078       $N00171                    0000000180035078     WebWorkerThreads.exp
 0002:000120a9       $N00172                    00000001800350a9     WebWorkerThreads.exp
 0002:000120d7       $N00173                    00000001800350d7     WebWorkerThreads.exp
 0002:000120fb       $N00174                    00000001800350fb     WebWorkerThreads.exp
 0002:0001212b       $N00175                    000000018003512b     WebWorkerThreads.exp
 0002:00012155       $N00176                    0000000180035155     WebWorkerThreads.exp
 0002:00012183       $N00177                    0000000180035183     WebWorkerThreads.exp
 0002:000121a7       $N00178                    00000001800351a7     WebWorkerThreads.exp
 0002:000121ff       $N00179                    00000001800351ff     WebWorkerThreads.exp
 0002:00012258       $N00180                    0000000180035258     WebWorkerThreads.exp
 0002:00012296       $N00181                    0000000180035296     WebWorkerThreads.exp
 0002:000122c4       $N00182                    00000001800352c4     WebWorkerThreads.exp
 0002:000122f8       $N00183                    00000001800352f8     WebWorkerThreads.exp
 0002:0001232d       $N00184                    000000018003532d     WebWorkerThreads.exp
 0002:00012355       $N00185                    0000000180035355     WebWorkerThreads.exp
 0002:00012383       $N00186                    0000000180035383     WebWorkerThreads.exp
 0002:000123b5       $N00187                    00000001800353b5     WebWorkerThreads.exp
 0002:000123df       $N00188                    00000001800353df     WebWorkerThreads.exp
 0002:0001240f       $N00189                    000000018003540f     WebWorkerThreads.exp
 0002:0001243a       $N00190                    000000018003543a     WebWorkerThreads.exp
 0002:00012461       $N00191                    0000000180035461     WebWorkerThreads.exp
 0002:0001248c       $N00192                    000000018003548c     WebWorkerThreads.exp
 0002:000124bb       $N00193                    00000001800354bb     WebWorkerThreads.exp
 0002:000124ea       $N00194                    00000001800354ea     WebWorkerThreads.exp
 0002:00012515       $N00195                    0000000180035515     WebWorkerThreads.exp
 0002:00012542       $N00196                    0000000180035542     WebWorkerThreads.exp
 0002:0001256a       $N00197                    000000018003556a     WebWorkerThreads.exp
 0002:00012597       $N00198                    0000000180035597     WebWorkerThreads.exp
 0002:000125c3       $N00199                    00000001800355c3     WebWorkerThreads.exp
 0002:000125ed       $N00200                    00000001800355ed     WebWorkerThreads.exp
 0002:00012613       $N00201                    0000000180035613     WebWorkerThreads.exp
 0002:0001263a       $N00202                    000000018003563a     WebWorkerThreads.exp
 0002:00012663       $N00203                    0000000180035663     WebWorkerThreads.exp
 0002:00012692       $N00204                    0000000180035692     WebWorkerThreads.exp
 0002:000126bb       $N00205                    00000001800356bb     WebWorkerThreads.exp
 0002:000126e5       $N00206                    00000001800356e5     WebWorkerThreads.exp
 0002:0001270e       $N00207                    000000018003570e     WebWorkerThreads.exp
 0002:00012742       $N00208                    0000000180035742     WebWorkerThreads.exp
 0002:00012768       $N00209                    0000000180035768     WebWorkerThreads.exp
 0002:0001279c       $N00210                    000000018003579c     WebWorkerThreads.exp
 0002:000127c5       $N00211                    00000001800357c5     WebWorkerThreads.exp
 0002:000127f4       $N00212                    00000001800357f4     WebWorkerThreads.exp
 0002:0001281d       $N00213                    000000018003581d     WebWorkerThreads.exp
 0002:0001284c       $N00214                    000000018003584c     WebWorkerThreads.exp
 0002:00012879       $N00215                    0000000180035879     WebWorkerThreads.exp
 0002:000128a7       $N00216                    00000001800358a7     WebWorkerThreads.exp
 0002:000128d0       $N00217                    00000001800358d0     WebWorkerThreads.exp
 0002:000128fe       $N00218                    00000001800358fe     WebWorkerThreads.exp
 0002:0001292b       $N00219                    000000018003592b     WebWorkerThreads.exp
 0002:0001295f       $N00220                    000000018003595f     WebWorkerThreads.exp
 0002:00012989       $N00221                    0000000180035989     WebWorkerThreads.exp
 0002:000129b9       $N00222                    00000001800359b9     WebWorkerThreads.exp
 0002:000129f0       $N00223                    00000001800359f0     WebWorkerThreads.exp
 0002:00012a2f       $N00224                    0000000180035a2f     WebWorkerThreads.exp
 0002:00012a6a       $N00225                    0000000180035a6a     WebWorkerThreads.exp
 0002:00012aa5       $N00226                    0000000180035aa5     WebWorkerThreads.exp
 0002:00012b02       $N00227                    0000000180035b02     WebWorkerThreads.exp
 0002:00012b23       $N00228                    0000000180035b23     WebWorkerThreads.exp
 0002:00012b61       $N00229                    0000000180035b61     WebWorkerThreads.exp
 0002:00012bac       $N00230                    0000000180035bac     WebWorkerThreads.exp
 0002:00012c10       $N00231                    0000000180035c10     WebWorkerThreads.exp
 0002:00012c2a       $N00232                    0000000180035c2a     WebWorkerThreads.exp
 0002:00012c68       $N00233                    0000000180035c68     WebWorkerThreads.exp
 0002:00012c99       $N00234                    0000000180035c99     WebWorkerThreads.exp
 0002:00012d13       $N00235                    0000000180035d13     WebWorkerThreads.exp
 0002:00012d3b       $N00236                    0000000180035d3b     WebWorkerThreads.exp
 0002:00012d84       $N00237                    0000000180035d84     WebWorkerThreads.exp
 0002:00012d9a       $N00238                    0000000180035d9a     WebWorkerThreads.exp
 0002:00012dce       $N00239                    0000000180035dce     WebWorkerThreads.exp
 0002:00012de9       $N00240                    0000000180035de9     WebWorkerThreads.exp
 0002:00012e06       $N00241                    0000000180035e06     WebWorkerThreads.exp
 0002:00012e26       $N00242                    0000000180035e26     WebWorkerThreads.exp
 0002:00012e5d       $N00243                    0000000180035e5d     WebWorkerThreads.exp
 0002:00012e9e       $N00244                    0000000180035e9e     WebWorkerThreads.exp
 0002:00012ef7       $N00245                    0000000180035ef7     WebWorkerThreads.exp
 0002:00012f17       $N00246                    0000000180035f17     WebWorkerThreads.exp
 0002:00012f39       $N00247                    0000000180035f39     WebWorkerThreads.exp
 0002:00012f5e       $N00248                    0000000180035f5e     WebWorkerThreads.exp
 0002:00012faa       $N00249                    0000000180035faa     WebWorkerThreads.exp
 0002:00012ff6       $N00250                    0000000180035ff6     WebWorkerThreads.exp
 0002:0001304f       $N00251                    000000018003604f     WebWorkerThreads.exp
 0002:000130aa       $N00252                    00000001800360aa     WebWorkerThreads.exp
 0002:000130ec       $N00253                    00000001800360ec     WebWorkerThreads.exp
 0002:00013144       $N00254                    0000000180036144     WebWorkerThreads.exp
 0002:000131a0       $N00255                    00000001800361a0     WebWorkerThreads.exp
 0002:000131c2       $N00256                    00000001800361c2     WebWorkerThreads.exp
 0002:00013239       $N00257                    0000000180036239     WebWorkerThreads.exp
 0002:00013267       $N00258                    0000000180036267     WebWorkerThreads.exp
 0002:00013380       $N00259                    0000000180036380     WebWorkerThreads.exp
 0002:000133af       $N00260                    00000001800363af     WebWorkerThreads.exp
 0002:000133e6       $N00261                    00000001800363e6     WebWorkerThreads.exp
 0002:00013421       $N00262                    0000000180036421     WebWorkerThreads.exp
 0002:00013454       $N00263                    0000000180036454     WebWorkerThreads.exp
 0002:0001348b       $N00264                    000000018003648b     WebWorkerThreads.exp
 0002:000134c0       $N00265                    00000001800364c0     WebWorkerThreads.exp
 0002:000134f5       $N00266                    00000001800364f5     WebWorkerThreads.exp
 0002:0001352a       $N00267                    000000018003652a     WebWorkerThreads.exp
 0002:0001355f       $N00268                    000000018003655f     WebWorkerThreads.exp
 0002:000135a2       $N00269                    00000001800365a2     WebWorkerThreads.exp
 0002:000135f3       $N00270                    00000001800365f3     WebWorkerThreads.exp
 0002:0001364e       $N00271                    000000018003664e     WebWorkerThreads.exp
 0002:000136a1       $N00272                    00000001800366a1     WebWorkerThreads.exp
 0002:000136e6       $N00273                    00000001800366e6     WebWorkerThreads.exp
 0002:0001376e       $N00274                    000000018003676e     WebWorkerThreads.exp
 0002:00013792       $N00275                    0000000180036792     WebWorkerThreads.exp
 0002:000137c2       $N00276                    00000001800367c2     WebWorkerThreads.exp
 0002:000137f4       $N00277                    00000001800367f4     WebWorkerThreads.exp
 0002:0001382b       $N00278                    000000018003682b     WebWorkerThreads.exp
 0002:00013855       $N00279                    0000000180036855     WebWorkerThreads.exp
 0002:0001387d       $N00280                    000000018003687d     WebWorkerThreads.exp
 0002:000138ab       $N00281                    00000001800368ab     WebWorkerThreads.exp
 0002:000138d8       $N00282                    00000001800368d8     WebWorkerThreads.exp
 0002:00013917       $N00283                    0000000180036917     WebWorkerThreads.exp
 0002:0001394e       $N00284                    000000018003694e     WebWorkerThreads.exp
 0002:00013973       $N00285                    0000000180036973     WebWorkerThreads.exp
 0002:00013994       $N00286                    0000000180036994     WebWorkerThreads.exp
 0002:000139cb       $N00287                    00000001800369cb     WebWorkerThreads.exp
 0002:00013a00       $N00288                    0000000180036a00     WebWorkerThreads.exp
 0002:00013a34       $N00289                    0000000180036a34     WebWorkerThreads.exp
 0002:00013a69       $N00290                    0000000180036a69     WebWorkerThreads.exp
 0002:00013a88       $N00291                    0000000180036a88     WebWorkerThreads.exp
 0002:00013ab8       $N00292                    0000000180036ab8     WebWorkerThreads.exp
 0002:00013ae7       $N00293                    0000000180036ae7     WebWorkerThreads.exp
 0002:00013b1c       $N00294                    0000000180036b1c     WebWorkerThreads.exp
 0002:00013b4d       $N00295                    0000000180036b4d     WebWorkerThreads.exp
 0002:00013b83       $N00296                    0000000180036b83     WebWorkerThreads.exp
 0002:00013bac       $N00297                    0000000180036bac     WebWorkerThreads.exp
 0002:00013be3       $N00298                    0000000180036be3     WebWorkerThreads.exp
 0002:00013c1f       $N00299                    0000000180036c1f     WebWorkerThreads.exp
 0002:00013c59       $N00300                    0000000180036c59     WebWorkerThreads.exp
 0002:00013c92       $N00301                    0000000180036c92     WebWorkerThreads.exp
 0002:00013ccc       $N00302                    0000000180036ccc     WebWorkerThreads.exp
 0002:00013d01       $N00303                    0000000180036d01     WebWorkerThreads.exp
 0002:00013d49       $N00304                    0000000180036d49     WebWorkerThreads.exp
 0002:00013d6f       $N00305                    0000000180036d6f     WebWorkerThreads.exp
 0002:00013da6       $N00306                    0000000180036da6     WebWorkerThreads.exp
 0002:00013dd5       $N00307                    0000000180036dd5     WebWorkerThreads.exp
 0002:00013e02       $N00308                    0000000180036e02     WebWorkerThreads.exp
 0002:00013e34       $N00309                    0000000180036e34     WebWorkerThreads.exp
 0002:00013e64       $N00310                    0000000180036e64     WebWorkerThreads.exp
 0002:00013e96       $N00311                    0000000180036e96     WebWorkerThreads.exp
 0002:00013ec3       $N00312                    0000000180036ec3     WebWorkerThreads.exp
 0002:00013efb       $N00313                    0000000180036efb     WebWorkerThreads.exp
 0002:00013f2c       $N00314                    0000000180036f2c     WebWorkerThreads.exp
 0002:00013f58       $N00315                    0000000180036f58     WebWorkerThreads.exp
 0002:0001424e       .idata$6                   000000018003724e     kernel32:KERNEL32.dll
 0002:00014792       .idata$6                   0000000180037792     advapi32:ADVAPI32.dll
 0003:00000030       ?_Tlg_Microsoft_CRTProviderProv@@3U_TlgProvider_t@__vcrt_trace_logging_provider@@A 0000000180038030     libvcruntime:telemetry.obj
 0003:00000080       ?__vcrt_flsindex@@3KA      0000000180038080     libvcruntime:per_thread_data.obj
 0003:00000198       errno_no_memory            0000000180038198     libucrt:errno.obj
 0003:0000019c       doserrno_no_memory         000000018003819c     libucrt:errno.obj
 0003:000002f0       __acrt_flsindex            00000001800382f0     libucrt:per_thread_data.obj
 0003:000006a0       __rgctypeflag              00000001800386a0     libucrt:mbctype.obj
 0003:000006b0       __rgcode_page_info         00000001800386b0     libucrt:mbctype.obj
 0003:00000a80       ?dazSupported@?1??common_control87@@9@9 0000000180038a80     libucrt:ieee.obj
 0003:00000a90       ?dazSupported@?1??_ctrlfp@@9@9 0000000180038a90     libucrt:fpctrl.obj
 0003:00000ab0       ?end@?1??Print@@YAXAEBV?$FunctionCallbackInfo@VValue@v8@@@Nan@@@Z@4DA 0000000180038ab0     WebWorkerThreads.obj
 0003:00000ac0       _module                    0000000180038ac0     WebWorkerThreads.obj
 0003:000010d8       ?module_local_atexit_table@@3U_onexit_table_t@@A 00000001800390d8     LIBCMT:utility.obj
 0003:000010f0       ?module_local_at_quick_exit_table@@3U_onexit_table_t@@A 00000001800390f0     LIBCMT:utility.obj
 0003:00001108       ?is_initialized_as_dll@@3_NA 0000000180039108     LIBCMT:utility.obj
 0003:0000110c       ?__proc_attached@@3HA      000000018003910c     LIBCMT:dll_dllmain.obj
 0003:00001110       GS_ExceptionRecord         0000000180039110     LIBCMT:gs_report.obj
 0003:000011b0       GS_ContextRecord           00000001800391b0     LIBCMT:gs_report.obj
 0003:000016b0       ?__vcrt_startup_thread_ptd@@3U__vcrt_ptd@@A 00000001800396b0     libvcruntime:per_thread_data.obj
 0003:00001728       __vcrt_lock_table          0000000180039728     libvcruntime:locks.obj
 0003:00001750       __vcrt_locks_initialized   0000000180039750     libvcruntime:locks.obj
 0003:00001760       ?module_handles@@3PAPEAUHINSTANCE__@@A 0000000180039760     libvcruntime:winapi_downlevel.obj
 0003:00001780       ?encoded_function_pointers@@3PAPEAXA 0000000180039780     libvcruntime:winapi_downlevel.obj
 0003:00001810       ?heap@@3V_HeapManager@@A   0000000180039810     libvcruntime:undname.obj
 0003:00001850       __acrt_new_handler         0000000180039850     libucrt:new_handler.obj
 0003:00001858       c_termination_complete     0000000180039858     libucrt:exit.obj
 0003:00001860       thread_local_exit_callback_func 0000000180039860     libucrt:exit.obj
 0003:00001868       ?c_exit_complete@?5??common_exit@@YAXHW4_crt_exit_cleanup_mode@@W4_crt_exit_return_mode@@@Z@4_NA 0000000180039868     libucrt:exit.obj
 0003:000018c0       __acrt_invalid_parameter_handler 00000001800398c0     libucrt:invalid_parameter.obj
 0003:00001ce0       module_handles             0000000180039ce0     libucrt:winapi_thunks.obj
 0003:00001d80       encoded_function_pointers  0000000180039d80     libucrt:winapi_thunks.obj
 0003:00001e80       ?state_cache@?1??__acrt_is_packaged_app@@9@4JA 0000000180039e80     libucrt:winapi_thunks.obj
 0003:00001e90       __acrt_lock_table          0000000180039e90     libucrt:locks.obj
 0003:00002098       __acrt_locks_initialized   000000018003a098     libucrt:locks.obj
 0003:000020a0       enable_percent_n           000000018003a0a0     libucrt:printf_count_output.obj
 0003:000020c8       __acrt_app_type            000000018003a0c8     libucrt:report_runtime_error.obj
 0003:000020cc       __acrt_error_mode          000000018003a0cc     libucrt:set_error_mode.obj
 0003:000020d0       ctrlc_action               000000018003a0d0     libucrt:signal.obj
 0003:000020d8       ctrlbreak_action           000000018003a0d8     libucrt:signal.obj
 0003:000020e0       abort_action               000000018003a0e0     libucrt:signal.obj
 0003:000020e8       term_action                000000018003a0e8     libucrt:signal.obj
 0003:00002104       fSystemSet                 000000018003a104     libucrt:mbctype.obj
 0003:00002110       ?initialized@?1??__acrt_initialize_multibyte@@9@4_NA 000000018003a110     libucrt:mbctype.obj
 0003:00002140       user_matherr               000000018003a140     libucrt:matherr.obj
 0003:00002148       __acrt_global_new_mode     000000018003a148     libucrt:new_mode.obj
 0003:000021a0       ?freeThreadsQueue@@3PEAUtypeQueue@@EA 000000018003a1a0     WebWorkerThreads.obj
 0003:000021a8       ?freeJobsQueue@@3PEAUtypeQueue@@EA 000000018003a1a8     WebWorkerThreads.obj
 0003:000021b0       ?freeItemsQueue@@3PEAUtypeQueue@@EA 000000018003a1b0     WebWorkerThreads.obj
 0003:000021b8       ?queuesPool@@3PEAUtypeQueue@@EA 000000018003a1b8     WebWorkerThreads.obj
 0003:000021c0       ?threadTemplate@@3V?$Persistent@VObjectTemplate@v8@@V?$NonCopyablePersistentTraits@VObjectTemplate@v8@@@2@@Nan@@A 000000018003a1c0     WebWorkerThreads.obj
 0003:000021d0       ?id_symbol@@3V?$Persistent@VString@v8@@V?$NonCopyablePersistentTraits@VString@v8@@@2@@Nan@@A 000000018003a1d0     WebWorkerThreads.obj
 0003:000021d8       ?useLocker@@3_NA           000000018003a1d8     WebWorkerThreads.obj
 0003:000021dc       ?threadsCtr@?1??Create@@YAXAEBV?$FunctionCallbackInfo@VValue@v8@@@Nan@@@Z@4JA 000000018003a1dc     WebWorkerThreads.obj
 0004:00000000       $pdata$?TraceLoggingRegister@__vcrt_trace_logging_provider@@YAJPEBU_TlgProvider_t@1@PEBU_GUID@@P6AX1KE_K2PEAU_EVENT_FILTER_DESCRIPTOR@@PEAX@Z4@Z 000000018003b000     libvcruntime:telemetry.obj
 0004:0000000c       $pdata$?_TlgEnableCallback@__vcrt_trace_logging_provider@@YAXPEBU_GUID@@KE_K1PEAU_EVENT_FILTER_DESCRIPTOR@@PEAX@Z 000000018003b00c     libvcruntime:telemetry.obj
 0004:00000018       $pdata$?_TlgWrite@__vcrt_trace_logging_provider@@YAJPEBU_TlgProvider_t@1@PEFBXPEBU_GUID@@2IPEAU_EVENT_DATA_DESCRIPTOR@@@Z 000000018003b018     libvcruntime:telemetry.obj
 0004:00000024       $pdata$fprintf             000000018003b024     WebWorkerThreads.obj
 0004:00000030       $pdata$printf              000000018003b030     WebWorkerThreads.obj
 0004:0000003c       $pdata$sprintf             000000018003b03c     WebWorkerThreads.obj
 0004:00000048       $pdata$?GetId@Script@v8@@QEAAHXZ 000000018003b048     WebWorkerThreads.obj
 0004:00000054       $pdata$??_EExternalSourceStream@ScriptCompiler@v8@@UEAAPEAXI@Z 000000018003b054     WebWorkerThreads.obj
 0004:00000060       $pdata$0$??_EExternalSourceStream@ScriptCompiler@v8@@UEAAPEAXI@Z 000000018003b060     WebWorkerThreads.obj
 0004:0000006c       $pdata$1$??_EExternalSourceStream@ScriptCompiler@v8@@UEAAPEAXI@Z 000000018003b06c     WebWorkerThreads.obj
 0004:00000078       $pdata$?NewInstance@Function@v8@@QEBA?AV?$MaybeLocal@VObject@v8@@@2@V?$Local@VContext@v8@@@2@@Z 000000018003b078     WebWorkerThreads.obj
 0004:00000084       $pdata$?SetIndexedPropertyHandler@ObjectTemplate@v8@@QEAAXP6AXIAEBV?$PropertyCallbackInfo@VValue@v8@@@2@@ZP6AXIV?$Local@VValue@v8@@@2@0@ZP6AXIAEBV?$PropertyCallbackInfo@VInteger@v8@@@2@@ZP6AXIAEBV?$PropertyCallbackInfo@VBoolean@v8@@@2@@ZP6AXAEBV?$PropertyCallbackInfo@VArray@v8@@@2@@Z2@Z 000000018003b084     WebWorkerThreads.obj
 0004:00000090       $pdata$??0Scope@Isolate@v8@@QEAA@PEAV12@@Z 000000018003b090     WebWorkerThreads.obj
 0004:0000009c       $pdata$??0Unlocker@v8@@QEAA@PEAVIsolate@1@@Z 000000018003b09c     WebWorkerThreads.obj
 0004:000000a8       $pdata$??0Locker@v8@@QEAA@PEAVIsolate@1@@Z 000000018003b0a8     WebWorkerThreads.obj
 0004:000000b4       $pdata$?Set@Template@v8@@QEAAXPEAVIsolate@2@PEBDV?$Local@VData@v8@@@2@@Z 000000018003b0b4     WebWorkerThreads.obj
 0004:000000c0       $pdata$?GetInternalField@Object@v8@@QEAA?AV?$Local@VValue@v8@@@2@H@Z 000000018003b0c0     WebWorkerThreads.obj
 0004:000000cc       $pdata$?ToBoolean@Value@v8@@QEBA?AV?$Local@VBoolean@v8@@@2@XZ 000000018003b0cc     WebWorkerThreads.obj
 0004:000000d8       $pdata$?ToNumber@Value@v8@@QEBA?AV?$Local@VNumber@v8@@@2@XZ 000000018003b0d8     WebWorkerThreads.obj
 0004:000000e4       $pdata$?ToString@Value@v8@@QEBA?AV?$Local@VString@v8@@@2@XZ 000000018003b0e4     WebWorkerThreads.obj
 0004:000000f0       $pdata$?ToDetailString@Value@v8@@QEBA?AV?$Local@VString@v8@@@2@XZ 000000018003b0f0     WebWorkerThreads.obj
 0004:000000fc       $pdata$?ToObject@Value@v8@@QEBA?AV?$Local@VObject@v8@@@2@XZ 000000018003b0fc     WebWorkerThreads.obj
 0004:00000108       $pdata$?ToInteger@Value@v8@@QEBA?AV?$Local@VInteger@v8@@@2@XZ 000000018003b108     WebWorkerThreads.obj
 0004:00000114       $pdata$?ToUint32@Value@v8@@QEBA?AV?$Local@VUint32@v8@@@2@XZ 000000018003b114     WebWorkerThreads.obj
 0004:00000120       $pdata$?ToInt32@Value@v8@@QEBA?AV?$Local@VInt32@v8@@@2@XZ 000000018003b120     WebWorkerThreads.obj
 0004:0000012c       $pdata$?AdjustAmountOfExternalAllocatedMemory@Isolate@v8@@QEAA_J_J@Z 000000018003b12c     WebWorkerThreads.obj
 0004:00000138       $pdata$?GetEmbedderData@Context@v8@@QEAA?AV?$Local@VValue@v8@@@2@H@Z 000000018003b138     WebWorkerThreads.obj
 0004:00000144       $pdata$?SetAllowCodeGenerationFromStringsCallback@V8@v8@@SAXP6A_NV?$Local@VContext@v8@@@2@@Z@Z 000000018003b144     WebWorkerThreads.obj
 0004:00000150       $pdata$?IsDead@V8@v8@@SA_NXZ 000000018003b150     WebWorkerThreads.obj
 0004:0000015c       $pdata$?AddMessageListener@V8@v8@@SA_NP6AXV?$Local@VMessage@v8@@@2@V?$Local@VValue@v8@@@2@@Z1@Z 000000018003b15c     WebWorkerThreads.obj
 0004:00000168       $pdata$?RemoveMessageListeners@V8@v8@@SAXP6AXV?$Local@VMessage@v8@@@2@V?$Local@VValue@v8@@@2@@Z@Z 000000018003b168     WebWorkerThreads.obj
 0004:00000174       $pdata$?SetFailedAccessCheckCallbackFunction@V8@v8@@SAXP6AXV?$Local@VObject@v8@@@2@W4AccessType@2@V?$Local@VValue@v8@@@2@@Z@Z 000000018003b174     WebWorkerThreads.obj
 0004:00000180       $pdata$?SetCaptureStackTraceForUncaughtExceptions@V8@v8@@SAX_NHW4StackTraceOptions@StackTrace@2@@Z 000000018003b180     WebWorkerThreads.obj
 0004:0000018c       $pdata$?SetFatalErrorHandler@V8@v8@@SAXP6AXPEBD0@Z@Z 000000018003b18c     WebWorkerThreads.obj
 0004:00000198       $pdata$?RemoveGCPrologueCallback@V8@v8@@SAXP6AXW4GCType@2@W4GCCallbackFlags@2@@Z@Z 000000018003b198     WebWorkerThreads.obj
 0004:000001a4       $pdata$?RemoveGCEpilogueCallback@V8@v8@@SAXP6AXW4GCType@2@W4GCCallbackFlags@2@@Z@Z 000000018003b1a4     WebWorkerThreads.obj
 0004:000001b0       $pdata$?AddMemoryAllocationCallback@V8@v8@@SAXP6AXW4ObjectSpace@2@W4AllocationAction@2@H@Z01@Z 000000018003b1b0     WebWorkerThreads.obj
 0004:000001bc       $pdata$?RemoveMemoryAllocationCallback@V8@v8@@SAXP6AXW4ObjectSpace@2@W4AllocationAction@2@H@Z@Z 000000018003b1bc     WebWorkerThreads.obj
 0004:000001c8       $pdata$?IsExecutionTerminating@V8@v8@@SA_NPEAVIsolate@2@@Z 000000018003b1c8     WebWorkerThreads.obj
 0004:000001d4       $pdata$?VisitExternalResources@V8@v8@@SAXPEAVExternalResourceVisitor@2@@Z 000000018003b1d4     WebWorkerThreads.obj
 0004:000001e0       $pdata$?VisitHandlesWithClassIds@V8@v8@@SAXPEAVPersistentHandleVisitor@2@@Z 000000018003b1e0     WebWorkerThreads.obj
 0004:000001ec       $pdata$??_EExternalStringResourceBase@String@v8@@UEAAPEAXI@Z 000000018003b1ec     WebWorkerThreads.obj
 0004:000001ec       $pdata$??_EExternalOneByteStringResource@String@v8@@UEAAPEAXI@Z 000000018003b1ec     WebWorkerThreads.obj
 0004:000001ec       $pdata$??_EExternalStringResource@String@v8@@UEAAPEAXI@Z 000000018003b1ec     WebWorkerThreads.obj
 0004:000001f8       $pdata$0$??_EExternalOneByteStringResource@String@v8@@UEAAPEAXI@Z 000000018003b1f8     WebWorkerThreads.obj
 0004:000001f8       $pdata$0$??_EExternalStringResource@String@v8@@UEAAPEAXI@Z 000000018003b1f8     WebWorkerThreads.obj
 0004:000001f8       $pdata$0$??_EExternalStringResourceBase@String@v8@@UEAAPEAXI@Z 000000018003b1f8     WebWorkerThreads.obj
 0004:00000204       $pdata$1$??_EExternalStringResourceBase@String@v8@@UEAAPEAXI@Z 000000018003b204     WebWorkerThreads.obj
 0004:00000204       $pdata$1$??_EExternalOneByteStringResource@String@v8@@UEAAPEAXI@Z 000000018003b204     WebWorkerThreads.obj
 0004:00000204       $pdata$1$??_EExternalStringResource@String@v8@@UEAAPEAXI@Z 000000018003b204     WebWorkerThreads.obj
 0004:00000210       $pdata$??_EAllocator@ArrayBuffer@v8@@UEAAPEAXI@Z 000000018003b210     WebWorkerThreads.obj
 0004:0000021c       $pdata$0$??_EAllocator@ArrayBuffer@v8@@UEAAPEAXI@Z 000000018003b21c     WebWorkerThreads.obj
 0004:00000228       $pdata$1$??_EAllocator@ArrayBuffer@v8@@UEAAPEAXI@Z 000000018003b228     WebWorkerThreads.obj
 0004:00000234       $pdata$??_EExternalOneByteStringResourceImpl@v8@@UEAAPEAXI@Z 000000018003b234     WebWorkerThreads.obj
 0004:00000240       $pdata$0$??_EExternalOneByteStringResourceImpl@v8@@UEAAPEAXI@Z 000000018003b240     WebWorkerThreads.obj
 0004:0000024c       $pdata$1$??_EExternalOneByteStringResourceImpl@v8@@UEAAPEAXI@Z 000000018003b24c     WebWorkerThreads.obj
 0004:00000258       $pdata$??_EExtension@v8@@UEAAPEAXI@Z 000000018003b258     WebWorkerThreads.obj
 0004:00000264       $pdata$0$??_EExtension@v8@@UEAAPEAXI@Z 000000018003b264     WebWorkerThreads.obj
 0004:00000270       $pdata$1$??_EExtension@v8@@UEAAPEAXI@Z 000000018003b270     WebWorkerThreads.obj
 0004:0000027c       $pdata$??_EExternalResourceVisitor@v8@@UEAAPEAXI@Z 000000018003b27c     WebWorkerThreads.obj
 0004:0000027c       $pdata$??_EPersistentHandleVisitor@v8@@UEAAPEAXI@Z 000000018003b27c     WebWorkerThreads.obj
 0004:00000288       $pdata$0$??_EPersistentHandleVisitor@v8@@UEAAPEAXI@Z 000000018003b288     WebWorkerThreads.obj
 0004:00000288       $pdata$0$??_EExternalResourceVisitor@v8@@UEAAPEAXI@Z 000000018003b288     WebWorkerThreads.obj
 0004:00000294       $pdata$1$??_EExternalResourceVisitor@v8@@UEAAPEAXI@Z 000000018003b294     WebWorkerThreads.obj
 0004:00000294       $pdata$1$??_EPersistentHandleVisitor@v8@@UEAAPEAXI@Z 000000018003b294     WebWorkerThreads.obj
 0004:000002a0       $pdata$?Ref@ObjectWrap@node@@MEAAXXZ 000000018003b2a0     WebWorkerThreads.obj
 0004:000002ac       $pdata$?Unref@ObjectWrap@node@@MEAAXXZ 000000018003b2ac     WebWorkerThreads.obj
 0004:000002b8       $pdata$?WeakCallback@ObjectWrap@node@@CAXAEBV?$WeakCallbackData@VObject@v8@@VObjectWrap@node@@@v8@@@Z 000000018003b2b8     WebWorkerThreads.obj
 0004:000002c4       $pdata$??_GObjectWrap@node@@UEAAPEAXI@Z 000000018003b2c4     WebWorkerThreads.obj
 0004:000002d0       $pdata$?FunctionCallbackWrapper@imp@Nan@@YAXAEBV?$FunctionCallbackInfo@VValue@v8@@@v8@@@Z 000000018003b2d0     WebWorkerThreads.obj
 0004:000002dc       $pdata$?New@?$Factory@VFunctionTemplate@v8@@@imp@Nan@@SA?AV?$Local@VFunctionTemplate@v8@@@v8@@P6AXAEBV?$FunctionCallbackInfo@VValue@v8@@@3@@ZV?$Local@VValue@v8@@@5@V?$Local@VSignature@v8@@@5@@Z 000000018003b2dc     WebWorkerThreads.obj
 0004:000002e8       $pdata$0$?New@?$Factory@VFunctionTemplate@v8@@@imp@Nan@@SA?AV?$Local@VFunctionTemplate@v8@@@v8@@P6AXAEBV?$FunctionCallbackInfo@VValue@v8@@@3@@ZV?$Local@VValue@v8@@@5@V?$Local@VSignature@v8@@@5@@Z 000000018003b2e8     WebWorkerThreads.obj
 0004:000002f4       $pdata$1$?New@?$Factory@VFunctionTemplate@v8@@@imp@Nan@@SA?AV?$Local@VFunctionTemplate@v8@@@v8@@P6AXAEBV?$FunctionCallbackInfo@VValue@v8@@@3@@ZV?$Local@VValue@v8@@@5@V?$Local@VSignature@v8@@@5@@Z 000000018003b2f4     WebWorkerThreads.obj
 0004:00000300       $pdata$?queue_pull@@YAPEAUtypeQueueItem@@PEAUtypeQueue@@@Z 000000018003b300     WebWorkerThreads.obj
 0004:0000030c       $pdata$?nuItem@@YAPEAUtypeQueueItem@@HPEAX@Z 000000018003b30c     WebWorkerThreads.obj
 0004:00000318       $pdata$?destroyItem@@YAXPEAUtypeQueueItem@@@Z 000000018003b318     WebWorkerThreads.obj
 0004:00000324       $pdata$0$?destroyItem@@YAXPEAUtypeQueueItem@@@Z 000000018003b324     WebWorkerThreads.obj
 0004:00000330       $pdata$1$?destroyItem@@YAXPEAUtypeQueueItem@@@Z 000000018003b330     WebWorkerThreads.obj
 0004:0000033c       $pdata$??_GBSON@@UEAAPEAXI@Z 000000018003b33c     WebWorkerThreads.obj
 0004:00000348       $pdata$?WriteObjectId@DataStream@@QEAAXAEBV?$Local@VObject@v8@@@v8@@AEBV?$Local@VString@v8@@@3@@Z 000000018003b348     WebWorkerThreads.obj
 0004:00000354       $pdata$?ThrowAllocatedStringException@@YAX_KPEBDZZ 000000018003b354     WebWorkerThreads.obj
 0004:00000360       $pdata$?CheckKey@DataStream@@QEAAXAEBV?$Local@VString@v8@@@v8@@@Z 000000018003b360     WebWorkerThreads.obj
 0004:0000036c       $pdata$?ReadCString@BSONDeserializer@@QEAA?AV?$Local@VValue@v8@@@v8@@XZ 000000018003b36c     WebWorkerThreads.obj
 0004:00000378       $pdata$0$?ReadCString@BSONDeserializer@@QEAA?AV?$Local@VValue@v8@@@v8@@XZ 000000018003b378     WebWorkerThreads.obj
 0004:00000384       $pdata$1$?ReadCString@BSONDeserializer@@QEAA?AV?$Local@VValue@v8@@@v8@@XZ 000000018003b384     WebWorkerThreads.obj
 0004:00000390       $pdata$?ReadObjectId@BSONDeserializer@@QEAA?AV?$Local@VString@v8@@@v8@@XZ 000000018003b390     WebWorkerThreads.obj
 0004:0000039c       $pdata$?DeserializeDocument@BSONDeserializer@@QEAA?AV?$Local@VValue@v8@@@v8@@_N@Z 000000018003b39c     WebWorkerThreads.obj
 0004:000003a8       $pdata$?DeserializeDocumentInternal@BSONDeserializer@@AEAA?AV?$Local@VValue@v8@@@v8@@_N@Z 000000018003b3a8     WebWorkerThreads.obj
 0004:000003b4       $pdata$?DeserializeArray@BSONDeserializer@@AEAA?AV?$Local@VValue@v8@@@v8@@_N@Z 000000018003b3b4     WebWorkerThreads.obj
 0004:000003c0       $pdata$?DeserializeArrayInternal@BSONDeserializer@@AEAA?AV?$Local@VValue@v8@@@v8@@_N@Z 000000018003b3c0     WebWorkerThreads.obj
 0004:000003cc       $pdata$?DeserializeValue@BSONDeserializer@@AEAA?AV?$Local@VValue@v8@@@v8@@W4BsonType@@_N@Z 000000018003b3cc     WebWorkerThreads.obj
 0004:000003d8       $pdata$??0BSON@@QEAA@XZ    000000018003b3d8     WebWorkerThreads.obj
 0004:000003e4       $pdata$?GetSerializeObject@BSON@@QEAA?AV?$Local@VObject@v8@@@v8@@AEBV?$Local@VValue@v8@@@3@@Z 000000018003b3e4     WebWorkerThreads.obj
 0004:000003f0       $pdata$?ReportException@@YAXPEAVTryCatch@v8@@@Z 000000018003b3f0     WebWorkerThreads.obj
 0004:000003fc       $pdata$0$?ReportException@@YAXPEAVTryCatch@v8@@@Z 000000018003b3fc     WebWorkerThreads.obj
 0004:00000408       $pdata$2$?ReportException@@YAXPEAVTryCatch@v8@@@Z 000000018003b408     WebWorkerThreads.obj
 0004:00000414       $pdata$3$?ReportException@@YAXPEAVTryCatch@v8@@@Z 000000018003b414     WebWorkerThreads.obj
 0004:00000420       $pdata$4$?ReportException@@YAXPEAVTryCatch@v8@@@Z 000000018003b420     WebWorkerThreads.obj
 0004:0000042c       $pdata$?readFileSync_@@YAXAEBV?$FunctionCallbackInfo@VValue@v8@@@Nan@@@Z 000000018003b42c     WebWorkerThreads.obj
 0004:00000438       $pdata$1$?readFileSync_@@YAXAEBV?$FunctionCallbackInfo@VValue@v8@@@Nan@@@Z 000000018003b438     WebWorkerThreads.obj
 0004:00000444       $pdata$2$?readFileSync_@@YAXAEBV?$FunctionCallbackInfo@VValue@v8@@@Nan@@@Z 000000018003b444     WebWorkerThreads.obj
 0004:00000450       $pdata$3$?readFileSync_@@YAXAEBV?$FunctionCallbackInfo@VValue@v8@@@Nan@@@Z 000000018003b450     WebWorkerThreads.obj
 0004:0000045c       $pdata$4$?readFileSync_@@YAXAEBV?$FunctionCallbackInfo@VValue@v8@@@Nan@@@Z 000000018003b45c     WebWorkerThreads.obj
 0004:00000468       $pdata$?console_common_1@@YAXAEBV?$Local@VValue@v8@@@v8@@PEAU_iobuf@@H@Z 000000018003b468     WebWorkerThreads.obj
 0004:00000474       $pdata$?console_log@@YAXAEBV?$FunctionCallbackInfo@VValue@v8@@@Nan@@@Z 000000018003b474     WebWorkerThreads.obj
 0004:00000480       $pdata$1$?console_log@@YAXAEBV?$FunctionCallbackInfo@VValue@v8@@@Nan@@@Z 000000018003b480     WebWorkerThreads.obj
 0004:0000048c       $pdata$2$?console_log@@YAXAEBV?$FunctionCallbackInfo@VValue@v8@@@Nan@@@Z 000000018003b48c     WebWorkerThreads.obj
 0004:00000498       $pdata$3$?console_log@@YAXAEBV?$FunctionCallbackInfo@VValue@v8@@@Nan@@@Z 000000018003b498     WebWorkerThreads.obj
 0004:000004a4       $pdata$4$?console_log@@YAXAEBV?$FunctionCallbackInfo@VValue@v8@@@Nan@@@Z 000000018003b4a4     WebWorkerThreads.obj
 0004:000004b0       $pdata$?console_error@@YAXAEBV?$FunctionCallbackInfo@VValue@v8@@@Nan@@@Z 000000018003b4b0     WebWorkerThreads.obj
 0004:000004bc       $pdata$1$?console_error@@YAXAEBV?$FunctionCallbackInfo@VValue@v8@@@Nan@@@Z 000000018003b4bc     WebWorkerThreads.obj
 0004:000004c8       $pdata$2$?console_error@@YAXAEBV?$FunctionCallbackInfo@VValue@v8@@@Nan@@@Z 000000018003b4c8     WebWorkerThreads.obj
 0004:000004d4       $pdata$3$?console_error@@YAXAEBV?$FunctionCallbackInfo@VValue@v8@@@Nan@@@Z 000000018003b4d4     WebWorkerThreads.obj
 0004:000004e0       $pdata$4$?console_error@@YAXAEBV?$FunctionCallbackInfo@VValue@v8@@@Nan@@@Z 000000018003b4e0     WebWorkerThreads.obj
 0004:000004ec       $pdata$?Allocate@ArrayBufferAllocator@@UEAAPEAX_K@Z 000000018003b4ec     WebWorkerThreads.obj
 0004:000004f8       $pdata$?nuJobQueueItem@@YAPEAUtypeQueueItem@@XZ 000000018003b4f8     WebWorkerThreads.obj
 0004:00000504       $pdata$?pushToInQueue@@YAXPEAUtypeQueueItem@@PEAUtypeThread@@@Z 000000018003b504     WebWorkerThreads.obj
 0004:00000510       $pdata$?Puts@@YAXAEBV?$FunctionCallbackInfo@VValue@v8@@@Nan@@@Z 000000018003b510     WebWorkerThreads.obj
 0004:0000051c       $pdata$0$?Puts@@YAXAEBV?$FunctionCallbackInfo@VValue@v8@@@Nan@@@Z 000000018003b51c     WebWorkerThreads.obj
 0004:00000528       $pdata$1$?Puts@@YAXAEBV?$FunctionCallbackInfo@VValue@v8@@@Nan@@@Z 000000018003b528     WebWorkerThreads.obj
 0004:00000534       $pdata$?Print@@YAXAEBV?$FunctionCallbackInfo@VValue@v8@@@Nan@@@Z 000000018003b534     WebWorkerThreads.obj
 0004:00000540       $pdata$0$?Print@@YAXAEBV?$FunctionCallbackInfo@VValue@v8@@@Nan@@@Z 000000018003b540     WebWorkerThreads.obj
 0004:0000054c       $pdata$1$?Print@@YAXAEBV?$FunctionCallbackInfo@VValue@v8@@@Nan@@@Z 000000018003b54c     WebWorkerThreads.obj
 0004:00000558       $pdata$?aThread@@YAXPEAX@Z 000000018003b558     WebWorkerThreads.obj
 0004:00000564       $pdata$??_GArrayBufferAllocator@@UEAAPEAXI@Z 000000018003b564     WebWorkerThreads.obj
 0004:00000570       $pdata$?eventLoop@@YAXPEAUtypeThread@@@Z 000000018003b570     WebWorkerThreads.obj
 0004:0000057c       $pdata$1$?eventLoop@@YAXPEAUtypeThread@@@Z 000000018003b57c     WebWorkerThreads.obj
 0004:00000588       $pdata$?destroyaThread@@YAXPEAUtypeThread@@@Z 000000018003b588     WebWorkerThreads.obj
 0004:00000594       $pdata$?Callback@@YAXPEAUuv_async_s@@H@Z 000000018003b594     WebWorkerThreads.obj
 0004:000005a0       $pdata$5$?Callback@@YAXPEAUuv_async_s@@H@Z 000000018003b5a0     WebWorkerThreads.obj
 0004:000005ac       $pdata$7$?Callback@@YAXPEAUuv_async_s@@H@Z 000000018003b5ac     WebWorkerThreads.obj
 0004:000005b8       $pdata$?Destroy@@YAXAEBV?$FunctionCallbackInfo@VValue@v8@@@Nan@@@Z 000000018003b5b8     WebWorkerThreads.obj
 0004:000005c4       $pdata$?Eval@@YAXAEBV?$FunctionCallbackInfo@VValue@v8@@@Nan@@@Z 000000018003b5c4     WebWorkerThreads.obj
 0004:000005d0       $pdata$1$?Eval@@YAXAEBV?$FunctionCallbackInfo@VValue@v8@@@Nan@@@Z 000000018003b5d0     WebWorkerThreads.obj
 0004:000005dc       $pdata$2$?Eval@@YAXAEBV?$FunctionCallbackInfo@VValue@v8@@@Nan@@@Z 000000018003b5dc     WebWorkerThreads.obj
 0004:000005e8       $pdata$3$?Eval@@YAXAEBV?$FunctionCallbackInfo@VValue@v8@@@Nan@@@Z 000000018003b5e8     WebWorkerThreads.obj
 0004:000005f4       $pdata$4$?Eval@@YAXAEBV?$FunctionCallbackInfo@VValue@v8@@@Nan@@@Z 000000018003b5f4     WebWorkerThreads.obj
 0004:00000600       $pdata$?readFile@@YAPEADV?$Local@VString@v8@@@v8@@@Z 000000018003b600     WebWorkerThreads.obj
 0004:0000060c       $pdata$?Load@@YAXAEBV?$FunctionCallbackInfo@VValue@v8@@@Nan@@@Z 000000018003b60c     WebWorkerThreads.obj
 0004:00000618       $pdata$3$?Load@@YAXAEBV?$FunctionCallbackInfo@VValue@v8@@@Nan@@@Z 000000018003b618     WebWorkerThreads.obj
 0004:00000624       $pdata$4$?Load@@YAXAEBV?$FunctionCallbackInfo@VValue@v8@@@Nan@@@Z 000000018003b624     WebWorkerThreads.obj
 0004:00000630       $pdata$?processEmit@@YAXAEBV?$FunctionCallbackInfo@VValue@v8@@@Nan@@@Z 000000018003b630     WebWorkerThreads.obj
 0004:0000063c       $pdata$?processEmitSerialized@@YAXAEBV?$FunctionCallbackInfo@VValue@v8@@@Nan@@@Z 000000018003b63c     WebWorkerThreads.obj
 0004:00000648       $pdata$3$?processEmitSerialized@@YAXAEBV?$FunctionCallbackInfo@VValue@v8@@@Nan@@@Z 000000018003b648     WebWorkerThreads.obj
 0004:00000654       $pdata$4$?processEmitSerialized@@YAXAEBV?$FunctionCallbackInfo@VValue@v8@@@Nan@@@Z 000000018003b654     WebWorkerThreads.obj
 0004:00000660       $pdata$?postMessage@@YAXAEBV?$FunctionCallbackInfo@VValue@v8@@@Nan@@@Z 000000018003b660     WebWorkerThreads.obj
 0004:0000066c       $pdata$?postError@@YAXAEBV?$FunctionCallbackInfo@VValue@v8@@@Nan@@@Z 000000018003b66c     WebWorkerThreads.obj
 0004:00000678       $pdata$?threadEmit@@YAXAEBV?$FunctionCallbackInfo@VValue@v8@@@Nan@@@Z 000000018003b678     WebWorkerThreads.obj
 0004:00000684       $pdata$?Create@@YAXAEBV?$FunctionCallbackInfo@VValue@v8@@@Nan@@@Z 000000018003b684     WebWorkerThreads.obj
 0004:00000690       $pdata$?Init@@YAXV?$Local@VObject@v8@@@v8@@V?$Local@VValue@v8@@@2@PEAX@Z 000000018003b690     WebWorkerThreads.obj
 0004:0000069c       $pdata$??$New@VInt32@v8@@H@Nan@@YA?AV?$Local@VInt32@v8@@@v8@@H@Z 000000018003b69c     WebWorkerThreads.obj
 0004:000006a8       $pdata$??$New@VUint32@v8@@I@Nan@@YA?AV?$Local@VUint32@v8@@@v8@@I@Z 000000018003b6a8     WebWorkerThreads.obj
 0004:000006b4       $pdata$??$New@VInteger@v8@@H@Nan@@YA?AV?$Local@VInteger@v8@@@v8@@H@Z 000000018003b6b4     WebWorkerThreads.obj
 0004:000006c0       $pdata$?SerializeDocument@?$BSONSerializer@VCountStream@@@@QEAAXAEBV?$Local@VValue@v8@@@v8@@@Z 000000018003b6c0     WebWorkerThreads.obj
 0004:000006cc       $pdata$0$?SerializeDocument@?$BSONSerializer@VCountStream@@@@QEAAXAEBV?$Local@VValue@v8@@@v8@@@Z 000000018003b6cc     WebWorkerThreads.obj
 0004:000006d8       $pdata$1$?SerializeDocument@?$BSONSerializer@VCountStream@@@@QEAAXAEBV?$Local@VValue@v8@@@v8@@@Z 000000018003b6d8     WebWorkerThreads.obj
 0004:000006e4       $pdata$?SerializeDocument@?$BSONSerializer@VDataStream@@@@QEAAXAEBV?$Local@VValue@v8@@@v8@@@Z 000000018003b6e4     WebWorkerThreads.obj
 0004:000006f0       $pdata$1$?SerializeDocument@?$BSONSerializer@VDataStream@@@@QEAAXAEBV?$Local@VValue@v8@@@v8@@@Z 000000018003b6f0     WebWorkerThreads.obj
 0004:000006fc       $pdata$2$?SerializeDocument@?$BSONSerializer@VDataStream@@@@QEAAXAEBV?$Local@VValue@v8@@@v8@@@Z 000000018003b6fc     WebWorkerThreads.obj
 0004:00000708       $pdata$?SerializeValue@?$BSONSerializer@VCountStream@@@@QEAAXPEAXAEBV?$Local@VValue@v8@@@v8@@@Z 000000018003b708     WebWorkerThreads.obj
 0004:00000714       $pdata$0$?SerializeValue@?$BSONSerializer@VCountStream@@@@QEAAXPEAXAEBV?$Local@VValue@v8@@@v8@@@Z 000000018003b714     WebWorkerThreads.obj
 0004:00000720       $pdata$2$?SerializeValue@?$BSONSerializer@VCountStream@@@@QEAAXPEAXAEBV?$Local@VValue@v8@@@v8@@@Z 000000018003b720     WebWorkerThreads.obj
 0004:0000072c       $pdata$4$?SerializeValue@?$BSONSerializer@VCountStream@@@@QEAAXPEAXAEBV?$Local@VValue@v8@@@v8@@@Z 000000018003b72c     WebWorkerThreads.obj
 0004:00000738       $pdata$6$?SerializeValue@?$BSONSerializer@VCountStream@@@@QEAAXPEAXAEBV?$Local@VValue@v8@@@v8@@@Z 000000018003b738     WebWorkerThreads.obj
 0004:00000744       $pdata$8$?SerializeValue@?$BSONSerializer@VCountStream@@@@QEAAXPEAXAEBV?$Local@VValue@v8@@@v8@@@Z 000000018003b744     WebWorkerThreads.obj
 0004:00000750       $pdata$10$?SerializeValue@?$BSONSerializer@VCountStream@@@@QEAAXPEAXAEBV?$Local@VValue@v8@@@v8@@@Z 000000018003b750     WebWorkerThreads.obj
 0004:0000075c       $pdata$12$?SerializeValue@?$BSONSerializer@VCountStream@@@@QEAAXPEAXAEBV?$Local@VValue@v8@@@v8@@@Z 000000018003b75c     WebWorkerThreads.obj
 0004:00000768       $pdata$14$?SerializeValue@?$BSONSerializer@VCountStream@@@@QEAAXPEAXAEBV?$Local@VValue@v8@@@v8@@@Z 000000018003b768     WebWorkerThreads.obj
 0004:00000774       $pdata$16$?SerializeValue@?$BSONSerializer@VCountStream@@@@QEAAXPEAXAEBV?$Local@VValue@v8@@@v8@@@Z 000000018003b774     WebWorkerThreads.obj
 0004:00000780       $pdata$18$?SerializeValue@?$BSONSerializer@VCountStream@@@@QEAAXPEAXAEBV?$Local@VValue@v8@@@v8@@@Z 000000018003b780     WebWorkerThreads.obj
 0004:0000078c       $pdata$20$?SerializeValue@?$BSONSerializer@VCountStream@@@@QEAAXPEAXAEBV?$Local@VValue@v8@@@v8@@@Z 000000018003b78c     WebWorkerThreads.obj
 0004:00000798       $pdata$22$?SerializeValue@?$BSONSerializer@VCountStream@@@@QEAAXPEAXAEBV?$Local@VValue@v8@@@v8@@@Z 000000018003b798     WebWorkerThreads.obj
 0004:000007a4       $pdata$24$?SerializeValue@?$BSONSerializer@VCountStream@@@@QEAAXPEAXAEBV?$Local@VValue@v8@@@v8@@@Z 000000018003b7a4     WebWorkerThreads.obj
 0004:000007b0       $pdata$26$?SerializeValue@?$BSONSerializer@VCountStream@@@@QEAAXPEAXAEBV?$Local@VValue@v8@@@v8@@@Z 000000018003b7b0     WebWorkerThreads.obj
 0004:000007bc       $pdata$28$?SerializeValue@?$BSONSerializer@VCountStream@@@@QEAAXPEAXAEBV?$Local@VValue@v8@@@v8@@@Z 000000018003b7bc     WebWorkerThreads.obj
 0004:000007c8       $pdata$30$?SerializeValue@?$BSONSerializer@VCountStream@@@@QEAAXPEAXAEBV?$Local@VValue@v8@@@v8@@@Z 000000018003b7c8     WebWorkerThreads.obj
 0004:000007d4       $pdata$?SerializeValue@?$BSONSerializer@VDataStream@@@@QEAAXPEAXAEBV?$Local@VValue@v8@@@v8@@@Z 000000018003b7d4     WebWorkerThreads.obj
 0004:000007e0       $pdata$?SerializeArray@?$BSONSerializer@VCountStream@@@@QEAAXAEBV?$Local@VValue@v8@@@v8@@@Z 000000018003b7e0     WebWorkerThreads.obj
 0004:000007ec       $pdata$?SerializeArray@?$BSONSerializer@VDataStream@@@@QEAAXAEBV?$Local@VValue@v8@@@v8@@@Z 000000018003b7ec     WebWorkerThreads.obj
 0004:000007f8       $pdata$load_exe_hook       000000018003b7f8     win_delay_load_hook.obj
 0004:0000081c       $pdata$??2@YAPEAX_K@Z      000000018003b81c     LIBCMT:new_scalar.obj
 0004:00000828       $pdata$__scrt_acquire_startup_lock 000000018003b828     LIBCMT:utility.obj
 0004:00000834       $pdata$__scrt_dllmain_after_initialize_c 000000018003b834     LIBCMT:utility.obj
 0004:00000840       $pdata$__scrt_dllmain_before_initialize_c 000000018003b840     LIBCMT:utility.obj
 0004:0000084c       $pdata$__scrt_dllmain_crt_thread_attach 000000018003b84c     LIBCMT:utility.obj
 0004:00000858       $pdata$__scrt_dllmain_crt_thread_detach 000000018003b858     LIBCMT:utility.obj
 0004:00000864       $pdata$__scrt_dllmain_exception_filter 000000018003b864     LIBCMT:utility.obj
 0004:00000870       $pdata$__scrt_dllmain_uninitialize_c 000000018003b870     LIBCMT:utility.obj
 0004:0000087c       $pdata$__scrt_dllmain_uninitialize_critical 000000018003b87c     LIBCMT:utility.obj
 0004:00000888       $pdata$__scrt_initialize_crt 000000018003b888     LIBCMT:utility.obj
 0004:00000894       $pdata$__scrt_initialize_onexit_tables 000000018003b894     LIBCMT:utility.obj
 0004:000008a0       $pdata$__scrt_is_nonwritable_in_current_image 000000018003b8a0     LIBCMT:utility.obj
 0004:000008ac       $pdata$__scrt_release_startup_lock 000000018003b8ac     LIBCMT:utility.obj
 0004:000008b8       $pdata$__scrt_uninitialize_crt 000000018003b8b8     LIBCMT:utility.obj
 0004:000008c4       $pdata$_onexit             000000018003b8c4     LIBCMT:utility.obj
 0004:000008d0       $pdata$atexit              000000018003b8d0     LIBCMT:utility.obj
 0004:000008dc       $pdata$??_Gtype_info@@UEAAPEAXI@Z 000000018003b8dc     LIBCMT:std_type_info_static.obj
 0004:000008e8       $pdata$?dllmain_crt_dispatch@@YAHQEAUHINSTANCE__@@KQEAX@Z 000000018003b8e8     LIBCMT:dll_dllmain.obj
 0004:000008f4       $pdata$?dllmain_crt_process_attach@@YAHQEAUHINSTANCE__@@QEAX@Z 000000018003b8f4     LIBCMT:dll_dllmain.obj
 0004:00000900       $pdata$?dllmain_crt_process_detach@@YAH_N@Z 000000018003b900     LIBCMT:dll_dllmain.obj
 0004:0000090c       $pdata$?dllmain_dispatch@@YAHQEAUHINSTANCE__@@KQEAX@Z 000000018003b90c     LIBCMT:dll_dllmain.obj
 0004:00000918       $pdata$?dllmain_raw@@YAHQEAUHINSTANCE__@@KQEAX@Z 000000018003b918     LIBCMT:dll_dllmain.obj
 0004:00000924       $pdata$_DllMainCRTStartup  000000018003b924     LIBCMT:dll_dllmain.obj
 0004:00000930       $pdata$__raise_securityfailure 000000018003b930     LIBCMT:gs_report.obj
 0004:0000093c       $pdata$__report_gsfailure  000000018003b93c     LIBCMT:gs_report.obj
 0004:00000948       $pdata$capture_previous_context 000000018003b948     LIBCMT:gs_report.obj
 0004:00000954       $pdata$??0bad_alloc@std@@QEAA@AEBV01@@Z 000000018003b954     LIBCMT:throw_bad_alloc.obj
 0004:00000960       $pdata$??0bad_array_new_length@std@@QEAA@AEBV01@@Z 000000018003b960     LIBCMT:throw_bad_alloc.obj
 0004:0000096c       $pdata$??0exception@std@@QEAA@AEBV01@@Z 000000018003b96c     LIBCMT:throw_bad_alloc.obj
 0004:00000978       $pdata$??_Gexception@std@@UEAAPEAXI@Z 000000018003b978     LIBCMT:throw_bad_alloc.obj
 0004:00000978       $pdata$??_Gbad_alloc@std@@UEAAPEAXI@Z 000000018003b978     LIBCMT:throw_bad_alloc.obj
 0004:00000978       $pdata$??_Gbad_array_new_length@std@@UEAAPEAXI@Z 000000018003b978     LIBCMT:throw_bad_alloc.obj
 0004:00000984       $pdata$?__scrt_throw_std_bad_alloc@@YAXXZ 000000018003b984     LIBCMT:throw_bad_alloc.obj
 0004:00000990       $pdata$?__scrt_throw_std_bad_array_new_length@@YAXXZ 000000018003b990     LIBCMT:throw_bad_alloc.obj
 0004:0000099c       $pdata$__isa_available_init 000000018003b99c     LIBCMT:_cpu_disp_.obj
 0004:000009a8       $pdata$__scrt_fastfail     000000018003b9a8     LIBCMT:utility_desktop.obj
 0004:000009b4       $pdata$__security_init_cookie 000000018003b9b4     LIBCMT:gs_support.obj
 0004:000009c0       $pdata$__scrt_initialize_default_local_stdio_options 000000018003b9c0     LIBCMT:default_local_stdio_options.obj
 0004:000009cc       $pdata$_RTC_Initialize     000000018003b9cc     LIBCMT:_initsect_.obj
 0004:000009d8       $pdata$_RTC_Terminate      000000018003b9d8     LIBCMT:_initsect_.obj
 0004:000009e4       $pdata$_purecall           000000018003b9e4     libvcruntime:purevirt.obj
 0004:000009f0       $pdata$strchr              000000018003b9f0     libvcruntime:strchr.obj
 0004:000009fc       $pdata$__vcrt_initialize   000000018003b9fc     libvcruntime:initialization.obj
 0004:00000a08       $pdata$__vcrt_thread_attach 000000018003ba08     libvcruntime:initialization.obj
 0004:00000a14       $pdata$__vcrt_thread_detach 000000018003ba14     libvcruntime:initialization.obj
 0004:00000a20       $pdata$__vcrt_uninitialize 000000018003ba20     libvcruntime:initialization.obj
 0004:00000a2c       $pdata$__vcrt_uninitialize_critical 000000018003ba2c     libvcruntime:initialization.obj
 0004:00000a38       $pdata$__C_specific_handler 000000018003ba38     libvcruntime:_chandler_.obj
 0004:00000a44       $pdata$__telemetry_main_invoke_trigger 000000018003ba44     libvcruntime:telemetry.obj
 0004:00000a50       $pdata$__telemetry_main_return_trigger 000000018003ba50     libvcruntime:telemetry.obj
 0004:00000a5c       $pdata$__vcrt_uninitialize_telemetry_provider 000000018003ba5c     libvcruntime:telemetry.obj
 0004:00000a68       $pdata$__std_exception_copy 000000018003ba68     libvcruntime:std_exception.obj
 0004:00000a74       $pdata$__std_exception_destroy 000000018003ba74     libvcruntime:std_exception.obj
 0004:00000a80       $pdata$_CxxThrowException  000000018003ba80     libvcruntime:throw.obj
 0004:00000a98       $pdata$__std_type_info_destroy_list 000000018003ba98     libvcruntime:std_type_info.obj
 0004:00000aa4       $pdata$__vcrt_freefls      000000018003baa4     libvcruntime:per_thread_data.obj
 0004:00000ab0       $pdata$__vcrt_freeptd      000000018003bab0     libvcruntime:per_thread_data.obj
 0004:00000abc       $pdata$__vcrt_getptd_noexit 000000018003babc     libvcruntime:per_thread_data.obj
 0004:00000ac8       $pdata$__vcrt_initialize_ptd 000000018003bac8     libvcruntime:per_thread_data.obj
 0004:00000ad4       $pdata$__vcrt_uninitialize_ptd 000000018003bad4     libvcruntime:per_thread_data.obj
 0004:00000ae0       $pdata$__vcrt_initialize_locks 000000018003bae0     libvcruntime:locks.obj
 0004:00000aec       $pdata$__vcrt_uninitialize_locks 000000018003baec     libvcruntime:locks.obj
 0004:00000af8       $pdata$?try_get_function@@YAPEAXW4function_id@?A0x61ce2399@@QEBDQEBW4module_id@2@2@Z 000000018003baf8     libvcruntime:winapi_downlevel.obj
 0004:00000b04       $pdata$__vcrt_EventRegister 000000018003bb04     libvcruntime:winapi_downlevel.obj
 0004:00000b10       $pdata$__vcrt_EventSetInformation 000000018003bb10     libvcruntime:winapi_downlevel.obj
 0004:00000b1c       $pdata$__vcrt_EventUnregister 000000018003bb1c     libvcruntime:winapi_downlevel.obj
 0004:00000b28       $pdata$__vcrt_EventWriteTransfer 000000018003bb28     libvcruntime:winapi_downlevel.obj
 0004:00000b34       $pdata$__vcrt_FlsAlloc     000000018003bb34     libvcruntime:winapi_downlevel.obj
 0004:00000b40       $pdata$__vcrt_FlsFree      000000018003bb40     libvcruntime:winapi_downlevel.obj
 0004:00000b4c       $pdata$__vcrt_FlsGetValue  000000018003bb4c     libvcruntime:winapi_downlevel.obj
 0004:00000b58       $pdata$__vcrt_FlsSetValue  000000018003bb58     libvcruntime:winapi_downlevel.obj
 0004:00000b64       $pdata$__vcrt_InitializeCriticalSectionEx 000000018003bb64     libvcruntime:winapi_downlevel.obj
 0004:00000b70       $pdata$__vcrt_initialize_winapi_thunks 000000018003bb70     libvcruntime:winapi_downlevel.obj
 0004:00000b7c       $pdata$__vcrt_uninitialize_winapi_thunks 000000018003bb7c     libvcruntime:winapi_downlevel.obj
 0004:00000bb8       $pdata$??$common_ftell@J@@YAJV__crt_stdio_stream@@@Z 000000018003bbb8     libucrt:ftell.obj
 0004:00000bc4       $pdata$??$common_ftell_nolock@_J@@YA_JV__crt_stdio_stream@@@Z 000000018003bbc4     libucrt:ftell.obj
 0004:00000bd0       $pdata$?common_ftell_read_mode_nolock@@YA_JV__crt_stdio_stream@@_J1@Z 000000018003bbd0     libucrt:ftell.obj
 0004:00000bdc       $pdata$?common_ftell_translated_utf8_nolock@@YA_JV__crt_stdio_stream@@_J@Z 000000018003bbdc     libucrt:ftell.obj
 0004:00000be8       $pdata$ferror              000000018003bbe8     libucrt:feoferr.obj
 0004:00000bf4       $pdata$??$common_fsopen@D@@YAPEAU_iobuf@@QEBD0H@Z 000000018003bbf4     libucrt:fopen.obj
 0004:00000c00       $pdata$__acrt_initialize_stdio 000000018003bc00     libucrt:_file.obj
 0004:00000c0c       $pdata$__acrt_uninitialize_stdio 000000018003bc0c     libucrt:_file.obj
 0004:00000c18       $pdata$__acrt_stdio_flush_nolock 000000018003bc18     libucrt:fflush.obj
 0004:00000c24       $pdata$_fflush_nolock      000000018003bc24     libucrt:fflush.obj
 0004:00000c30       $pdata$common_flush_all    000000018003bc30     libucrt:fflush.obj
 0004:00000c3c       $pdata$fflush              000000018003bc3c     libucrt:fflush.obj
 0004:00000c48       $pdata$_fclose_nolock      000000018003bc48     libucrt:fclose.obj
 0004:00000c54       $pdata$fclose              000000018003bc54     libucrt:fclose.obj
 0004:00000c60       $pdata$?common_fseek@@YAHV__crt_stdio_stream@@_JH@Z 000000018003bc60     libucrt:fseek.obj
 0004:00000c6c       $pdata$?common_fseek_binary_mode_read_only_fast_track_nolock@@YA_NV__crt_stdio_stream@@_JH@Z 000000018003bc6c     libucrt:fseek.obj
 0004:00000c78       $pdata$?common_fseek_nolock@@YAHV__crt_stdio_stream@@_JH@Z 000000018003bc78     libucrt:fseek.obj
 0004:00000c84       $pdata$??$?RV<lambda_7b91131dde12e1c3dfc74ff76b3f2eac>@@AEAV<lambda_dd75445284c072d0bd3768540cc698fa>@@V<lambda_16bc4ecb55b4718497c16bceaea2ceaf>@@@?$__crt_seh_guarded_call@H@@QEAAH$$QEAV<lambda_7b91131dde12e1c3dfc74ff76b3f2eac>@@AEAV<lambda_dd75445284c072d0bd3768540cc698fa>@@$$QEAV<lambda_16bc4ecb55b4718497c16bceaea2ceaf>@@@Z 000000018003bc84     libucrt:output.obj
 0004:00000c90       $pdata$??$?RV<lambda_aa279a7bcb127014629d5b1d62c7325d>@@AEAV<lambda_0a64b6a4deda75c01876f29c44fc5eb3>@@V<lambda_3323e69fbefe9d1a11713e670d47cdfa>@@@?$__crt_seh_guarded_call@H@@QEAAH$$QEAV<lambda_aa279a7bcb127014629d5b1d62c7325d>@@AEAV<lambda_0a64b6a4deda75c01876f29c44fc5eb3>@@$$QEAV<lambda_3323e69fbefe9d1a11713e670d47cdfa>@@@Z 000000018003bc90     libucrt:output.obj
 0004:00000c9c       $pdata$??$ensure_buffer_is_big_enough@D@formatting_buffer@__crt_stdio_output@@QEAA_N_K@Z 000000018003bc9c     libucrt:output.obj
 0004:00000ca8       $pdata$??$type_case_integer_parse_into_buffer@I@?$output_processor@_WV?$string_output_adapter@_W@__crt_stdio_output@@V?$standard_base@_WV?$string_output_adapter@_W@__crt_stdio_output@@@2@@__crt_stdio_output@@AEAAXII_N@Z 000000018003bca8     libucrt:output.obj
 0004:00000ca8       $pdata$??$type_case_integer_parse_into_buffer@I@?$output_processor@DV?$string_output_adapter@D@__crt_stdio_output@@V?$standard_base@DV?$string_output_adapter@D@__crt_stdio_output@@@2@@__crt_stdio_output@@AEAAXII_N@Z 000000018003bca8     libucrt:output.obj
 0004:00000ca8       $pdata$??$type_case_integer_parse_into_buffer@I@?$output_processor@DV?$stream_output_adapter@D@__crt_stdio_output@@V?$standard_base@DV?$stream_output_adapter@D@__crt_stdio_output@@@2@@__crt_stdio_output@@AEAAXII_N@Z 000000018003bca8     libucrt:output.obj
 0004:00000ca8       $pdata$??$type_case_integer_parse_into_buffer@I@?$output_processor@_WV?$stream_output_adapter@_W@__crt_stdio_output@@V?$standard_base@_WV?$stream_output_adapter@_W@__crt_stdio_output@@@2@@__crt_stdio_output@@AEAAXII_N@Z 000000018003bca8     libucrt:output.obj
 0004:00000cb4       $pdata$??$type_case_integer_parse_into_buffer@_K@?$output_processor@_WV?$stream_output_adapter@_W@__crt_stdio_output@@V?$standard_base@_WV?$stream_output_adapter@_W@__crt_stdio_output@@@2@@__crt_stdio_output@@AEAAX_KI_N@Z 000000018003bcb4     libucrt:output.obj
 0004:00000cb4       $pdata$??$type_case_integer_parse_into_buffer@_K@?$output_processor@_WV?$string_output_adapter@_W@__crt_stdio_output@@V?$standard_base@_WV?$string_output_adapter@_W@__crt_stdio_output@@@2@@__crt_stdio_output@@AEAAX_KI_N@Z 000000018003bcb4     libucrt:output.obj
 0004:00000cb4       $pdata$??$type_case_integer_parse_into_buffer@_K@?$output_processor@DV?$string_output_adapter@D@__crt_stdio_output@@V?$standard_base@DV?$string_output_adapter@D@__crt_stdio_output@@@2@@__crt_stdio_output@@AEAAX_KI_N@Z 000000018003bcb4     libucrt:output.obj
 0004:00000cb4       $pdata$??$type_case_integer_parse_into_buffer@_K@?$output_processor@DV?$stream_output_adapter@D@__crt_stdio_output@@V?$standard_base@DV?$stream_output_adapter@D@__crt_stdio_output@@@2@@__crt_stdio_output@@AEAAX_KI_N@Z 000000018003bcb4     libucrt:output.obj
 0004:00000cc0       $pdata$??$write_multiple_characters@V?$stream_output_adapter@D@__crt_stdio_output@@D@__crt_stdio_output@@YAXAEBV?$stream_output_adapter@D@0@DHQEAH@Z 000000018003bcc0     libucrt:output.obj
 0004:00000ccc       $pdata$??$write_multiple_characters@V?$stream_output_adapter@_W@__crt_stdio_output@@D@__crt_stdio_output@@YAXAEBV?$stream_output_adapter@_W@0@DHQEAH@Z 000000018003bccc     libucrt:output.obj
 0004:00000cd8       $pdata$??$write_multiple_characters@V?$string_output_adapter@D@__crt_stdio_output@@D@__crt_stdio_output@@YAXAEBV?$string_output_adapter@D@0@DHQEAH@Z 000000018003bcd8     libucrt:output.obj
 0004:00000ce4       $pdata$??$write_multiple_characters@V?$string_output_adapter@_W@__crt_stdio_output@@D@__crt_stdio_output@@YAXAEBV?$string_output_adapter@_W@0@DHQEAH@Z 000000018003bce4     libucrt:output.obj
 0004:00000cf0       $pdata$??0?$output_processor@DV?$stream_output_adapter@D@__crt_stdio_output@@V?$standard_base@DV?$stream_output_adapter@D@__crt_stdio_output@@@2@@__crt_stdio_output@@QEAA@AEBV?$stream_output_adapter@D@1@_KQEBDQEAU__crt_locale_pointers@@QEAD@Z 000000018003bcf0     libucrt:output.obj
 0004:00000cf0       $pdata$??0?$output_processor@DV?$string_output_adapter@D@__crt_stdio_output@@V?$standard_base@DV?$string_output_adapter@D@__crt_stdio_output@@@2@@__crt_stdio_output@@QEAA@AEBV?$string_output_adapter@D@1@_KQEBDQEAU__crt_locale_pointers@@QEAD@Z 000000018003bcf0     libucrt:output.obj
 0004:00000cfc       $pdata$??0?$output_processor@_WV?$stream_output_adapter@_W@__crt_stdio_output@@V?$standard_base@_WV?$stream_output_adapter@_W@__crt_stdio_output@@@2@@__crt_stdio_output@@QEAA@AEBV?$stream_output_adapter@_W@1@_KQEB_WQEAU__crt_locale_pointers@@QEAD@Z 000000018003bcfc     libucrt:output.obj
 0004:00000cfc       $pdata$??0?$output_processor@_WV?$string_output_adapter@_W@__crt_stdio_output@@V?$standard_base@_WV?$string_output_adapter@_W@__crt_stdio_output@@@2@@__crt_stdio_output@@QEAA@AEBV?$string_output_adapter@_W@1@_KQEB_WQEAU__crt_locale_pointers@@QEAD@Z 000000018003bcfc     libucrt:output.obj
 0004:00000d08       $pdata$??0_LocaleUpdate@@QEAA@QEAU__crt_locale_pointers@@@Z 000000018003bd08     libucrt:output.obj
 0004:00000d14       $pdata$??R<lambda_0a64b6a4deda75c01876f29c44fc5eb3>@@QEBAHXZ 000000018003bd14     libucrt:output.obj
 0004:00000d20       $pdata$??R<lambda_dd75445284c072d0bd3768540cc698fa>@@QEBAHXZ 000000018003bd20     libucrt:output.obj
 0004:00000d2c       $pdata$?force_decimal_point@__crt_stdio_output@@YAXPEADQEAU__crt_locale_pointers@@@Z 000000018003bd2c     libucrt:output.obj
 0004:00000d38       $pdata$?parse_int_from_format_string@?$output_processor@DV?$string_output_adapter@D@__crt_stdio_output@@V?$standard_base@DV?$string_output_adapter@D@__crt_stdio_output@@@2@@__crt_stdio_output@@AEAA_NQEAH@Z 000000018003bd38     libucrt:output.obj
 0004:00000d38       $pdata$?parse_int_from_format_string@?$output_processor@DV?$stream_output_adapter@D@__crt_stdio_output@@V?$standard_base@DV?$stream_output_adapter@D@__crt_stdio_output@@@2@@__crt_stdio_output@@AEAA_NQEAH@Z 000000018003bd38     libucrt:output.obj
 0004:00000d44       $pdata$?parse_int_from_format_string@?$output_processor@_WV?$string_output_adapter@_W@__crt_stdio_output@@V?$standard_base@_WV?$string_output_adapter@_W@__crt_stdio_output@@@2@@__crt_stdio_output@@AEAA_NQEAH@Z 000000018003bd44     libucrt:output.obj
 0004:00000d44       $pdata$?parse_int_from_format_string@?$output_processor@_WV?$stream_output_adapter@_W@__crt_stdio_output@@V?$standard_base@_WV?$stream_output_adapter@_W@__crt_stdio_output@@@2@@__crt_stdio_output@@AEAA_NQEAH@Z 000000018003bd44     libucrt:output.obj
 0004:00000d50       $pdata$?process@?$output_processor@DV?$stream_output_adapter@D@__crt_stdio_output@@V?$standard_base@DV?$stream_output_adapter@D@__crt_stdio_output@@@2@@__crt_stdio_output@@QEAAHXZ 000000018003bd50     libucrt:output.obj
 0004:00000d5c       $pdata$?process@?$output_processor@DV?$string_output_adapter@D@__crt_stdio_output@@V?$standard_base@DV?$string_output_adapter@D@__crt_stdio_output@@@2@@__crt_stdio_output@@QEAAHXZ 000000018003bd5c     libucrt:output.obj
 0004:00000d68       $pdata$?process@?$output_processor@_WV?$stream_output_adapter@_W@__crt_stdio_output@@V?$standard_base@_WV?$stream_output_adapter@_W@__crt_stdio_output@@@2@@__crt_stdio_output@@QEAAHXZ 000000018003bd68     libucrt:output.obj
 0004:00000d74       $pdata$?process@?$output_processor@_WV?$string_output_adapter@_W@__crt_stdio_output@@V?$standard_base@_WV?$string_output_adapter@_W@__crt_stdio_output@@@2@@__crt_stdio_output@@QEAAHXZ 000000018003bd74     libucrt:output.obj
 0004:00000d80       $pdata$?state_case_normal@?$output_processor@DV?$stream_output_adapter@D@__crt_stdio_output@@V?$standard_base@DV?$stream_output_adapter@D@__crt_stdio_output@@@2@@__crt_stdio_output@@AEAA_NXZ 000000018003bd80     libucrt:output.obj
 0004:00000d8c       $pdata$?state_case_normal@?$output_processor@DV?$string_output_adapter@D@__crt_stdio_output@@V?$standard_base@DV?$string_output_adapter@D@__crt_stdio_output@@@2@@__crt_stdio_output@@AEAA_NXZ 000000018003bd8c     libucrt:output.obj
 0004:00000d98       $pdata$?state_case_normal_tchar@?$output_processor@DV?$stream_output_adapter@D@__crt_stdio_output@@V?$standard_base@DV?$stream_output_adapter@D@__crt_stdio_output@@@2@@__crt_stdio_output@@AEAA_ND@Z 000000018003bd98     libucrt:output.obj
 0004:00000da4       $pdata$?state_case_normal_tchar@?$output_processor@DV?$string_output_adapter@D@__crt_stdio_output@@V?$standard_base@DV?$string_output_adapter@D@__crt_stdio_output@@@2@@__crt_stdio_output@@AEAA_ND@Z 000000018003bda4     libucrt:output.obj
 0004:00000db0       $pdata$?state_case_size@?$output_processor@DV?$stream_output_adapter@D@__crt_stdio_output@@V?$standard_base@DV?$stream_output_adapter@D@__crt_stdio_output@@@2@@__crt_stdio_output@@AEAA_NXZ 000000018003bdb0     libucrt:output.obj
 0004:00000dbc       $pdata$?state_case_size@?$output_processor@DV?$string_output_adapter@D@__crt_stdio_output@@V?$standard_base@DV?$string_output_adapter@D@__crt_stdio_output@@@2@@__crt_stdio_output@@AEAA_NXZ 000000018003bdbc     libucrt:output.obj
 0004:00000dc8       $pdata$?state_case_size@?$output_processor@_WV?$stream_output_adapter@_W@__crt_stdio_output@@V?$standard_base@_WV?$stream_output_adapter@_W@__crt_stdio_output@@@2@@__crt_stdio_output@@AEAA_NXZ 000000018003bdc8     libucrt:output.obj
 0004:00000dd4       $pdata$?state_case_size@?$output_processor@_WV?$string_output_adapter@_W@__crt_stdio_output@@V?$standard_base@_WV?$string_output_adapter@_W@__crt_stdio_output@@@2@@__crt_stdio_output@@AEAA_NXZ 000000018003bdd4     libucrt:output.obj
 0004:00000de0       $pdata$?state_case_type@?$output_processor@DV?$stream_output_adapter@D@__crt_stdio_output@@V?$standard_base@DV?$stream_output_adapter@D@__crt_stdio_output@@@2@@__crt_stdio_output@@AEAA_NXZ 000000018003bde0     libucrt:output.obj
 0004:00000dec       $pdata$?state_case_type@?$output_processor@DV?$string_output_adapter@D@__crt_stdio_output@@V?$standard_base@DV?$string_output_adapter@D@__crt_stdio_output@@@2@@__crt_stdio_output@@AEAA_NXZ 000000018003bdec     libucrt:output.obj
 0004:00000df8       $pdata$?state_case_type@?$output_processor@_WV?$stream_output_adapter@_W@__crt_stdio_output@@V?$standard_base@_WV?$stream_output_adapter@_W@__crt_stdio_output@@@2@@__crt_stdio_output@@AEAA_NXZ 000000018003bdf8     libucrt:output.obj
 0004:00000e04       $pdata$?state_case_type@?$output_processor@_WV?$string_output_adapter@_W@__crt_stdio_output@@V?$standard_base@_WV?$string_output_adapter@_W@__crt_stdio_output@@@2@@__crt_stdio_output@@AEAA_NXZ 000000018003be04     libucrt:output.obj
 0004:00000e10       $pdata$?type_case_Z@?$output_processor@DV?$string_output_adapter@D@__crt_stdio_output@@V?$standard_base@DV?$string_output_adapter@D@__crt_stdio_output@@@2@@__crt_stdio_output@@AEAA_NXZ 000000018003be10     libucrt:output.obj
 0004:00000e10       $pdata$?type_case_Z@?$output_processor@DV?$stream_output_adapter@D@__crt_stdio_output@@V?$standard_base@DV?$stream_output_adapter@D@__crt_stdio_output@@@2@@__crt_stdio_output@@AEAA_NXZ 000000018003be10     libucrt:output.obj
 0004:00000e1c       $pdata$?type_case_Z@?$output_processor@_WV?$stream_output_adapter@_W@__crt_stdio_output@@V?$standard_base@_WV?$stream_output_adapter@_W@__crt_stdio_output@@@2@@__crt_stdio_output@@AEAA_NXZ 000000018003be1c     libucrt:output.obj
 0004:00000e1c       $pdata$?type_case_Z@?$output_processor@_WV?$string_output_adapter@_W@__crt_stdio_output@@V?$standard_base@_WV?$string_output_adapter@_W@__crt_stdio_output@@@2@@__crt_stdio_output@@AEAA_NXZ 000000018003be1c     libucrt:output.obj
 0004:00000e28       $pdata$?type_case_a@?$output_processor@DV?$stream_output_adapter@D@__crt_stdio_output@@V?$standard_base@DV?$stream_output_adapter@D@__crt_stdio_output@@@2@@__crt_stdio_output@@AEAA_NXZ 000000018003be28     libucrt:output.obj
 0004:00000e28       $pdata$?type_case_a@?$output_processor@DV?$string_output_adapter@D@__crt_stdio_output@@V?$standard_base@DV?$string_output_adapter@D@__crt_stdio_output@@@2@@__crt_stdio_output@@AEAA_NXZ 000000018003be28     libucrt:output.obj
 0004:00000e34       $pdata$?type_case_a@?$output_processor@_WV?$stream_output_adapter@_W@__crt_stdio_output@@V?$standard_base@_WV?$stream_output_adapter@_W@__crt_stdio_output@@@2@@__crt_stdio_output@@AEAA_NXZ 000000018003be34     libucrt:output.obj
 0004:00000e34       $pdata$?type_case_a@?$output_processor@_WV?$string_output_adapter@_W@__crt_stdio_output@@V?$standard_base@_WV?$string_output_adapter@_W@__crt_stdio_output@@@2@@__crt_stdio_output@@AEAA_NXZ 000000018003be34     libucrt:output.obj
 0004:00000e40       $pdata$?type_case_c_tchar@?$output_processor@DV?$string_output_adapter@D@__crt_stdio_output@@V?$standard_base@DV?$string_output_adapter@D@__crt_stdio_output@@@2@@__crt_stdio_output@@AEAA_ND@Z 000000018003be40     libucrt:output.obj
 0004:00000e40       $pdata$?type_case_c_tchar@?$output_processor@DV?$stream_output_adapter@D@__crt_stdio_output@@V?$standard_base@DV?$stream_output_adapter@D@__crt_stdio_output@@@2@@__crt_stdio_output@@AEAA_ND@Z 000000018003be40     libucrt:output.obj
